; This is a part of the Microsoft Foundation Classes C++ library.
; Copyright (C) 1992-1999 Microsoft Corporation
; All rights reserved.
;
; This source code is only intended as a supplement to the
; Microsoft Foundation Classes Reference and related
; electronic documentation provided with the library.
; See these sources for detailed information regarding the
; Microsoft Foundation Classes product.
 
LIBRARY MFC70uD 
; For Win32 DLLs, only EXPORTs really required.

EXPORTS
 ??_0COleCurrency@@QAEABV0@J@Z @ 256 NONAME
 ??_U@YAPAXI@Z @ 257 NONAME
 ??_U@YAPAXIHPBDH@Z @ 258 NONAME
 ??_U@YAPAXIPBDH@Z @ 259 NONAME
 ??_V@YAXPAX@Z @ 260 NONAME
 ??_V@YAXPAXHPBDH@Z @ 261 NONAME
 ??_V@YAXPAXPBDH@Z @ 262 NONAME
 ??0_AFX_CHECKLIST_STATE@@QAE@XZ @ 263 NONAME
 ??0_AFX_COLOR_STATE@@QAE@XZ @ 264 NONAME
 ??0_AFX_DEBUG_STATE@@QAE@XZ @ 265 NONAME
 ??0_AFX_EDIT_STATE@@QAE@XZ @ 266 NONAME
 ??0_AFX_OLE_STATE@@QAE@XZ @ 267 NONAME
 ??0_AFX_THREAD_STATE@@QAE@XZ @ 268 NONAME
 ??0_AFXCTL_AMBIENT_CACHE@@QAE@XZ @ 269 NONAME
 ??0_AFXCTL_UIACTIVE_INFO@@QAE@PAUHMENU__@@PAUIOleInPlaceFrame@@@Z @ 270 NONAME
 ??0AFX_DDPDATA@@QAE@PAXHH0IPBG@Z @ 271 NONAME
 ??0AFX_EXCEPTION_LINK@@QAE@XZ @ 272 NONAME
 ??0AFX_MAINTAIN_STATE@@QAE@PAVAFX_MODULE_STATE@@@Z @ 273 NONAME
 ??0AFX_MAINTAIN_STATE2@@QAE@PAVAFX_MODULE_STATE@@@Z @ 274 NONAME
 ??0AFX_MODULE_STATE@@QAE@HP6GJPAUHWND__@@IIJ@ZKH@Z @ 275 NONAME
 ??0AFX_MODULE_THREAD_STATE@@QAE@XZ @ 276 NONAME
 ??0CAnimateCtrl@@QAE@XZ @ 277 NONAME
 ??0CArchive@@IAE@ABV0@@Z @ 278 NONAME
 ??0CArchive@@QAE@PAVCFile@@IHPAX@Z @ 279 NONAME
 ??0CArchiveException@@QAE@HPBG@Z @ 280 NONAME
 ??0CArchivePropExchange@@QAE@AAVCArchive@@@Z @ 281 NONAME
 ??0CArchiveStream@@QAE@PAVCArchive@@@Z @ 282 NONAME
 ??0CAsyncMonikerFile@@QAE@XZ @ 283 NONAME
 ??0CAsyncPropExchange@@QAE@K@Z @ 284 NONAME
 ??0CAsyncSocket@@QAE@XZ @ 285 NONAME
 ??0CBitmap@@QAE@XZ @ 286 NONAME
 ??0CBitmapButton@@QAE@XZ @ 287 NONAME
 ??0CBlobProperty@@QAE@PAX@Z @ 288 NONAME
 ??0CBrowserControlSite@@QAE@PAVCOleControlContainer@@PAVCDHtmlDialog@@@Z @ 289 NONAME
 ??0CBrush@@QAE@HK@Z @ 290 NONAME
 ??0CBrush@@QAE@K@Z @ 291 NONAME
 ??0CBrush@@QAE@PAVCBitmap@@@Z @ 292 NONAME
 ??0CBrush@@QAE@XZ @ 293 NONAME
 ??0CButton@@QAE@XZ @ 294 NONAME
 ??0CByteArray@@QAE@XZ @ 295 NONAME
 ??0CCachedDataPathProperty@@QAE@PAVCOleControl@@@Z @ 296 NONAME
 ??0CCachedDataPathProperty@@QAE@PBGPAVCOleControl@@@Z @ 297 NONAME
 ??0CCheckListBox@@QAE@XZ @ 298 NONAME
 ??0CChevronOwnerDrawMenu@@QAE@XZ @ 299 NONAME
 ??0CClientDC@@QAE@PAVCWnd@@@Z @ 300 NONAME
 ??0CCmdTarget@@QAE@XZ @ 301 NONAME
 ??0CCmdUI@@QAE@XZ @ 302 NONAME
 ??0CColorDialog@@QAE@KKPAVCWnd@@@Z @ 303 NONAME
 ??0CComboBox@@QAE@XZ @ 304 NONAME
 ??0CComboBoxEx@@QAE@XZ @ 305 NONAME
 ??0CCommandLineInfo@@QAE@XZ @ 306 NONAME
 ??0CCommonDialog@@QAE@PAVCWnd@@@Z @ 307 NONAME
 ??0CConnectionPoint@@QAE@XZ @ 308 NONAME
 ??0CControlBar@@IAE@XZ @ 309 NONAME
 ??0CControlBarInfo@@QAE@XZ @ 310 NONAME
 ??0CControlDataSource@COleControl@@QAE@PAV1@@Z @ 311 NONAME
 ??0CControlFrameWnd@@QAE@PAVCOleControl@@@Z @ 312 NONAME
 ??0CCreateContext@@QAE@XZ @ 313 NONAME
 ??0CCriticalSection@@QAE@XZ @ 314 NONAME
 ??0CCtrlView@@QAE@PBGK@Z @ 315 NONAME
 ??0CDatabase@@QAE@XZ @ 316 NONAME
 ??0CDataBoundProperty@@QAE@PAV0@JG@Z @ 317 NONAME
 ??0CDataExchange@@QAE@PAVCWnd@@H@Z @ 318 NONAME
 ??0CDataPathProperty@@QAE@PAVCOleControl@@@Z @ 319 NONAME
 ??0CDataPathProperty@@QAE@PBGPAVCOleControl@@@Z @ 320 NONAME
 ??0CDataSourceControl@@QAE@PAVCOleControlSite@@@Z @ 321 NONAME
 ??0CDateTimeCtrl@@QAE@XZ @ 322 NONAME
 ??0CDBException@@QAE@F@Z @ 323 NONAME
 ??0CDBVariant@@QAE@XZ @ 324 NONAME
 ??0CDC@@QAE@XZ @ 325 NONAME
 ??0CDHtmlControlSink@@QAE@PAUIUnknown@@PAVCDHtmlSinkHandler@@PBGK@Z @ 326 NONAME
 ??0CDHtmlControlSink@@QAE@XZ @ 327 NONAME
 ??0CDHtmlDialog@@QAE@IIPAVCWnd@@@Z @ 328 NONAME
 ??0CDHtmlDialog@@QAE@PBG0PAVCWnd@@@Z @ 329 NONAME
 ??0CDHtmlDialog@@QAE@XZ @ 330 NONAME
 ??0CDHtmlElementEventSink@@QAE@PAVCDHtmlEventSink@@PAUIDispatch@@@Z @ 331 NONAME
 ??0CDialog@@QAE@IPAVCWnd@@@Z @ 332 NONAME
 ??0CDialog@@QAE@PBGPAVCWnd@@@Z @ 333 NONAME
 ??0CDialog@@QAE@XZ @ 334 NONAME
 ??0CDialogBar@@QAE@XZ @ 335 NONAME
 ??0CDialogTemplate@@QAE@PAX@Z @ 336 NONAME
 ??0CDialogTemplate@@QAE@PBUDLGTEMPLATE@@@Z @ 337 NONAME
 ??0CDocItem@@IAE@XZ @ 338 NONAME
 ??0CDockBar@@QAE@H@Z @ 339 NONAME
 ??0CDockContext@@QAE@PAVCControlBar@@@Z @ 340 NONAME
 ??0CDockState@@QAE@XZ @ 341 NONAME
 ??0CDocManager@@QAE@XZ @ 342 NONAME
 ??0CDocObjectServer@@QAE@PAVCOleServerDoc@@PAUIOleDocumentSite@@@Z @ 343 NONAME
 ??0CDocObjectServerItem@@IAE@PAVCOleServerDoc@@H@Z @ 344 NONAME
 ??0CDocTemplate@@IAE@IPAUCRuntimeClass@@00@Z @ 345 NONAME
 ??0CDocument@@QAE@XZ @ 346 NONAME
 ??0CDragListBox@@QAE@XZ @ 347 NONAME
 ??0CDumpContext@@IAE@ABV0@@Z @ 348 NONAME
 ??0CDumpContext@@QAE@PAVCFile@@@Z @ 349 NONAME
 ??0CDWordArray@@QAE@XZ @ 350 NONAME
 ??0CDynLinkLibrary@@QAE@AAUAFX_EXTENSION_MODULE@@H@Z @ 351 NONAME
 ??0CDynLinkLibrary@@QAE@PAUHINSTANCE__@@0@Z @ 352 NONAME
 ??0CEdit@@QAE@XZ @ 353 NONAME
 ??0CEditView@@QAE@XZ @ 354 NONAME
 ??0CEnumArray@@QAE@IPBXIH@Z @ 355 NONAME
 ??0CEnumConnections@@QAE@PBXI@Z @ 356 NONAME
 ??0CEnumConnPoints@@QAE@PBXI@Z @ 357 NONAME
 ??0CEnumFormatEtc@@QAE@XZ @ 358 NONAME
 ??0CEvent@@QAE@HHPBGPAU_SECURITY_ATTRIBUTES@@@Z @ 359 NONAME
 ??0CException@@QAE@H@Z @ 360 NONAME
 ??0CException@@QAE@XZ @ 361 NONAME
 ??0CFieldExchange@@QAE@IPAVCRecordset@@PAX@Z @ 362 NONAME
 ??0CFile@@QAE@PAX@Z @ 363 NONAME
 ??0CFile@@QAE@PBGI@Z @ 364 NONAME
 ??0CFile@@QAE@XZ @ 365 NONAME
 ??0CFileDialog@@QAE@HPBG0K0PAVCWnd@@K@Z @ 366 NONAME
 ??0CFileException@@QAE@HJPBG@Z @ 367 NONAME
 ??0CFileFind@@QAE@XZ @ 368 NONAME
 ??0CFindReplaceDialog@@QAE@XZ @ 369 NONAME
 ??0CFixedAlloc@@QAE@II@Z @ 370 NONAME
 ??0CFixedAllocNoSync@@QAE@II@Z @ 371 NONAME
 ??0CFont@@QAE@XZ @ 372 NONAME
 ??0CFontDialog@@QAE@ABU_charformatw@@KPAVCDC@@PAVCWnd@@@Z @ 373 NONAME
 ??0CFontDialog@@QAE@PAUtagLOGFONTW@@KPAVCDC@@PAVCWnd@@@Z @ 374 NONAME
 ??0CFontHolder@@QAE@PAUIPropertyNotifySink@@@Z @ 375 NONAME
 ??0CFormView@@IAE@I@Z @ 376 NONAME
 ??0CFormView@@IAE@PBG@Z @ 377 NONAME
 ??0CFrameWnd@@QAE@XZ @ 378 NONAME
 ??0CFtpConnection@@QAE@PAVCInternetSession@@PAXPBGK@Z @ 379 NONAME
 ??0CFtpConnection@@QAE@PAVCInternetSession@@PBG11KGH@Z @ 380 NONAME
 ??0CFtpFileFind@@QAE@PAVCFtpConnection@@K@Z @ 381 NONAME
 ??0CGdiObject@@QAE@XZ @ 382 NONAME
 ??0CGopherConnection@@QAE@PAVCInternetSession@@PAXPBGK@Z @ 383 NONAME
 ??0CGopherConnection@@QAE@PAVCInternetSession@@PBG11KG@Z @ 384 NONAME
 ??0CGopherFile@@IAE@PAX0PBGKK@Z @ 385 NONAME
 ??0CGopherFile@@IAE@PAXAAVCGopherLocator@@PAVCGopherConnection@@@Z @ 386 NONAME
 ??0CGopherFileFind@@QAE@PAVCGopherConnection@@K@Z @ 387 NONAME
 ??0CGopherLocator@@AAE@PBGK@Z @ 388 NONAME
 ??0CGopherLocator@@QAE@ABV0@@Z @ 389 NONAME
 ??0CHandleMap@@QAE@PAUCRuntimeClass@@P6GXPAVCObject@@@Z2IH@Z @ 390 NONAME
 ??0CHeaderCtrl@@QAE@XZ @ 391 NONAME
 ??0CHotKeyCtrl@@QAE@XZ @ 392 NONAME
 ??0CHtmlControlSite@@QAE@PAVCOleControlContainer@@@Z @ 393 NONAME
 ??0CHtmlEditCtrl@@QAE@XZ @ 394 NONAME
 ??0CHtmlEditDoc@@IAE@XZ @ 395 NONAME
 ??0CHtmlEditView@@IAE@XZ @ 396 NONAME
 ??0CHtmlView@@IAE@XZ @ 397 NONAME
 ??0CHttpConnection@@QAE@PAVCInternetSession@@PAXPBGK@Z @ 398 NONAME
 ??0CHttpConnection@@QAE@PAVCInternetSession@@PBGG11K@Z @ 399 NONAME
 ??0CHttpConnection@@QAE@PAVCInternetSession@@PBGKG11K@Z @ 400 NONAME
 ??0CHttpFile@@IAE@PAX0PBG11K@Z @ 401 NONAME
 ??0CHttpFile@@IAE@PAXPBG1PAVCHttpConnection@@@Z @ 402 NONAME
 ??0CImageList@@QAE@XZ @ 403 NONAME
 ??0CInternetConnection@@QAE@PAVCInternetSession@@PBGGK@Z @ 404 NONAME
 ??0CInternetException@@QAE@K@Z @ 405 NONAME
 ??0CInternetFile@@IAE@PAX0PBG1KH@Z @ 406 NONAME
 ??0CInternetFile@@IAE@PAXPBGPAVCInternetConnection@@H@Z @ 407 NONAME
 ??0CInternetSession@@QAE@PBGKK00K@Z @ 408 NONAME
 ??0CIPAddressCtrl@@QAE@XZ @ 409 NONAME
 ??0CListBox@@QAE@XZ @ 410 NONAME
 ??0CListCtrl@@QAE@XZ @ 411 NONAME
 ??0CListView@@QAE@XZ @ 412 NONAME
 ??0CLongBinary@@QAE@XZ @ 413 NONAME
 ??0CMapPtrToPtr@@QAE@H@Z @ 414 NONAME
 ??0CMapPtrToWord@@QAE@H@Z @ 415 NONAME
 ??0CMapStringToOb@@QAE@H@Z @ 416 NONAME
 ??0CMapStringToPtr@@QAE@H@Z @ 417 NONAME
 ??0CMapStringToString@@QAE@H@Z @ 418 NONAME
 ??0CMapWordToOb@@QAE@H@Z @ 419 NONAME
 ??0CMapWordToPtr@@QAE@H@Z @ 420 NONAME
 ??0CMDIChildWnd@@QAE@XZ @ 421 NONAME
 ??0CMDIFrameWnd@@QAE@XZ @ 422 NONAME
 ??0CMemFile@@QAE@I@Z @ 423 NONAME
 ??0CMemFile@@QAE@PAEII@Z @ 424 NONAME
 ??0CMemoryException@@QAE@HI@Z @ 425 NONAME
 ??0CMemoryException@@QAE@XZ @ 426 NONAME
 ??0CMemoryState@@QAE@XZ @ 427 NONAME
 ??0CMenu@@QAE@XZ @ 428 NONAME
 ??0CMetaFileDC@@QAE@XZ @ 429 NONAME
 ??0CMiniDockFrameWnd@@QAE@XZ @ 430 NONAME
 ??0CMiniFrameWnd@@QAE@XZ @ 431 NONAME
 ??0CMonikerFile@@QAE@XZ @ 432 NONAME
 ??0CMonthCalCtrl@@QAE@XZ @ 433 NONAME
 ??0CMultiDocTemplate@@QAE@IPAUCRuntimeClass@@00@Z @ 434 NONAME
 ??0CMultiLock@@QAE@QAPAVCSyncObject@@KH@Z @ 435 NONAME
 ??0CMultiPageDHtmlDialog@@QAE@IIPAVCWnd@@@Z @ 436 NONAME
 ??0CMultiPageDHtmlDialog@@QAE@PBG0PAVCWnd@@@Z @ 437 NONAME
 ??0CMultiPageDHtmlDialog@@QAE@XZ @ 438 NONAME
 ??0CMutex@@QAE@HPBGPAU_SECURITY_ATTRIBUTES@@@Z @ 439 NONAME
 ??0CNotSupportedException@@QAE@HI@Z @ 440 NONAME
 ??0CNotSupportedException@@QAE@XZ @ 441 NONAME
 ??0CObArray@@QAE@XZ @ 442 NONAME
 ??0CObject@@IAE@XZ @ 443 NONAME
 ??0CObList@@QAE@H@Z @ 444 NONAME
 ??0COleBusyDialog@@QAE@PAUHTASK__@@HKPAVCWnd@@@Z @ 445 NONAME
 ??0COleChangeIconDialog@@QAE@PAVCOleClientItem@@KPAVCWnd@@@Z @ 446 NONAME
 ??0COleChangeSourceDialog@@QAE@PAVCOleClientItem@@PAVCWnd@@@Z @ 447 NONAME
 ??0COleClientItem@@QAE@PAVCOleDocument@@@Z @ 448 NONAME
 ??0COleCmdUI@@QAE@PAU_tagOLECMD@@KPBU_GUID@@@Z @ 449 NONAME
 ??0COleCntrFrameWnd@@QAE@PAVCOleIPFrameWnd@@@Z @ 450 NONAME
 ??0COleControl@@QAE@XZ @ 451 NONAME
 ??0COleControlContainer@@QAE@PAVCWnd@@@Z @ 452 NONAME
 ??0COleControlLock@@QAE@ABU_GUID@@@Z @ 453 NONAME
 ??0COleControlSite@@QAE@PAVCOleControlContainer@@@Z @ 454 NONAME
 ??0COleConvertDialog@@QAE@PAVCOleClientItem@@KPAU_GUID@@PAVCWnd@@@Z @ 455 NONAME
 ??0COleCurrency@@QAE@ABUtagVARIANT@@@Z @ 456 NONAME
 ??0COleCurrency@@QAE@ABV0@@Z @ 457 NONAME
 ??0COleCurrency@@QAE@JJ@Z @ 458 NONAME
 ??0COleCurrency@@QAE@TtagCY@@@Z @ 459 NONAME
 ??0COleCurrency@@QAE@XZ @ 460 NONAME
 ??0COleDataObject@@QAE@XZ @ 461 NONAME
 ??0COleDataSource@@QAE@XZ @ 462 NONAME
 ??0COleDialog@@QAE@PAVCWnd@@@Z @ 463 NONAME
 ??0COleDispatchDriver@@QAE@ABV0@@Z @ 464 NONAME
 ??0COleDispatchDriver@@QAE@PAUIDispatch@@H@Z @ 465 NONAME
 ??0COleDispatchDriver@@QAE@XZ @ 466 NONAME
 ??0COleDispatchException@@QAE@PBGIG@Z @ 467 NONAME
 ??0COleDocIPFrameWnd@@QAE@XZ @ 468 NONAME
 ??0COleDocObjectItem@@QAE@PAVCOleDocument@@@Z @ 469 NONAME
 ??0COleDocument@@QAE@XZ @ 470 NONAME
 ??0COleDropSource@@QAE@XZ @ 471 NONAME
 ??0COleDropTarget@@QAE@XZ @ 472 NONAME
 ??0COleException@@QAE@XZ @ 473 NONAME
 ??0COleFrameHook@@QAE@PAVCFrameWnd@@PAVCOleClientItem@@@Z @ 474 NONAME
 ??0COleInsertDialog@@QAE@KPAVCWnd@@@Z @ 475 NONAME
 ??0COleIPFrameWnd@@QAE@XZ @ 476 NONAME
 ??0COleLinkingDoc@@QAE@XZ @ 477 NONAME
 ??0COleLinksDialog@@QAE@PAVCOleDocument@@PAVCView@@KPAVCWnd@@@Z @ 478 NONAME
 ??0COleMessageFilter@@QAE@XZ @ 479 NONAME
 ??0COleObjectFactory@@QAE@ABU_GUID@@PAUCRuntimeClass@@HHPBG@Z @ 480 NONAME
 ??0COleObjectFactory@@QAE@ABU_GUID@@PAUCRuntimeClass@@HPBG@Z @ 481 NONAME
 ??0COlePasteSpecialDialog@@QAE@KPAVCOleDataObject@@PAVCWnd@@@Z @ 482 NONAME
 ??0COlePropertiesDialog@@QAE@PAVCOleClientItem@@IIPAVCWnd@@@Z @ 483 NONAME
 ??0COlePropertyPage@@QAE@II@Z @ 484 NONAME
 ??0COleResizeBar@@QAE@XZ @ 485 NONAME
 ??0COleSafeArray@@QAE@ABUtagSAFEARRAY@@G@Z @ 486 NONAME
 ??0COleSafeArray@@QAE@ABUtagVARIANT@@@Z @ 487 NONAME
 ??0COleSafeArray@@QAE@ABV0@@Z @ 488 NONAME
 ??0COleSafeArray@@QAE@ABVCOleVariant@@@Z @ 489 NONAME
 ??0COleSafeArray@@QAE@PBUtagSAFEARRAY@@G@Z @ 490 NONAME
 ??0COleSafeArray@@QAE@PBUtagVARIANT@@@Z @ 491 NONAME
 ??0COleSafeArray@@QAE@XZ @ 492 NONAME
 ??0COleServerDoc@@QAE@XZ @ 493 NONAME
 ??0COleServerItem@@IAE@PAVCOleServerDoc@@H@Z @ 494 NONAME
 ??0COleStreamFile@@QAE@PAUIStream@@@Z @ 495 NONAME
 ??0COleTemplateServer@@QAE@XZ @ 496 NONAME
 ??0COleUILinkInfo@@QAE@PAVCOleDocument@@@Z @ 497 NONAME
 ??0COleUpdateDialog@@QAE@PAVCOleDocument@@HHPAVCWnd@@@Z @ 498 NONAME
 ??0COleVariant@@QAE@AAV?$CStringT@GV?$StrTraitMFC@GV?$ChTraitsCRT@G@@@@@@@Z @ 499 NONAME
 ??0COleVariant@@QAE@ABUtagVARIANT@@@Z @ 500 NONAME
 ??0COleVariant@@QAE@ABV0@@Z @ 501 NONAME
 ??0COleVariant@@QAE@ABVCByteArray@@@Z @ 502 NONAME
 ??0COleVariant@@QAE@ABVCLongBinary@@@Z @ 503 NONAME
 ??0COleVariant@@QAE@ABVCOleCurrency@@@Z @ 504 NONAME
 ??0COleVariant@@QAE@ABVCOleDateTime@ATL@@@Z @ 505 NONAME
 ??0COleVariant@@QAE@E@Z @ 506 NONAME
 ??0COleVariant@@QAE@FG@Z @ 507 NONAME
 ??0COleVariant@@QAE@JG@Z @ 508 NONAME
 ??0COleVariant@@QAE@M@Z @ 509 NONAME
 ??0COleVariant@@QAE@N@Z @ 510 NONAME
 ??0COleVariant@@QAE@PBG@Z @ 511 NONAME
 ??0COleVariant@@QAE@PBGG@Z @ 512 NONAME
 ??0COleVariant@@QAE@PBU_ITEMIDLIST@@@Z @ 513 NONAME
 ??0COleVariant@@QAE@PBUtagVARIANT@@@Z @ 514 NONAME
 ??0COleVariant@@QAE@XZ @ 515 NONAME
 ??0CPageSetupDialog@@QAE@KPAVCWnd@@@Z @ 516 NONAME
 ??0CPaintDC@@QAE@PAVCWnd@@@Z @ 517 NONAME
 ??0CPalette@@QAE@XZ @ 518 NONAME
 ??0CPen@@QAE@HHK@Z @ 519 NONAME
 ??0CPen@@QAE@HHPBUtagLOGBRUSH@@HPBK@Z @ 520 NONAME
 ??0CPen@@QAE@XZ @ 521 NONAME
 ??0CPictureHolder@@QAE@XZ @ 522 NONAME
 ??0CPreviewDC@@QAE@XZ @ 523 NONAME
 ??0CPreviewView@@QAE@XZ @ 524 NONAME
 ??0CPrintDialog@@IAE@AAUtagPDW@@@Z @ 525 NONAME
 ??0CPrintDialog@@QAE@HKPAVCWnd@@@Z @ 526 NONAME
 ??0CPrintDialogEx@@QAE@KPAVCWnd@@@Z @ 527 NONAME
 ??0CPrintInfo@@QAE@XZ @ 528 NONAME
 ??0CPrintPreviewState@@QAE@XZ @ 529 NONAME
 ??0CProgressCtrl@@QAE@XZ @ 530 NONAME
 ??0CPropbagPropExchange@@QAE@PAUIPropertyBag@@PAUIErrorLog@@HH@Z @ 531 NONAME
 ??0CProperty@@QAE@KQAXK@Z @ 532 NONAME
 ??0CProperty@@QAE@XZ @ 533 NONAME
 ??0CPropertyPage@@QAE@II@Z @ 534 NONAME
 ??0CPropertyPage@@QAE@IIII@Z @ 535 NONAME
 ??0CPropertyPage@@QAE@PBGI@Z @ 536 NONAME
 ??0CPropertyPage@@QAE@PBGIII@Z @ 537 NONAME
 ??0CPropertyPage@@QAE@XZ @ 538 NONAME
 ??0CPropertySection@@QAE@U_GUID@@@Z @ 539 NONAME
 ??0CPropertySection@@QAE@XZ @ 540 NONAME
 ??0CPropertySet@@QAE@U_GUID@@@Z @ 541 NONAME
 ??0CPropertySet@@QAE@XZ @ 542 NONAME
 ??0CPropertySheet@@QAE@IPAVCWnd@@I@Z @ 543 NONAME
 ??0CPropertySheet@@QAE@IPAVCWnd@@IPAUHBITMAP__@@PAUHPALETTE__@@1@Z @ 544 NONAME
 ??0CPropertySheet@@QAE@PBGPAVCWnd@@I@Z @ 545 NONAME
 ??0CPropertySheet@@QAE@PBGPAVCWnd@@IPAUHBITMAP__@@PAUHPALETTE__@@2@Z @ 546 NONAME
 ??0CPropertySheet@@QAE@XZ @ 547 NONAME
 ??0CPropExchange@@IAE@XZ @ 548 NONAME
 ??0CPropsetPropExchange@@QAE@AAVCPropertySection@@PAUIStorage@@H@Z @ 549 NONAME
 ??0CPtrArray@@QAE@XZ @ 550 NONAME
 ??0CPtrList@@QAE@H@Z @ 551 NONAME
 ??0CReBar@@QAE@XZ @ 552 NONAME
 ??0CReBarCtrl@@QAE@XZ @ 553 NONAME
 ??0CRecentFileList@@QAE@IPBG0HH@Z @ 554 NONAME
 ??0CRecordset@@QAE@PAVCDatabase@@@Z @ 555 NONAME
 ??0CRecordView@@IAE@I@Z @ 556 NONAME
 ??0CRecordView@@IAE@PBG@Z @ 557 NONAME
 ??0CRectTracker@@QAE@PBUtagRECT@@I@Z @ 558 NONAME
 ??0CRectTracker@@QAE@XZ @ 559 NONAME
 ??0CReObject@@QAE@PAVCRichEditCntrItem@@@Z @ 560 NONAME
 ??0CReObject@@QAE@XZ @ 561 NONAME
 ??0CResetPropExchange@@QAE@XZ @ 562 NONAME
 ??0CResourceException@@QAE@HI@Z @ 563 NONAME
 ??0CResourceException@@QAE@XZ @ 564 NONAME
 ??0CRgn@@QAE@XZ @ 565 NONAME
 ??0CRichEditCntrItem@@QAE@PAU_reobject@@PAVCRichEditDoc@@@Z @ 566 NONAME
 ??0CRichEditCtrl@@QAE@XZ @ 567 NONAME
 ??0CRichEditDoc@@IAE@XZ @ 568 NONAME
 ??0CRichEditView@@QAE@XZ @ 569 NONAME
 ??0CScrollBar@@QAE@XZ @ 570 NONAME
 ??0CScrollView@@IAE@XZ @ 571 NONAME
 ??0CSemaphore@@QAE@JJPBGPAU_SECURITY_ATTRIBUTES@@@Z @ 572 NONAME
 ??0CSharedFile@@QAE@II@Z @ 573 NONAME
 ??0CSimpleException@@QAE@H@Z @ 574 NONAME
 ??0CSimpleException@@QAE@XZ @ 575 NONAME
 ??0CSingleDocTemplate@@QAE@IPAUCRuntimeClass@@00@Z @ 576 NONAME
 ??0CSingleLock@@QAE@PAVCSyncObject@@H@Z @ 577 NONAME
 ??0CSliderCtrl@@QAE@XZ @ 578 NONAME
 ??0CSocket@@QAE@XZ @ 579 NONAME
 ??0CSocketFile@@QAE@PAVCSocket@@H@Z @ 580 NONAME
 ??0CSocketWnd@@QAE@XZ @ 581 NONAME
 ??0CSpinButtonCtrl@@QAE@XZ @ 582 NONAME
 ??0CSplitterWnd@@QAE@XZ @ 583 NONAME
 ??0CStatic@@QAE@XZ @ 584 NONAME
 ??0CStatusBar@@QAE@XZ @ 585 NONAME
 ??0CStatusBarCtrl@@QAE@XZ @ 586 NONAME
 ??0CStdioFile@@QAE@PAU_iobuf@@@Z @ 587 NONAME
 ??0CStdioFile@@QAE@PBGI@Z @ 588 NONAME
 ??0CStdioFile@@QAE@XZ @ 589 NONAME
 ??0CStringArray@@QAE@XZ @ 590 NONAME
 ??0CStringList@@QAE@H@Z @ 591 NONAME
 ??0CSyncObject@@QAE@PBG@Z @ 592 NONAME
 ??0CTabCtrl@@QAE@XZ @ 593 NONAME
 ??0CTestCmdUI@@QAE@XZ @ 594 NONAME
 ??0CThreadSlotData@@QAE@XZ @ 595 NONAME
 ??0CToolBar@@QAE@XZ @ 596 NONAME
 ??0CToolBarCtrl@@QAE@XZ @ 597 NONAME
 ??0CToolTipCtrl@@QAE@XZ @ 598 NONAME
 ??0CTreeCtrl@@QAE@XZ @ 599 NONAME
 ??0CTreeView@@QAE@XZ @ 600 NONAME
 ??0CUIntArray@@QAE@XZ @ 601 NONAME
 ??0CUserException@@QAE@HI@Z @ 602 NONAME
 ??0CUserException@@QAE@XZ @ 603 NONAME
 ??0CView@@IAE@XZ @ 604 NONAME
 ??0CWaitCursor@@QAE@XZ @ 605 NONAME
 ??0CWinApp@@QAE@PBG@Z @ 606 NONAME
 ??0CWindowDC@@QAE@PAVCWnd@@@Z @ 607 NONAME
 ??0CWindowlessDC@@QAE@PAUHDC__@@AAVCPoint@@@Z @ 608 NONAME
 ??0CWinThread@@QAE@P6AIPAX@Z0@Z @ 609 NONAME
 ??0CWinThread@@QAE@XZ @ 610 NONAME
 ??0CWnd@@AAE@PAUHWND__@@@Z @ 611 NONAME
 ??0CWnd@@QAE@XZ @ 612 NONAME
 ??0CWordArray@@QAE@XZ @ 613 NONAME
 ??0PAGE_INFO@CPreviewView@@QAE@XZ @ 614 NONAME
 ??1_AFX_CHECKLIST_STATE@@UAE@XZ @ 615 NONAME
 ??1_AFX_DEBUG_STATE@@UAE@XZ @ 616 NONAME
 ??1_AFX_EDIT_STATE@@UAE@XZ @ 617 NONAME
 ??1_AFX_MAIL_STATE@@UAE@XZ @ 618 NONAME
 ??1_AFX_OLE_STATE@@UAE@XZ @ 619 NONAME
 ??1_AFX_RICHEDIT_STATE@@UAE@XZ @ 620 NONAME
 ??1_AFX_SOCK_STATE@@UAE@XZ @ 621 NONAME
 ??1_AFX_THREAD_STATE@@UAE@XZ @ 622 NONAME
 ??1_AFXCTL_UIACTIVE_INFO@@QAE@XZ @ 623 NONAME
 ??1AFX_MAINTAIN_STATE@@QAE@XZ @ 624 NONAME
 ??1AFX_MAINTAIN_STATE2@@QAE@XZ @ 625 NONAME
 ??1AFX_MODULE_STATE@@UAE@XZ @ 626 NONAME
 ??1AFX_MODULE_THREAD_STATE@@UAE@XZ @ 627 NONAME
 ??1CAnimateCtrl@@UAE@XZ @ 628 NONAME
 ??1CArchive@@QAE@XZ @ 629 NONAME
 ??1CArchiveException@@UAE@XZ @ 630 NONAME
 ??1CAsyncMonikerFile@@UAE@XZ @ 631 NONAME
 ??1CAsyncSocket@@UAE@XZ @ 632 NONAME
 ??1CBitmap@@UAE@XZ @ 633 NONAME
 ??1CBrush@@UAE@XZ @ 634 NONAME
 ??1CButton@@UAE@XZ @ 635 NONAME
 ??1CByteArray@@UAE@XZ @ 636 NONAME
 ??1CClientDC@@UAE@XZ @ 637 NONAME
 ??1CCmdTarget@@UAE@XZ @ 638 NONAME
 ??1CComboBox@@UAE@XZ @ 639 NONAME
 ??1CComboBoxEx@@UAE@XZ @ 640 NONAME
 ??1CCommandLineInfo@@UAE@XZ @ 641 NONAME
 ??1CConnectionPoint@@UAE@XZ @ 642 NONAME
 ??1CControlBar@@UAE@XZ @ 643 NONAME
 ??1CCriticalSection@@UAE@XZ @ 644 NONAME
 ??1CCtrlView@@UAE@XZ @ 645 NONAME
 ??1CDatabase@@UAE@XZ @ 646 NONAME
 ??1CDataSourceControl@@QAE@XZ @ 647 NONAME
 ??1CDateTimeCtrl@@UAE@XZ @ 648 NONAME
 ??1CDBException@@UAE@XZ @ 649 NONAME
 ??1CDBVariant@@UAE@XZ @ 650 NONAME
 ??1CDC@@UAE@XZ @ 651 NONAME
 ??1CDHtmlControlSink@@QAE@XZ @ 652 NONAME
 ??1CDHtmlDialog@@UAE@XZ @ 653 NONAME
 ??1CDialog@@UAE@XZ @ 654 NONAME
 ??1CDialogBar@@UAE@XZ @ 655 NONAME
 ??1CDialogTemplate@@QAE@XZ @ 656 NONAME
 ??1CDocItem@@UAE@XZ @ 657 NONAME
 ??1CDockBar@@UAE@XZ @ 658 NONAME
 ??1CDockContext@@QAE@XZ @ 659 NONAME
 ??1CDockState@@UAE@XZ @ 660 NONAME
 ??1CDocManager@@UAE@XZ @ 661 NONAME
 ??1CDocObjectServer@@UAE@XZ @ 662 NONAME
 ??1CDocObjectServerItem@@UAE@XZ @ 663 NONAME
 ??1CDocTemplate@@UAE@XZ @ 664 NONAME
 ??1CDocument@@UAE@XZ @ 665 NONAME
 ??1CDragListBox@@UAE@XZ @ 666 NONAME
 ??1CDWordArray@@UAE@XZ @ 667 NONAME
 ??1CDynLinkLibrary@@UAE@XZ @ 668 NONAME
 ??1CEdit@@UAE@XZ @ 669 NONAME
 ??1CEditView@@UAE@XZ @ 670 NONAME
 ??1CEnumArray@@UAE@XZ @ 671 NONAME
 ??1CEnumConnections@@UAE@XZ @ 672 NONAME
 ??1CEnumConnPoints@@UAE@XZ @ 673 NONAME
 ??1CEnumFormatEtc@@UAE@XZ @ 674 NONAME
 ??1CEnumOleVerb@@UAE@XZ @ 675 NONAME
 ??1CEnumUnknown@@UAE@XZ @ 676 NONAME
 ??1CEvent@@UAE@XZ @ 677 NONAME
 ??1CException@@UAE@XZ @ 678 NONAME
 ??1CFile@@UAE@XZ @ 679 NONAME
 ??1CFileDialog@@UAE@XZ @ 680 NONAME
 ??1CFileException@@UAE@XZ @ 681 NONAME
 ??1CFileFind@@UAE@XZ @ 682 NONAME
 ??1CFixedAlloc@@QAE@XZ @ 683 NONAME
 ??1CFixedAllocNoSync@@QAE@XZ @ 684 NONAME
 ??1CFont@@UAE@XZ @ 685 NONAME
 ??1CFontHolder@@QAE@XZ @ 686 NONAME
 ??1CFrameWnd@@UAE@XZ @ 687 NONAME
 ??1CFtpConnection@@UAE@XZ @ 688 NONAME
 ??1CFtpFileFind@@UAE@XZ @ 689 NONAME
 ??1CGdiObject@@UAE@XZ @ 690 NONAME
 ??1CGopherConnection@@UAE@XZ @ 691 NONAME
 ??1CGopherFile@@UAE@XZ @ 692 NONAME
 ??1CGopherFileFind@@UAE@XZ @ 693 NONAME
 ??1CGopherLocator@@UAE@XZ @ 694 NONAME
 ??1CHeaderCtrl@@UAE@XZ @ 695 NONAME
 ??1CHotKeyCtrl@@UAE@XZ @ 696 NONAME
 ??1CHtmlControlSite@@UAE@XZ @ 697 NONAME
 ??1CHtmlEditCtrl@@UAE@XZ @ 698 NONAME
 ??1CHtmlEditView@@UAE@XZ @ 699 NONAME
 ??1CHtmlView@@UAE@XZ @ 700 NONAME
 ??1CHttpConnection@@UAE@XZ @ 701 NONAME
 ??1CHttpFile@@UAE@XZ @ 702 NONAME
 ??1CImageList@@UAE@XZ @ 703 NONAME
 ??1CInternetConnection@@UAE@XZ @ 704 NONAME
 ??1CInternetException@@UAE@XZ @ 705 NONAME
 ??1CInternetFile@@UAE@XZ @ 706 NONAME
 ??1CInternetSession@@UAE@XZ @ 707 NONAME
 ??1CIPAddressCtrl@@UAE@XZ @ 708 NONAME
 ??1CListBox@@UAE@XZ @ 709 NONAME
 ??1CListCtrl@@UAE@XZ @ 710 NONAME
 ??1CLongBinary@@UAE@XZ @ 711 NONAME
 ??1CMapPtrToPtr@@UAE@XZ @ 712 NONAME
 ??1CMapPtrToWord@@UAE@XZ @ 713 NONAME
 ??1CMapStringToOb@@UAE@XZ @ 714 NONAME
 ??1CMapStringToPtr@@UAE@XZ @ 715 NONAME
 ??1CMapStringToString@@UAE@XZ @ 716 NONAME
 ??1CMapWordToOb@@UAE@XZ @ 717 NONAME
 ??1CMapWordToPtr@@UAE@XZ @ 718 NONAME
 ??1CMemFile@@UAE@XZ @ 719 NONAME
 ??1CMemoryException@@UAE@XZ @ 720 NONAME
 ??1CMenu@@UAE@XZ @ 721 NONAME
 ??1CMetaFileDC@@UAE@XZ @ 722 NONAME
 ??1CMiniFrameWnd@@UAE@XZ @ 723 NONAME
 ??1CMonikerFile@@UAE@XZ @ 724 NONAME
 ??1CMonthCalCtrl@@UAE@XZ @ 725 NONAME
 ??1CMultiDocTemplate@@UAE@XZ @ 726 NONAME
 ??1CMultiLock@@QAE@XZ @ 727 NONAME
 ??1CMultiPageDHtmlDialog@@UAE@XZ @ 728 NONAME
 ??1CMutex@@UAE@XZ @ 729 NONAME
 ??1CNotSupportedException@@UAE@XZ @ 730 NONAME
 ??1CObArray@@UAE@XZ @ 731 NONAME
 ??1CObject@@UAE@XZ @ 732 NONAME
 ??1CObList@@UAE@XZ @ 733 NONAME
 ??1COleBusyDialog@@UAE@XZ @ 734 NONAME
 ??1COleChangeIconDialog@@UAE@XZ @ 735 NONAME
 ??1COleChangeSourceDialog@@UAE@XZ @ 736 NONAME
 ??1COleClientItem@@UAE@XZ @ 737 NONAME
 ??1COleCntrFrameWnd@@UAE@XZ @ 738 NONAME
 ??1COleControl@@UAE@XZ @ 739 NONAME
 ??1COleControlContainer@@UAE@XZ @ 740 NONAME
 ??1COleControlLock@@UAE@XZ @ 741 NONAME
 ??1COleControlSite@@UAE@XZ @ 742 NONAME
 ??1COleConvertDialog@@UAE@XZ @ 743 NONAME
 ??1COleDataObject@@QAE@XZ @ 744 NONAME
 ??1COleDataSource@@UAE@XZ @ 745 NONAME
 ??1COleDispatchDriver@@QAE@XZ @ 746 NONAME
 ??1COleDispatchException@@UAE@XZ @ 747 NONAME
 ??1COleDocIPFrameWnd@@UAE@XZ @ 748 NONAME
 ??1COleDocObjectItem@@UAE@XZ @ 749 NONAME
 ??1COleDocument@@UAE@XZ @ 750 NONAME
 ??1COleDropTarget@@UAE@XZ @ 751 NONAME
 ??1COleException@@UAE@XZ @ 752 NONAME
 ??1COleFrameHook@@UAE@XZ @ 753 NONAME
 ??1COleInsertDialog@@UAE@XZ @ 754 NONAME
 ??1COleIPFrameWnd@@UAE@XZ @ 755 NONAME
 ??1COleLinkingDoc@@UAE@XZ @ 756 NONAME
 ??1COleLinksDialog@@UAE@XZ @ 757 NONAME
 ??1COleMessageFilter@@UAE@XZ @ 758 NONAME
 ??1COleObjectFactory@@UAE@XZ @ 759 NONAME
 ??1COlePasteSpecialDialog@@UAE@XZ @ 760 NONAME
 ??1COlePropertyPage@@UAE@XZ @ 761 NONAME
 ??1COleResizeBar@@UAE@XZ @ 762 NONAME
 ??1COleSafeArray@@QAE@XZ @ 763 NONAME
 ??1COleServerDoc@@UAE@XZ @ 764 NONAME
 ??1COleServerItem@@UAE@XZ @ 765 NONAME
 ??1COleStreamFile@@UAE@XZ @ 766 NONAME
 ??1COleUpdateDialog@@UAE@XZ @ 767 NONAME
 ??1COleVariant@@QAE@XZ @ 768 NONAME
 ??1CPaintDC@@UAE@XZ @ 769 NONAME
 ??1CPalette@@UAE@XZ @ 770 NONAME
 ??1CPen@@UAE@XZ @ 771 NONAME
 ??1CPictureHolder@@QAE@XZ @ 772 NONAME
 ??1CPreviewDC@@UAE@XZ @ 773 NONAME
 ??1CPreviewView@@UAE@XZ @ 774 NONAME
 ??1CPrintInfo@@QAE@XZ @ 775 NONAME
 ??1CProcessLocalObject@@QAE@XZ @ 776 NONAME
 ??1CProgressCtrl@@UAE@XZ @ 777 NONAME
 ??1CPropbagPropExchange@@UAE@XZ @ 778 NONAME
 ??1CProperty@@QAE@XZ @ 779 NONAME
 ??1CPropertyPage@@UAE@XZ @ 780 NONAME
 ??1CPropertySection@@QAE@XZ @ 781 NONAME
 ??1CPropertySet@@QAE@XZ @ 782 NONAME
 ??1CPropertySheet@@UAE@XZ @ 783 NONAME
 ??1CPtrArray@@UAE@XZ @ 784 NONAME
 ??1CPtrList@@UAE@XZ @ 785 NONAME
 ??1CRecentFileList@@UAE@XZ @ 786 NONAME
 ??1CRecordset@@UAE@XZ @ 787 NONAME
 ??1CRecordView@@UAE@XZ @ 788 NONAME
 ??1CRectTracker@@UAE@XZ @ 789 NONAME
 ??1CReObject@@QAE@XZ @ 790 NONAME
 ??1CResourceException@@UAE@XZ @ 791 NONAME
 ??1CRgn@@UAE@XZ @ 792 NONAME
 ??1CRichEditCntrItem@@UAE@XZ @ 793 NONAME
 ??1CRichEditCtrl@@UAE@XZ @ 794 NONAME
 ??1CScrollBar@@UAE@XZ @ 795 NONAME
 ??1CScrollView@@UAE@XZ @ 796 NONAME
 ??1CSemaphore@@UAE@XZ @ 797 NONAME
 ??1CSharedFile@@UAE@XZ @ 798 NONAME
 ??1CSimpleException@@UAE@XZ @ 799 NONAME
 ??1CSingleDocTemplate@@UAE@XZ @ 800 NONAME
 ??1CSingleLock@@QAE@XZ @ 801 NONAME
 ??1CSliderCtrl@@UAE@XZ @ 802 NONAME
 ??1CSocket@@UAE@XZ @ 803 NONAME
 ??1CSocketFile@@UAE@XZ @ 804 NONAME
 ??1CSpinButtonCtrl@@UAE@XZ @ 805 NONAME
 ??1CSplitterWnd@@UAE@XZ @ 806 NONAME
 ??1CStatic@@UAE@XZ @ 807 NONAME
 ??1CStatusBar@@UAE@XZ @ 808 NONAME
 ??1CStatusBarCtrl@@UAE@XZ @ 809 NONAME
 ??1CStdioFile@@UAE@XZ @ 810 NONAME
 ??1CStringArray@@UAE@XZ @ 811 NONAME
 ??1CStringList@@UAE@XZ @ 812 NONAME
 ??1CSyncObject@@UAE@XZ @ 813 NONAME
 ??1CTabCtrl@@UAE@XZ @ 814 NONAME
 ??1CThreadLocalObject@@QAE@XZ @ 815 NONAME
 ??1CThreadSlotData@@QAE@XZ @ 816 NONAME
 ??1CToolBar@@UAE@XZ @ 817 NONAME
 ??1CToolBarCtrl@@UAE@XZ @ 818 NONAME
 ??1CToolTipCtrl@@UAE@XZ @ 819 NONAME
 ??1CTreeCtrl@@UAE@XZ @ 820 NONAME
 ??1CUIntArray@@UAE@XZ @ 821 NONAME
 ??1CUserException@@UAE@XZ @ 822 NONAME
 ??1CView@@UAE@XZ @ 823 NONAME
 ??1CWaitCursor@@QAE@XZ @ 824 NONAME
 ??1CWinApp@@UAE@XZ @ 825 NONAME
 ??1CWindowDC@@UAE@XZ @ 826 NONAME
 ??1CWinThread@@UAE@XZ @ 827 NONAME
 ??1CWnd@@UAE@XZ @ 828 NONAME
 ??1CWordArray@@UAE@XZ @ 829 NONAME
 ??2@YAPAXI@Z @ 830 NONAME
 ??2@YAPAXIHPBDH@Z @ 831 NONAME
 ??2@YAPAXIPBDH@Z @ 832 NONAME
 ??2CNoTrackObject@@SGPAXI@Z @ 833 NONAME
 ??2CNoTrackObject@@SGPAXIPBDH@Z @ 834 NONAME
 ??2CObject@@SGPAXI@Z @ 835 NONAME
 ??2CObject@@SGPAXIPAX@Z @ 836 NONAME
 ??2CObject@@SGPAXIPBDH@Z @ 837 NONAME
 ??3@YAXPAX@Z @ 838 NONAME
 ??3@YAXPAXHPBDH@Z @ 839 NONAME
 ??3@YAXPAXPBDH@Z @ 840 NONAME
 ??3CException@@SGXPAX@Z @ 841 NONAME
 ??3CException@@SGXPAXPBDH@Z @ 842 NONAME
 ??3CNoTrackObject@@SGXPAX@Z @ 843 NONAME
 ??3CNoTrackObject@@SGXPAXPBDH@Z @ 844 NONAME
 ??3CObject@@SGXPAX@Z @ 845 NONAME
 ??3CObject@@SGXPAX0@Z @ 846 NONAME
 ??3CObject@@SGXPAXPBDH@Z @ 847 NONAME
 ??4CArchive@@IAEXABV0@@Z @ 848 NONAME
 ??4CDumpContext@@IAEXABV0@@Z @ 849 NONAME
 ??4COleCurrency@@QAEABV0@ABUtagVARIANT@@@Z @ 850 NONAME
 ??4COleCurrency@@QAEABV0@ABV0@@Z @ 851 NONAME
 ??4COleCurrency@@QAEABV0@TtagCY@@@Z @ 852 NONAME
 ??4COleDispatchDriver@@QAEABV0@ABV0@@Z @ 853 NONAME
 ??4COleSafeArray@@QAEAAV0@ABUtagVARIANT@@@Z @ 854 NONAME
 ??4COleSafeArray@@QAEAAV0@ABV0@@Z @ 855 NONAME
 ??4COleSafeArray@@QAEAAV0@ABVCOleVariant@@@Z @ 856 NONAME
 ??4COleSafeArray@@QAEAAV0@PBUtagVARIANT@@@Z @ 857 NONAME
 ??4COleVariant@@QAEABV0@ABUtagVARIANT@@@Z @ 858 NONAME
 ??4COleVariant@@QAEABV0@ABV?$CStringT@GV?$StrTraitMFC@GV?$ChTraitsCRT@G@@@@@@@Z @ 859 NONAME
 ??4COleVariant@@QAEABV0@ABV0@@Z @ 860 NONAME
 ??4COleVariant@@QAEABV0@ABVCByteArray@@@Z @ 861 NONAME
 ??4COleVariant@@QAEABV0@ABVCLongBinary@@@Z @ 862 NONAME
 ??4COleVariant@@QAEABV0@ABVCOleCurrency@@@Z @ 863 NONAME
 ??4COleVariant@@QAEABV0@ABVCOleDateTime@ATL@@@Z @ 864 NONAME
 ??4COleVariant@@QAEABV0@E@Z @ 865 NONAME
 ??4COleVariant@@QAEABV0@F@Z @ 866 NONAME
 ??4COleVariant@@QAEABV0@J@Z @ 867 NONAME
 ??4COleVariant@@QAEABV0@M@Z @ 868 NONAME
 ??4COleVariant@@QAEABV0@N@Z @ 869 NONAME
 ??4COleVariant@@QAEABV0@PBUtagVARIANT@@@Z @ 870 NONAME
 ??4COleVariant@@QAEABV0@QBG@Z @ 871 NONAME
 ??5@YGAAVCArchive@@AAV0@AAPAVCByteArray@@@Z @ 872 NONAME
 ??5@YGAAVCArchive@@AAV0@AAPAVCDocItem@@@Z @ 873 NONAME
 ??5@YGAAVCArchive@@AAV0@AAPAVCDockState@@@Z @ 874 NONAME
 ??5@YGAAVCArchive@@AAV0@AAPAVCDWordArray@@@Z @ 875 NONAME
 ??5@YGAAVCArchive@@AAV0@AAPAVCMapStringToOb@@@Z @ 876 NONAME
 ??5@YGAAVCArchive@@AAV0@AAPAVCMapStringToString@@@Z @ 877 NONAME
 ??5@YGAAVCArchive@@AAV0@AAPAVCMapWordToOb@@@Z @ 878 NONAME
 ??5@YGAAVCArchive@@AAV0@AAPAVCObArray@@@Z @ 879 NONAME
 ??5@YGAAVCArchive@@AAV0@AAPAVCObject@@@Z @ 880 NONAME
 ??5@YGAAVCArchive@@AAV0@AAPAVCObList@@@Z @ 881 NONAME
 ??5@YGAAVCArchive@@AAV0@AAPAVCRichEditCntrItem@@@Z @ 882 NONAME
 ??5@YGAAVCArchive@@AAV0@AAPAVCStringArray@@@Z @ 883 NONAME
 ??5@YGAAVCArchive@@AAV0@AAPAVCStringList@@@Z @ 884 NONAME
 ??5@YGAAVCArchive@@AAV0@AAPAVCWordArray@@@Z @ 885 NONAME
 ??5@YGAAVCArchive@@AAV0@AAPBVCObject@@@Z @ 886 NONAME
 ??5@YGAAVCArchive@@AAV0@AAUtagPOINT@@@Z @ 887 NONAME
 ??5@YGAAVCArchive@@AAV0@AAUtagRECT@@@Z @ 888 NONAME
 ??5@YGAAVCArchive@@AAV0@AAUtagSIZE@@@Z @ 889 NONAME
 ??5@YGAAVCArchive@@AAV0@AAVCComBSTR@ATL@@@Z @ 890 NONAME
 ??5@YGAAVCArchive@@AAV0@AAVCOleCurrency@@@Z @ 891 NONAME
 ??5@YGAAVCArchive@@AAV0@AAVCOleDateTime@ATL@@@Z @ 892 NONAME
 ??5@YGAAVCArchive@@AAV0@AAVCOleDateTimeSpan@ATL@@@Z @ 893 NONAME
 ??5@YGAAVCArchive@@AAV0@AAVCOleVariant@@@Z @ 894 NONAME
 ??5@YGAAVCArchive@@AAV0@AAVCTime@ATL@@@Z @ 895 NONAME
 ??5@YGAAVCArchive@@AAV0@AAVCTimeSpan@ATL@@@Z @ 896 NONAME
 ??5CArchive@@QAEAAV0@AA_J@Z @ 897 NONAME
 ??5CArchive@@QAEAAV0@AA_K@Z @ 898 NONAME
 ??5CArchive@@QAEAAV0@AA_N@Z @ 899 NONAME
 ??5CArchive@@QAEAAV0@AAD@Z @ 900 NONAME
 ??5CArchive@@QAEAAV0@AAE@Z @ 901 NONAME
 ??5CArchive@@QAEAAV0@AAF@Z @ 902 NONAME
 ??5CArchive@@QAEAAV0@AAG@Z @ 903 NONAME
 ??5CArchive@@QAEAAV0@AAH@Z @ 904 NONAME
 ??5CArchive@@QAEAAV0@AAI@Z @ 905 NONAME
 ??5CArchive@@QAEAAV0@AAJ@Z @ 906 NONAME
 ??5CArchive@@QAEAAV0@AAK@Z @ 907 NONAME
 ??5CArchive@@QAEAAV0@AAM@Z @ 908 NONAME
 ??5CArchive@@QAEAAV0@AAN@Z @ 909 NONAME
 ??6@YGAAVCArchive@@AAV0@ABUtagRECT@@@Z @ 910 NONAME
 ??6@YGAAVCArchive@@AAV0@PBVCObject@@@Z @ 911 NONAME
 ??6@YGAAVCArchive@@AAV0@UtagPOINT@@@Z @ 912 NONAME
 ??6@YGAAVCArchive@@AAV0@UtagSIZE@@@Z @ 913 NONAME
 ??6@YGAAVCArchive@@AAV0@VCComBSTR@ATL@@@Z @ 914 NONAME
 ??6@YGAAVCArchive@@AAV0@VCOleCurrency@@@Z @ 915 NONAME
 ??6@YGAAVCArchive@@AAV0@VCOleDateTime@ATL@@@Z @ 916 NONAME
 ??6@YGAAVCArchive@@AAV0@VCOleDateTimeSpan@ATL@@@Z @ 917 NONAME
 ??6@YGAAVCArchive@@AAV0@VCOleVariant@@@Z @ 918 NONAME
 ??6@YGAAVCArchive@@AAV0@VCTime@ATL@@@Z @ 919 NONAME
 ??6@YGAAVCArchive@@AAV0@VCTimeSpan@ATL@@@Z @ 920 NONAME
 ??6@YGAAVCDumpContext@@AAV0@AAVCOleSafeArray@@@Z @ 921 NONAME
 ??6@YGAAVCDumpContext@@AAV0@ABUtagRECT@@@Z @ 922 NONAME
 ??6@YGAAVCDumpContext@@AAV0@UtagPOINT@@@Z @ 923 NONAME
 ??6@YGAAVCDumpContext@@AAV0@UtagSIZE@@@Z @ 924 NONAME
 ??6@YGAAVCDumpContext@@AAV0@VCOleCurrency@@@Z @ 925 NONAME
 ??6@YGAAVCDumpContext@@AAV0@VCOleDateTime@ATL@@@Z @ 926 NONAME
 ??6@YGAAVCDumpContext@@AAV0@VCOleDateTimeSpan@ATL@@@Z @ 927 NONAME
 ??6@YGAAVCDumpContext@@AAV0@VCOleVariant@@@Z @ 928 NONAME
 ??6@YGAAVCDumpContext@@AAV0@VCTime@ATL@@@Z @ 929 NONAME
 ??6@YGAAVCDumpContext@@AAV0@VCTimeSpan@ATL@@@Z @ 930 NONAME
 ??6CArchive@@QAEAAV0@_J@Z @ 931 NONAME
 ??6CArchive@@QAEAAV0@_K@Z @ 932 NONAME
 ??6CArchive@@QAEAAV0@_N@Z @ 933 NONAME
 ??6CArchive@@QAEAAV0@D@Z @ 934 NONAME
 ??6CArchive@@QAEAAV0@E@Z @ 935 NONAME
 ??6CArchive@@QAEAAV0@F@Z @ 936 NONAME
 ??6CArchive@@QAEAAV0@G@Z @ 937 NONAME
 ??6CArchive@@QAEAAV0@H@Z @ 938 NONAME
 ??6CArchive@@QAEAAV0@I@Z @ 939 NONAME
 ??6CArchive@@QAEAAV0@J@Z @ 940 NONAME
 ??6CArchive@@QAEAAV0@K@Z @ 941 NONAME
 ??6CArchive@@QAEAAV0@M@Z @ 942 NONAME
 ??6CArchive@@QAEAAV0@N@Z @ 943 NONAME
 ??6CDumpContext@@QAEAAV0@_J@Z @ 944 NONAME
 ??6CDumpContext@@QAEAAV0@_K@Z @ 945 NONAME
 ??6CDumpContext@@QAEAAV0@ABVCObject@@@Z @ 946 NONAME
 ??6CDumpContext@@QAEAAV0@E@Z @ 947 NONAME
 ??6CDumpContext@@QAEAAV0@G@Z @ 948 NONAME
 ??6CDumpContext@@QAEAAV0@H@Z @ 949 NONAME
 ??6CDumpContext@@QAEAAV0@I@Z @ 950 NONAME
 ??6CDumpContext@@QAEAAV0@J@Z @ 951 NONAME
 ??6CDumpContext@@QAEAAV0@K@Z @ 952 NONAME
 ??6CDumpContext@@QAEAAV0@M@Z @ 953 NONAME
 ??6CDumpContext@@QAEAAV0@N@Z @ 954 NONAME
 ??6CDumpContext@@QAEAAV0@PBD@Z @ 955 NONAME
 ??6CDumpContext@@QAEAAV0@PBG@Z @ 956 NONAME
 ??6CDumpContext@@QAEAAV0@PBVCObject@@@Z @ 957 NONAME
 ??6CDumpContext@@QAEAAV0@PBX@Z @ 958 NONAME
 ??8CGdiObject@@QBEHABV0@@Z @ 959 NONAME
 ??8CMenu@@QBEHABV0@@Z @ 960 NONAME
 ??8COleCurrency@@QBEHABV0@@Z @ 961 NONAME
 ??8COleSafeArray@@QBEHABUtagSAFEARRAY@@@Z @ 962 NONAME
 ??8COleSafeArray@@QBEHABUtagVARIANT@@@Z @ 963 NONAME
 ??8COleSafeArray@@QBEHABV0@@Z @ 964 NONAME
 ??8COleSafeArray@@QBEHABVCOleVariant@@@Z @ 965 NONAME
 ??8COleSafeArray@@QBEHPBUtagSAFEARRAY@@@Z @ 966 NONAME
 ??8COleSafeArray@@QBEHPBUtagVARIANT@@@Z @ 967 NONAME
 ??8COleVariant@@QBEHABUtagVARIANT@@@Z @ 968 NONAME
 ??8COleVariant@@QBEHPBUtagVARIANT@@@Z @ 969 NONAME
 ??8CWnd@@QBEHABV0@@Z @ 970 NONAME
 ??9CGdiObject@@QBEHABV0@@Z @ 971 NONAME
 ??9CMenu@@QBEHABV0@@Z @ 972 NONAME
 ??9COleCurrency@@QBEHABV0@@Z @ 973 NONAME
 ??9CWnd@@QBEHABV0@@Z @ 974 NONAME
 ??ACByteArray@@QAEAAEH@Z @ 975 NONAME
 ??ACByteArray@@QBEEH@Z @ 976 NONAME
 ??ACDWordArray@@QAEAAKH@Z @ 977 NONAME
 ??ACDWordArray@@QBEKH@Z @ 978 NONAME
 ??ACMapPtrToPtr@@QAEAAPAXPAX@Z @ 979 NONAME
 ??ACMapPtrToWord@@QAEAAGPAX@Z @ 980 NONAME
 ??ACMapStringToOb@@QAEAAPAVCObject@@PBG@Z @ 981 NONAME
 ??ACMapStringToPtr@@QAEAAPAXPBG@Z @ 982 NONAME
 ??ACMapStringToString@@QAEAAV?$CStringT@GV?$StrTraitMFC@GV?$ChTraitsCRT@G@@@@@@PBG@Z @ 983 NONAME
 ??ACMapWordToOb@@QAEAAPAVCObject@@G@Z @ 984 NONAME
 ??ACMapWordToPtr@@QAEAAPAXG@Z @ 985 NONAME
 ??ACObArray@@QAEAAPAVCObject@@H@Z @ 986 NONAME
 ??ACObArray@@QBEPAVCObject@@H@Z @ 987 NONAME
 ??ACPtrArray@@QAEAAPAXH@Z @ 988 NONAME
 ??ACPtrArray@@QBEPAXH@Z @ 989 NONAME
 ??ACStringArray@@QAEAAV?$CStringT@GV?$StrTraitMFC@GV?$ChTraitsCRT@G@@@@@@H@Z @ 990 NONAME
 ??ACStringArray@@QBEABV?$CStringT@GV?$StrTraitMFC@GV?$ChTraitsCRT@G@@@@@@H@Z @ 991 NONAME
 ??ACUIntArray@@QAEAAIH@Z @ 992 NONAME
 ??ACUIntArray@@QBEIH@Z @ 993 NONAME
 ??ACWordArray@@QAEAAGH@Z @ 994 NONAME
 ??ACWordArray@@QBEGH@Z @ 995 NONAME
 ??BCAsyncSocket@@QBEIXZ @ 996 NONAME
 ??BCBitmap@@QBEPAUHBITMAP__@@XZ @ 997 NONAME
 ??BCBrush@@QBEPAUHBRUSH__@@XZ @ 998 NONAME
 ??BCCriticalSection@@QAEPAU_RTL_CRITICAL_SECTION@@XZ @ 999 NONAME
 ??BCDC@@QBEPAUHDC__@@XZ @ 1000 NONAME
 ??BCFile@@QBEPAXXZ @ 1001 NONAME
 ??BCFont@@QBEPAUHFONT__@@XZ @ 1002 NONAME
 ??BCGdiObject@@QBEPAXXZ @ 1003 NONAME
 ??BCGopherLocator@@QBEPBGXZ @ 1004 NONAME
 ??BCImageList@@QBEPAU_IMAGELIST@@XZ @ 1005 NONAME
 ??BCInternetConnection@@QBEPAXXZ @ 1006 NONAME
 ??BCInternetFile@@QBEPAXXZ @ 1007 NONAME
 ??BCInternetSession@@QBEPAXXZ @ 1008 NONAME
 ??BCMenu@@QBEPAUHMENU__@@XZ @ 1009 NONAME
 ??BCOleCurrency@@QBE?ATtagCY@@XZ @ 1010 NONAME
 ??BCOleDispatchDriver@@QAEPAUIDispatch@@XZ @ 1011 NONAME
 ??BCOleSafeArray@@QAEPAUtagVARIANT@@XZ @ 1012 NONAME
 ??BCOleSafeArray@@QBEPBUtagVARIANT@@XZ @ 1013 NONAME
 ??BCOleVariant@@QAEPAUtagVARIANT@@XZ @ 1014 NONAME
 ??BCOleVariant@@QBEPBUtagVARIANT@@XZ @ 1015 NONAME
 ??BCPalette@@QBEPAUHPALETTE__@@XZ @ 1016 NONAME
 ??BCPen@@QBEPAUHPEN__@@XZ @ 1017 NONAME
 ??BCRgn@@QBEPAUHRGN__@@XZ @ 1018 NONAME
 ??BCSyncObject@@QBEPAXXZ @ 1019 NONAME
 ??BCWinThread@@QBEPAXXZ @ 1020 NONAME
 ??BCWnd@@QBEPAUHWND__@@XZ @ 1021 NONAME
 ??DCOleCurrency@@QBE?AV0@J@Z @ 1022 NONAME
 ??GCOleCurrency@@QBE?AV0@ABV0@@Z @ 1023 NONAME
 ??GCOleCurrency@@QBE?AV0@XZ @ 1024 NONAME
 ??HCOleCurrency@@QBE?AV0@ABV0@@Z @ 1025 NONAME
 ??KCOleCurrency@@QBE?AV0@J@Z @ 1026 NONAME
 ??MCOleCurrency@@QBEHABV0@@Z @ 1027 NONAME
 ??NCOleCurrency@@QBEHABV0@@Z @ 1028 NONAME
 ??OCOleCurrency@@QBEHABV0@@Z @ 1029 NONAME
 ??PCOleCurrency@@QBEHABV0@@Z @ 1030 NONAME
 ??XCOleCurrency@@QAEABV0@J@Z @ 1031 NONAME
 ??YCOleCurrency@@QAEABV0@ABV0@@Z @ 1032 NONAME
 ??ZCOleCurrency@@QAEABV0@ABV0@@Z @ 1033 NONAME
 ?_AfxAbortProc@@YGHPAUHDC__@@H@Z @ 1034 NONAME
 ?_afxAmbientCache@@3V?$CThreadLocal@V_AFXCTL_AMBIENT_CACHE@@@@A @ 1035 NONAME DATA
 ?_AfxDeleteRegKey@@YGHPBG@Z @ 1036 NONAME
 ?_afxRichEditState@@3V?$CProcessLocal@V_AFX_RICHEDIT_STATE@@@@A @ 1037 NONAME DATA
 ?Abort@CArchive@@QAEXXZ @ 1038 NONAME
 ?Abort@CFile@@UAEXXZ @ 1039 NONAME
 ?Abort@CInternetFile@@UAEXXZ @ 1040 NONAME
 ?Abort@CMemFile@@UAEXXZ @ 1041 NONAME
 ?Abort@CMirrorFile@@UAEXXZ @ 1042 NONAME
 ?Abort@COleStreamFile@@UAEXXZ @ 1043 NONAME
 ?Abort@CSocketFile@@UAEXXZ @ 1044 NONAME
 ?Abort@CStdioFile@@UAEXXZ @ 1045 NONAME
 ?AbortDoc@CDC@@QAEHXZ @ 1046 NONAME
 ?AbortPath@CDC@@QAEHXZ @ 1047 NONAME
 ?AboutToDo@XNotifyDBEvents@COleControlSite@@UAGJKKQAUtagDBNOTIFYREASON@@@Z @ 1048 NONAME
 ?accDoDefaultAction@CCheckListBox@@MAEJUtagVARIANT@@@Z @ 1049 NONAME
 ?accDoDefaultAction@CWnd@@UAEJUtagVARIANT@@@Z @ 1050 NONAME
 ?accDoDefaultAction@XAccessible@CWnd@@UAGJUtagVARIANT@@@Z @ 1051 NONAME
 ?Accept@CAsyncSocket@@UAEHAAV1@PAUsockaddr@@PAH@Z @ 1052 NONAME
 ?Accept@CSocket@@UAEHAAVCAsyncSocket@@PAUsockaddr@@PAH@Z @ 1053 NONAME
 ?AccessData@COleSafeArray@@QAEXPAPAX@Z @ 1054 NONAME
 ?accHitTest@CWnd@@UAEJJJPAUtagVARIANT@@@Z @ 1055 NONAME
 ?accHitTest@XAccessible@CWnd@@UAGJJJPAUtagVARIANT@@@Z @ 1056 NONAME
 ?accLocation@CWnd@@UAEJPAJ000UtagVARIANT@@@Z @ 1057 NONAME
 ?accLocation@XAccessible@CWnd@@UAGJPAJ000UtagVARIANT@@@Z @ 1058 NONAME
 ?accNavigate@CWnd@@UAEJJUtagVARIANT@@PAU2@@Z @ 1059 NONAME
 ?accNavigate@XAccessible@CWnd@@UAGJJUtagVARIANT@@PAU3@@Z @ 1060 NONAME
 ?accSelect@CWnd@@UAEJJUtagVARIANT@@@Z @ 1061 NONAME
 ?accSelect@XAccessible@CWnd@@UAGJJUtagVARIANT@@@Z @ 1062 NONAME
 ?Activate@COleClientItem@@QAEXJPAVCView@@PAUtagMSG@@@Z @ 1063 NONAME
 ?Activate@CToolTipCtrl@@QAEXH@Z @ 1064 NONAME
 ?Activate@XPropertyPage@COlePropertyPage@@UAGJPAUHWND__@@PBUtagRECT@@H@Z @ 1065 NONAME
 ?ActivateAndShow@COleDocObjectItem@@IAEXXZ @ 1066 NONAME
 ?ActivateAs@COleClientItem@@UAEHPBGABU_GUID@@1@Z @ 1067 NONAME
 ?ActivateAs@CRichEditCntrItem@@UAEHPBGABU_GUID@@1@Z @ 1068 NONAME
 ?ActivateDocObject@CDocObjectServer@@QAEXXZ @ 1069 NONAME
 ?ActivateDocObject@COleServerDoc@@QAEXXZ @ 1070 NONAME
 ?ActivateFrame@CFrameWnd@@UAEXH@Z @ 1071 NONAME
 ?ActivateFrame@CMDIChildWnd@@UAEXH@Z @ 1072 NONAME
 ?ActivateInPlace@COleServerDoc@@QAEHXZ @ 1073 NONAME
 ?ActivateMe@XOleDocumentSite@COleDocObjectItem@@UAGJPAUIOleDocumentView@@@Z @ 1074 NONAME
 ?ActivateNext@CSplitterWnd@@UAEXH@Z @ 1075 NONAME
 ?ActivateTopParent@CWnd@@QAEXXZ @ 1076 NONAME
 ?Add@CByteArray@@QAEHE@Z @ 1077 NONAME
 ?Add@CDWordArray@@QAEHK@Z @ 1078 NONAME
 ?Add@CImageList@@QAEHPAUHICON__@@@Z @ 1079 NONAME
 ?Add@CImageList@@QAEHPAVCBitmap@@0@Z @ 1080 NONAME
 ?Add@CImageList@@QAEHPAVCBitmap@@K@Z @ 1081 NONAME
 ?Add@CObArray@@QAEHPAVCObject@@@Z @ 1082 NONAME
 ?Add@CPtrArray@@QAEHPAX@Z @ 1083 NONAME
 ?Add@CRecentFileList@@UAEXPBG@Z @ 1084 NONAME
 ?Add@CStringArray@@QAEHABV?$CStringT@GV?$StrTraitMFC@GV?$ChTraitsCRT@G@@@@@@@Z @ 1085 NONAME
 ?Add@CStringArray@@QAEHPBG@Z @ 1086 NONAME
 ?Add@CUIntArray@@QAEHI@Z @ 1087 NONAME
 ?Add@CWordArray@@QAEHG@Z @ 1088 NONAME
 ?AddBar@CReBar@@QAEHPAVCWnd@@KKPBGK@Z @ 1089 NONAME
 ?AddBar@CReBar@@QAEHPAVCWnd@@PBGPAVCBitmap@@K@Z @ 1090 NONAME
 ?AddBitmap@CToolBarCtrl@@QAEHHI@Z @ 1091 NONAME
 ?AddBitmap@CToolBarCtrl@@QAEHHPAVCBitmap@@@Z @ 1092 NONAME
 ?AddButtons@CToolBarCtrl@@QAEHHPAU_TBBUTTON@@@Z @ 1093 NONAME
 ?AddCachedData@COleClientItem@@IAEXPAVCOleDataSource@@@Z @ 1094 NONAME
 ?AddClassIDToList@COleInsertDialog@@IAEXAAPAU_GUID@@AAH1PAU2@@Z @ 1095 NONAME
 ?AddConnection@CEnumConnections@@QAEXPAUtagCONNECTDATA@@@Z @ 1096 NONAME
 ?AddConnPoint@CEnumConnPoints@@QAEXPAUIConnectionPoint@@@Z @ 1097 NONAME
 ?AddControlBar@CFrameWnd@@QAEXPAVCControlBar@@@Z @ 1098 NONAME
 ?AddDocTemplate@CDocManager@@UAEXPAVCDocTemplate@@@Z @ 1099 NONAME
 ?AddDocTemplate@CWinApp@@QAEXPAVCDocTemplate@@@Z @ 1100 NONAME
 ?AddDocument@CDocTemplate@@UAEXPAVCDocument@@@Z @ 1101 NONAME
 ?AddDocument@CMultiDocTemplate@@UAEXPAVCDocument@@@Z @ 1102 NONAME
 ?AddDocument@CSingleDocTemplate@@UAEXPAVCDocument@@@Z @ 1103 NONAME
 ?AddFormat@CEnumFormatEtc@@QAEXPBUtagFORMATETC@@@Z @ 1104 NONAME
 ?AddFormat@COlePasteSpecialDialog@@QAEXABUtagFORMATETC@@PAG1K@Z @ 1105 NONAME
 ?AddFormat@COlePasteSpecialDialog@@QAEXIKIHH@Z @ 1106 NONAME
 ?AddFrameLevelUI@COleControl@@MAEXXZ @ 1107 NONAME
 ?AddFrameWnd@CFrameWnd@@IAEXXZ @ 1108 NONAME
 ?AddHead@CObList@@QAEPAU__POSITION@@PAVCObject@@@Z @ 1109 NONAME
 ?AddHead@CObList@@QAEXPAV1@@Z @ 1110 NONAME
 ?AddHead@CPtrList@@QAEPAU__POSITION@@PAX@Z @ 1111 NONAME
 ?AddHead@CPtrList@@QAEXPAV1@@Z @ 1112 NONAME
 ?AddHead@CSimpleList@@QAEXPAX@Z @ 1113 NONAME
 ?AddHead@CStringList@@QAEPAU__POSITION@@ABV?$CStringT@GV?$StrTraitMFC@GV?$ChTraitsCRT@G@@@@@@@Z @ 1114 NONAME
 ?AddHead@CStringList@@QAEPAU__POSITION@@PBG@Z @ 1115 NONAME
 ?AddHead@CStringList@@QAEXPAV1@@Z @ 1116 NONAME
 ?AddItem@COleDocument@@UAEXPAVCDocItem@@@Z @ 1117 NONAME
 ?AddLinkEntry@COlePasteSpecialDialog@@QAE?AW4tagOLEUIPASTEFLAG@@I@Z @ 1118 NONAME
 ?AddMetaFileComment@CDC@@QAEHIPBE@Z @ 1119 NONAME
 ?AddNew@CRecordset@@UAEXXZ @ 1120 NONAME
 ?AddOtherClipboardData@COleServerItem@@QAEXPAVCOleDataSource@@@Z @ 1121 NONAME
 ?AddPage@CPropertySheet@@QAEXPAVCPropertyPage@@@Z @ 1122 NONAME
 ?AddProperty@CPropertySection@@QAEXPAVCProperty@@@Z @ 1123 NONAME
 ?AddProperty@CPropertySet@@QAEXU_GUID@@PAVCProperty@@@Z @ 1124 NONAME
 ?AddRef@CArchiveStream@@UAGKXZ @ 1125 NONAME
 ?AddRef@CBlobProperty@@UAGKXZ @ 1126 NONAME
 ?AddRef@CBrowserControlSite@@MAGKXZ @ 1127 NONAME
 ?AddRef@CDHtmlControlSink@@UAGKXZ @ 1128 NONAME
 ?AddRef@CDHtmlElementEventSink@@UAGKXZ @ 1129 NONAME
 ?AddRef@CDHtmlEventSink@@UAGKXZ @ 1130 NONAME
 ?AddRef@CInnerUnknown@@UAGKXZ @ 1131 NONAME
 ?AddRef@COleConnPtContainer@@UAGKXZ @ 1132 NONAME
 ?AddRef@COleDispatchImpl@@UAGKXZ @ 1133 NONAME
 ?AddRef@COleUILinkInfo@@UAGKXZ @ 1134 NONAME
 ?AddRef@CPrintDialogEx@@UAGKXZ @ 1135 NONAME
 ?AddRef@XAccessible@CWnd@@UAGKXZ @ 1136 NONAME
 ?AddRef@XAccessibleServer@CWnd@@UAGKXZ @ 1137 NONAME
 ?AddRef@XAdviseSink@COleClientItem@@UAGKXZ @ 1138 NONAME
 ?AddRef@XAmbientProps@COleControlSite@@UAGKXZ @ 1139 NONAME
 ?AddRef@XBoundObjectSite@COleControlSite@@UAGKXZ @ 1140 NONAME
 ?AddRef@XClassFactory@COleObjectFactory@@UAGKXZ @ 1141 NONAME
 ?AddRef@XConnPt@CConnectionPoint@@UAGKXZ @ 1142 NONAME
 ?AddRef@XDataObject@COleControl@@UAGKXZ @ 1143 NONAME
 ?AddRef@XDataObject@COleDataSource@@UAGKXZ @ 1144 NONAME
 ?AddRef@XDataObject@COleServerDoc@@UAGKXZ @ 1145 NONAME
 ?AddRef@XDataObject@COleServerItem@@UAGKXZ @ 1146 NONAME
 ?AddRef@XDocHostUIHandler@CHtmlControlSite@@UAGKXZ @ 1147 NONAME
 ?AddRef@XDropSource@COleDropSource@@UAGKXZ @ 1148 NONAME
 ?AddRef@XDropTarget@COleDropTarget@@UAGKXZ @ 1149 NONAME
 ?AddRef@XEnumVOID@CEnumArray@@UAGKXZ @ 1150 NONAME
 ?AddRef@XEventSink@COleControlSite@@UAGKXZ @ 1151 NONAME
 ?AddRef@XFontNotification@COleControl@@UAGKXZ @ 1152 NONAME
 ?AddRef@XMessageFilter@COleMessageFilter@@UAGKXZ @ 1153 NONAME
 ?AddRef@XNotifyDBEvents@COleControlSite@@UAGKXZ @ 1154 NONAME
 ?AddRef@XOleCache@COleControl@@UAGKXZ @ 1155 NONAME
 ?AddRef@XOleClientSite@COleClientItem@@UAGKXZ @ 1156 NONAME
 ?AddRef@XOleClientSite@COleControlSite@@UAGKXZ @ 1157 NONAME
 ?AddRef@XOleCommandTarget@CDocObjectServer@@UAGKXZ @ 1158 NONAME
 ?AddRef@XOleCommandTarget@COleFrameHook@@UAGKXZ @ 1159 NONAME
 ?AddRef@XOleContainer@COleControlContainer@@UAGKXZ @ 1160 NONAME
 ?AddRef@XOleControl@COleControl@@UAGKXZ @ 1161 NONAME
 ?AddRef@XOleControlSite@COleControlSite@@UAGKXZ @ 1162 NONAME
 ?AddRef@XOleDocument@CDocObjectServer@@UAGKXZ @ 1163 NONAME
 ?AddRef@XOleDocumentSite@COleDocObjectItem@@UAGKXZ @ 1164 NONAME
 ?AddRef@XOleDocumentView@CDocObjectServer@@UAGKXZ @ 1165 NONAME
 ?AddRef@XOleInPlaceActiveObject@COleControl@@UAGKXZ @ 1166 NONAME
 ?AddRef@XOleInPlaceActiveObject@COleServerDoc@@UAGKXZ @ 1167 NONAME
 ?AddRef@XOleInPlaceFrame@COleFrameHook@@UAGKXZ @ 1168 NONAME
 ?AddRef@XOleInPlaceObject@COleControl@@UAGKXZ @ 1169 NONAME
 ?AddRef@XOleInPlaceObject@COleServerDoc@@UAGKXZ @ 1170 NONAME
 ?AddRef@XOleIPFrame@COleControlContainer@@UAGKXZ @ 1171 NONAME
 ?AddRef@XOleIPSite@COleClientItem@@UAGKXZ @ 1172 NONAME
 ?AddRef@XOleIPSite@COleControlSite@@UAGKXZ @ 1173 NONAME
 ?AddRef@XOleItemContainer@COleLinkingDoc@@UAGKXZ @ 1174 NONAME
 ?AddRef@XOleObject@CDocObjectServer@@UAGKXZ @ 1175 NONAME
 ?AddRef@XOleObject@COleControl@@UAGKXZ @ 1176 NONAME
 ?AddRef@XOleObject@COleServerDoc@@UAGKXZ @ 1177 NONAME
 ?AddRef@XOleObject@COleServerItem@@UAGKXZ @ 1178 NONAME
 ?AddRef@XOleUIObjInfo@COlePropertiesDialog@@UAGKXZ @ 1179 NONAME
 ?AddRef@XPerPropertyBrowsing@COleControl@@UAGKXZ @ 1180 NONAME
 ?AddRef@XPersistFile@COleLinkingDoc@@UAGKXZ @ 1181 NONAME
 ?AddRef@XPersistMemory@COleControl@@UAGKXZ @ 1182 NONAME
 ?AddRef@XPersistPropertyBag@COleControl@@UAGKXZ @ 1183 NONAME
 ?AddRef@XPersistStorage@COleControl@@UAGKXZ @ 1184 NONAME
 ?AddRef@XPersistStorage@COleServerDoc@@UAGKXZ @ 1185 NONAME
 ?AddRef@XPersistStreamInit@COleControl@@UAGKXZ @ 1186 NONAME
 ?AddRef@XPointerInactive@COleControl@@UAGKXZ @ 1187 NONAME
 ?AddRef@XPrint@CDocObjectServer@@UAGKXZ @ 1188 NONAME
 ?AddRef@XPropertyNotifySink@COleControlSite@@UAGKXZ @ 1189 NONAME
 ?AddRef@XPropertyPage@COlePropertyPage@@UAGKXZ @ 1190 NONAME
 ?AddRef@XPropNotifySink@COlePropertyPage@@UAGKXZ @ 1191 NONAME
 ?AddRef@XProvideClassInfo@COleControl@@UAGKXZ @ 1192 NONAME
 ?AddRef@XQuickActivate@COleControl@@UAGKXZ @ 1193 NONAME
 ?AddRef@XRichEditOleCallback@CRichEditView@@UAGKXZ @ 1194 NONAME
 ?AddRef@XRowsetNotify@COleControlSite@@UAGKXZ @ 1195 NONAME
 ?AddRef@XSpecifyPropertyPages@COleControl@@UAGKXZ @ 1196 NONAME
 ?AddRef@XViewObject@COleControl@@UAGKXZ @ 1197 NONAME
 ?AddReplaceBitmap@CToolBar@@QAEHPAUHBITMAP__@@@Z @ 1198 NONAME
 ?AddRequestHeaders@CHttpFile@@QAEHAAV?$CStringT@GV?$StrTraitMFC@GV?$ChTraitsCRT@G@@@@@@K@Z @ 1199 NONAME
 ?AddRequestHeaders@CHttpFile@@QAEHPBGKH@Z @ 1200 NONAME
 ?AddSection@CPropertySet@@QAEPAVCPropertySection@@U_GUID@@@Z @ 1201 NONAME
 ?AddSection@CPropertySet@@QAEXPAVCPropertySection@@@Z @ 1202 NONAME
 ?AddStandardFormats@COlePasteSpecialDialog@@QAEXH@Z @ 1203 NONAME
 ?AddString@CComboBox@@QAEHPBG@Z @ 1204 NONAME
 ?AddString@CComboBoxEx@@QAEHPBG@Z @ 1205 NONAME
 ?AddString@CListBox@@QAEHPBG@Z @ 1206 NONAME
 ?AddString@CToolBarCtrl@@QAEHI@Z @ 1207 NONAME
 ?AddStrings@CToolBarCtrl@@QAEHPBG@Z @ 1208 NONAME
 ?AddTail@CObList@@QAEPAU__POSITION@@PAVCObject@@@Z @ 1209 NONAME
 ?AddTail@CObList@@QAEXPAV1@@Z @ 1210 NONAME
 ?AddTail@CPtrList@@QAEPAU__POSITION@@PAX@Z @ 1211 NONAME
 ?AddTail@CPtrList@@QAEXPAV1@@Z @ 1212 NONAME
 ?AddTail@CStringList@@QAEPAU__POSITION@@ABV?$CStringT@GV?$StrTraitMFC@GV?$ChTraitsCRT@G@@@@@@@Z @ 1213 NONAME
 ?AddTail@CStringList@@QAEPAU__POSITION@@PBG@Z @ 1214 NONAME
 ?AddTail@CStringList@@QAEXPAV1@@Z @ 1215 NONAME
 ?AddTool@CToolTipCtrl@@QAEHPAVCWnd@@IPBUtagRECT@@I@Z @ 1216 NONAME
 ?AddTool@CToolTipCtrl@@QAEHPAVCWnd@@PBGPBUtagRECT@@I@Z @ 1217 NONAME
 ?AddToRecentFileList@CWinApp@@UAEXPBG@Z @ 1218 NONAME
 ?AddView@CDocument@@QAEXPAVCView@@@Z @ 1219 NONAME
 ?AdjustCP@CMetaFileDC@@IAEXH@Z @ 1220 NONAME
 ?AdjustDialogPosition@CRichEditView@@QAEXPAVCDialog@@@Z @ 1221 NONAME
 ?AdjustRect@CRectTracker@@UAEXHPAUtagRECT@@@Z @ 1222 NONAME
 ?AdjustRect@CTabCtrl@@QAEXHPAUtagRECT@@@Z @ 1223 NONAME
 ?AdjustRect@CToolTipCtrl@@QAEHPAUtagRECT@@H@Z @ 1224 NONAME
 ?AdjustRect@XOleIPSite@COleControlSite@@UAGJPAUtagRECT@@@Z @ 1225 NONAME
 ?Advise@CDHtmlElementEventSink@@QAEJPAUIUnknown@@ABU_GUID@@@Z @ 1226 NONAME
 ?Advise@XConnPt@CConnectionPoint@@UAGJPAUIUnknown@@PAK@Z @ 1227 NONAME
 ?Advise@XOleObject@CDocObjectServer@@UAGJPAUIAdviseSink@@PAK@Z @ 1228 NONAME
 ?Advise@XOleObject@COleControl@@UAGJPAUIAdviseSink@@PAK@Z @ 1229 NONAME
 ?Advise@XOleObject@COleServerDoc@@UAGJPAUIAdviseSink@@PAK@Z @ 1230 NONAME
 ?Advise@XOleObject@COleServerItem@@UAGJPAUIAdviseSink@@PAK@Z @ 1231 NONAME
 ?AfxA2WHelper@@YGPAGPAGPBDH@Z @ 1232 NONAME
 ?AfxAbort@@YGXXZ @ 1233 NONAME
 ?AfxAllocMemoryDebug@@YGPAXIHPBDH@Z @ 1234 NONAME
 ?AfxAssertFailedLine@@YGHPBDH@Z @ 1235 NONAME
 ?AfxAssertValidObject@@YGXPBVCObject@@PBDH@Z @ 1236 NONAME
 ?AfxBeginThread@@YGPAVCWinThread@@P6AIPAX@Z0HIKPAU_SECURITY_ATTRIBUTES@@@Z @ 1237 NONAME
 ?AfxBeginThread@@YGPAVCWinThread@@PAUCRuntimeClass@@HIKPAU_SECURITY_ATTRIBUTES@@@Z @ 1238 NONAME
 ?AfxBSTR2CString@@YGXPAV?$CStringT@GV?$StrTraitMFC@GV?$ChTraitsCRT@G@@@@@@PAG@Z @ 1239 NONAME
 ?AfxCallWndProc@@YGJPAVCWnd@@PAUHWND__@@IIJ@Z @ 1240 NONAME
 ?AfxCancelModes@@YGXPAUHWND__@@@Z @ 1241 NONAME
 ?AfxCheckError@@YGXJ@Z @ 1242 NONAME
 ?AfxCheckMemory@@YGHXZ @ 1243 NONAME
 ?AfxClassInit@@YGXPAUCRuntimeClass@@@Z @ 1244 NONAME
 ?AfxComparePath@@YGHPBG0@Z @ 1245 NONAME
 ?AfxCompareValueByRef@@YGHPAX0H@Z @ 1246 NONAME
 ?AfxConnectionAdvise@@YGHPAUIUnknown@@ABU_GUID@@0HPAK@Z @ 1247 NONAME
 ?AfxConnectionUnadvise@@YGHPAUIUnknown@@ABU_GUID@@0HK@Z @ 1248 NONAME
 ?AfxCopyValueByRef@@YGXPAX0PAJH@Z @ 1249 NONAME
 ?AfxCoreInitModule@@YGXXZ @ 1250 NONAME
 ?AfxCreateDC@@YGPAUHDC__@@PAX0@Z @ 1251 NONAME
 ?AfxCriticalInit@@YGHXZ @ 1252 NONAME
 ?AfxCriticalNewHandler@@YAHI@Z @ 1253 NONAME
 ?AfxCriticalTerm@@YGXXZ @ 1254 NONAME
 ?AfxCustomLogFont@@YGHIPAUtagLOGFONTW@@@Z @ 1255 NONAME
 ?afxData@@3UAUX_DATA@@A @ 1256 NONAME DATA
 ?AfxDeleteObject@@YGXPAPAX@Z @ 1257 NONAME
 ?AfxDelRegTreeHelper@@YGJPAUHKEY__@@ABV?$CStringT@GV?$StrTraitMFC@GV?$ChTraitsCRT@G@@@@@@@Z @ 1258 NONAME
 ?AfxDiagnosticInit@@YGHXZ @ 1259 NONAME
 ?AfxDlgProc@@YGHPAUHWND__@@IIJ@Z @ 1260 NONAME
 ?AfxDllCanUnloadNow@@YGJXZ @ 1261 NONAME
 ?AfxDllGetClassObject@@YGJABU_GUID@@0PAPAX@Z @ 1262 NONAME
 ?AfxDoForAllClasses@@YGXP6AXPBUCRuntimeClass@@PAX@Z1@Z @ 1263 NONAME
 ?AfxDoForAllObjects@@YGXP6AXPAVCObject@@PAX@Z1@Z @ 1264 NONAME
 ?AfxDrawDitheredBitmap@@YGXPAVCDC@@HHABVCBitmap@@KK@Z @ 1265 NONAME
 ?AfxDrawGrayBitmap@@YGXPAVCDC@@HHABVCBitmap@@K@Z @ 1266 NONAME
 ?afxDump@@3VCDumpContext@@A @ 1267 NONAME DATA
 ?AfxDump@@YGXPBVCObject@@@Z @ 1268 NONAME
 ?AfxDumpMemoryLeaks@@YGHXZ @ 1269 NONAME
 ?AfxDynamicDownCast@@YAPAVCObject@@PAUCRuntimeClass@@PAV1@@Z @ 1270 NONAME
 ?AfxDynamicDownCast@@YAPBVCObject@@PAUCRuntimeClass@@PBV1@@Z @ 1271 NONAME
 ?AfxEditviewTerm@@YAXXZ @ 1272 NONAME
 ?AfxEnableControlContainer@@YAXPAVCOccManager@@@Z @ 1273 NONAME
 ?AfxEnableMemoryTracking@@YGHH@Z @ 1274 NONAME
 ?AfxEndDeferRegisterClass@@YGHJ@Z @ 1275 NONAME
 ?AfxEndThread@@YGXIH@Z @ 1276 NONAME
 ?AfxEnumMetaFileProc@@YGHPAUHDC__@@PAUtagHANDLETABLE@@PAUtagMETARECORD@@HJ@Z @ 1277 NONAME
 ?AfxExtractSubString@@YGHAAV?$CStringT@GV?$StrTraitMFC@GV?$ChTraitsCRT@G@@@@@@PBGHG@Z @ 1278 NONAME
 ?AfxFailMaxChars@@YGXPAVCDataExchange@@H@Z @ 1279 NONAME
 ?AfxFailRadio@@YGXPAVCDataExchange@@@Z @ 1280 NONAME
 ?AfxFieldText@@YGHPAVCDataExchange@@HPAXPAVCRecordset@@@Z @ 1281 NONAME
 ?AfxFindMessageEntry@@YGPBUAFX_MSGMAP_ENTRY@@PBU1@III@Z @ 1282 NONAME
 ?AfxFindResourceHandle@@YGPAUHINSTANCE__@@PBG0@Z @ 1283 NONAME
 ?AfxFindStringResourceHandle@@YGPAUHINSTANCE__@@I@Z @ 1284 NONAME
 ?AfxFormatString1@@YGXAAV?$CStringT@GV?$StrTraitMFC@GV?$ChTraitsCRT@G@@@@@@IPBG@Z @ 1285 NONAME
 ?AfxFormatString2@@YGXAAV?$CStringT@GV?$StrTraitMFC@GV?$ChTraitsCRT@G@@@@@@IPBG1@Z @ 1286 NONAME
 ?AfxFormatStrings@@YGXAAV?$CStringT@GV?$StrTraitMFC@GV?$ChTraitsCRT@G@@@@@@IPBQBGH@Z @ 1287 NONAME
 ?AfxFormatStrings@@YGXAAV?$CStringT@GV?$StrTraitMFC@GV?$ChTraitsCRT@G@@@@@@PBGPBQBGH@Z @ 1288 NONAME
 ?AfxFreeLibrary@@YGHPAUHINSTANCE__@@@Z @ 1289 NONAME
 ?AfxFreeMemoryDebug@@YGXPAXH@Z @ 1290 NONAME
 ?AfxFullPath@@YGHPAGPBG@Z @ 1291 NONAME
 ?AfxGetAfxWndProc@@YGP6GJPAUHWND__@@IIJ@ZXZ @ 1292 NONAME
 ?AfxGetApp@@YGPAVCWinApp@@XZ @ 1293 NONAME
 ?AfxGetAppModuleState@@YGPAVAFX_MODULE_STATE@@XZ @ 1294 NONAME
 ?AfxGetAppName@@YGPBGXZ @ 1295 NONAME
 ?AfxGetClassIDFromString@@YGJPBGPAU_GUID@@@Z @ 1296 NONAME
 ?AfxGetCurrentMessage@@YGPAUtagMSG@@XZ @ 1297 NONAME
 ?AfxGetDitheredBitmap@@YGXABVCBitmap@@PAV1@KK@Z @ 1298 NONAME
 ?AfxGetDllVersion@@YGKXZ @ 1299 NONAME
 ?AfxGetFacilityString@@YGPBGJ@Z @ 1300 NONAME
 ?AfxGetFileName@@YGIPBGPAGI@Z @ 1301 NONAME
 ?AfxGetFileTitle@@YGIPBGPAGI@Z @ 1302 NONAME
 ?AfxGetFullScodeString@@YGPBGJ@Z @ 1303 NONAME
 ?AfxGetGrayBitmap@@YGXABVCBitmap@@PAV1@K@Z @ 1304 NONAME
 ?AfxGetHENV@@YGPAXXZ @ 1305 NONAME
 ?AfxGetIIDString@@YGPBGABU_GUID@@@Z @ 1306 NONAME
 ?AfxGetInProcServer@@YGHPBGAAV?$CStringT@GV?$StrTraitMFC@GV?$ChTraitsCRT@G@@@@@@@Z @ 1307 NONAME
 ?AfxGetInstanceHandle@@YGPAUHINSTANCE__@@XZ @ 1308 NONAME
 ?AfxGetInternetHandleType@@YGKPAX@Z @ 1309 NONAME
 ?AfxGetMainWnd@@YGPAVCWnd@@XZ @ 1310 NONAME
 ?AfxGetModuleShortFileName@@YGXPAUHINSTANCE__@@AAV?$CStringT@GV?$StrTraitMFC@GV?$ChTraitsCRT@G@@@@@@@Z @ 1311 NONAME
 ?AfxGetModuleState@@YGPAVAFX_MODULE_STATE@@XZ @ 1312 NONAME
 ?AfxGetModuleThreadState@@YGPAVAFX_MODULE_THREAD_STATE@@XZ @ 1313 NONAME
 ?AfxGetNewHandler@@YGP6AHI@ZXZ @ 1314 NONAME
 ?AfxGetParentOwner@@YGPAUHWND__@@PAU1@@Z @ 1315 NONAME
 ?AfxGetPropSheetFont@@YGHAAV?$CStringT@GV?$StrTraitMFC@GV?$ChTraitsCRT@G@@@@@@AAGH@Z @ 1316 NONAME
 ?AfxGetResourceHandle@@YGPAUHINSTANCE__@@XZ @ 1317 NONAME
 ?AfxGetRichEditState@@YAPAV_AFX_RICHEDIT_STATE@@XZ @ 1318 NONAME
 ?AfxGetRoot@@YGXPBGAAV?$CStringT@GV?$StrTraitMFC@GV?$ChTraitsCRT@G@@@@@@@Z @ 1319 NONAME
 ?AfxGetScodeRangeString@@YGPBGJ@Z @ 1320 NONAME
 ?AfxGetScodeString@@YGPBGJ@Z @ 1321 NONAME
 ?AfxGetSeverityString@@YGPBGJ@Z @ 1322 NONAME
 ?AfxGetStringManager@@YGPAVIAtlStringMgr@ATL@@XZ @ 1323 NONAME
 ?AfxGetThread@@YGPAVCWinThread@@XZ @ 1324 NONAME
 ?AfxGetThreadState@@YGPAV_AFX_THREAD_STATE@@XZ @ 1325 NONAME
 ?AfxGetTypeLibCache@@YGPAVCTypeLibCache@@PBU_GUID@@@Z @ 1326 NONAME
 ?AfxGlobalFree@@YGXPAX@Z @ 1327 NONAME
 ?AfxHelpEnabled@@YGHXZ @ 1328 NONAME
 ?AfxHookWindowCreate@@YGXPAVCWnd@@@Z @ 1329 NONAME
 ?AfxHtmlHelp@@YGPAUHWND__@@PAU1@PBGIK@Z @ 1330 NONAME
 ?AfxInitExtensionModule@@YGHAAUAFX_EXTENSION_MODULE@@PAUHINSTANCE__@@@Z @ 1331 NONAME
 ?AfxInitLocalData@@YGXPAUHINSTANCE__@@@Z @ 1332 NONAME
 ?AfxInitRichEdit@@YGHXZ @ 1333 NONAME
 ?AfxInitThread@@YGXXZ @ 1334 NONAME
 ?AfxInternalIsIdleMessage@@YAHPAUtagMSG@@@Z @ 1335 NONAME
 ?AfxInternalPreTranslateMessage@@YAHPAUtagMSG@@@Z @ 1336 NONAME
 ?AfxInternalProcessWndProcException@@YGJPAVCException@@PBUtagMSG@@@Z @ 1337 NONAME
 ?AfxInternalPumpMessage@@YGHXZ @ 1338 NONAME
 ?AfxInternetStatusCallback@@YGXPAXKK0K@Z @ 1339 NONAME
 ?AfxInternetStatusCallbackDebug@@YGXPAXKK0K@Z @ 1340 NONAME
 ?AfxIsDescendant@@YGHPAUHWND__@@0@Z @ 1341 NONAME
 ?AfxIsIdleMessage@@YAHPAUtagMSG@@@Z @ 1342 NONAME
 ?AfxIsMemoryBlock@@YGHPBXIPAJ@Z @ 1343 NONAME
 ?AfxIsValidAddress@@YGHPBXIH@Z @ 1344 NONAME
 ?AfxIsValidString@@YGHPBDH@Z @ 1345 NONAME
 ?AfxIsValidString@@YGHPBGH@Z @ 1346 NONAME
 ?AfxLoadField@@YGXAAVCRecordset@@IPAXPAJ@Z @ 1347 NONAME
 ?AfxLoadLangResourceDLL@@YGPAUHINSTANCE__@@PBG@Z @ 1348 NONAME
 ?AfxLoadLibrary@@YGPAUHINSTANCE__@@PBG@Z @ 1349 NONAME
 ?AfxLoadString@@YGHIPADI@Z @ 1350 NONAME
 ?AfxLoadString@@YGHIPAGI@Z @ 1351 NONAME
 ?AfxLoadSysColorBitmap@@YGPAUHBITMAP__@@PAUHINSTANCE__@@PAUHRSRC__@@H@Z @ 1352 NONAME
 ?AfxLockGlobals@@YGXH@Z @ 1353 NONAME
 ?AfxLockTempMaps@@YGXXZ @ 1354 NONAME
 ?afxMapHDC@@YGPAVCHandleMap@@H@Z @ 1355 NONAME
 ?afxMapHGDIOBJ@@YGPAVCHandleMap@@H@Z @ 1356 NONAME
 ?afxMapHIMAGELIST@@YGPAVCHandleMap@@H@Z @ 1357 NONAME
 ?afxMapHMENU@@YGPAVCHandleMap@@H@Z @ 1358 NONAME
 ?afxMapHWND@@YGPAVCHandleMap@@H@Z @ 1359 NONAME
 ?AfxMergeMenus@@YGPAUHMENU__@@PAU1@0PAJHH@Z @ 1360 NONAME
 ?AfxMessageBox@@YGHIII@Z @ 1361 NONAME
 ?AfxMessageBox@@YGHPBGII@Z @ 1362 NONAME
 ?AfxNewHandler@@YAHI@Z @ 1363 NONAME
 ?AfxOleCanExitApp@@YGHXZ @ 1364 NONAME
 ?AfxOleGetMessageFilter@@YGPAVCOleMessageFilter@@XZ @ 1365 NONAME
 ?AfxOleGetUserCtrl@@YGHXZ @ 1366 NONAME
 ?AfxOleHookProc@@YGIPAUHWND__@@IIJ@Z @ 1367 NONAME
 ?AfxOleInit@@YGHXZ @ 1368 NONAME
 ?AfxOleInprocRegisterHelper@@YGHPAUHKEY__@@0H@Z @ 1369 NONAME
 ?AfxOleLockApp@@YGXXZ @ 1370 NONAME
 ?AfxOleLockControl@@YGHABU_GUID@@@Z @ 1371 NONAME
 ?AfxOleLockControl@@YGHPBG@Z @ 1372 NONAME
 ?AfxOleOnReleaseAllObjects@@YGXXZ @ 1373 NONAME
 ?AfxOleRegisterControlClass@@YGHPAUHINSTANCE__@@ABU_GUID@@PBGIIHK1GG@Z @ 1374 NONAME
 ?AfxOleRegisterHelper@@YGHPBQBG0HHPAUHKEY__@@@Z @ 1375 NONAME
 ?AfxOleRegisterPropertyPageClass@@YGHPAUHINSTANCE__@@ABU_GUID@@I@Z @ 1376 NONAME
 ?AfxOleRegisterPropertyPageClass@@YGHPAUHINSTANCE__@@ABU_GUID@@IH@Z @ 1377 NONAME
 ?AfxOleRegisterServerClass@@YGHABU_GUID@@PBG11W4OLE_APPTYPE@@PAPBG3H1@Z @ 1378 NONAME
 ?AfxOleRegisterServerClass@@YGHABU_GUID@@PBG11W4OLE_APPTYPE@@PAPBG3H11@Z @ 1379 NONAME
 ?AfxOleRegisterTypeLib@@YGHPAUHINSTANCE__@@ABU_GUID@@PBG2@Z @ 1380 NONAME
 ?AfxOleSetEditMenu@@YGXPAVCOleClientItem@@PAVCMenu@@IIII@Z @ 1381 NONAME
 ?AfxOleSetUserCtrl@@YGXH@Z @ 1382 NONAME
 ?AfxOleTerm@@YGXH@Z @ 1383 NONAME
 ?AfxOleTermOrFreeLib@@YGXHH@Z @ 1384 NONAME
 ?AfxOleUnlockAllControls@@YGXXZ @ 1385 NONAME
 ?AfxOleUnlockApp@@YGXXZ @ 1386 NONAME
 ?AfxOleUnlockControl@@YGHABU_GUID@@@Z @ 1387 NONAME
 ?AfxOleUnlockControl@@YGHPBG@Z @ 1388 NONAME
 ?AfxOleUnregisterClass@@YGHABU_GUID@@PBG@Z @ 1389 NONAME
 ?AfxOleUnregisterHelper@@YGHPBQBG0HPAUHKEY__@@@Z @ 1390 NONAME
 ?AfxOleUnregisterServerClass@@YGHABU_GUID@@PBG11W4OLE_APPTYPE@@PAPBG3@Z @ 1391 NONAME
 ?AfxOleUnregisterTypeLib@@YGHABU_GUID@@GGK@Z @ 1392 NONAME
 ?AfxParseURL@@YGHPBGAAKAAV?$CStringT@GV?$StrTraitMFC@GV?$ChTraitsCRT@G@@@@@@2AAG@Z @ 1393 NONAME
 ?AfxParseURLEx@@YGHPBGAAKAAV?$CStringT@GV?$StrTraitMFC@GV?$ChTraitsCRT@G@@@@@@2AAG22K@Z @ 1394 NONAME
 ?AfxPostQuitMessage@@YGXH@Z @ 1395 NONAME
 ?AfxPreTranslateMessage@@YAHPAUtagMSG@@@Z @ 1396 NONAME
 ?AfxProcessWndProcException@@YGJPAVCException@@PBUtagMSG@@@Z @ 1397 NONAME
 ?AfxPropPageCallback@@YGIPAUHWND__@@IPAU_PROPSHEETPAGEW@@@Z @ 1398 NONAME
 ?AfxPropSheetCallback@@YGHPAUHWND__@@IJ@Z @ 1399 NONAME
 ?AfxPumpMessage@@YGHXZ @ 1400 NONAME
 ?AfxReadStringLength@@YGIAAVCArchive@@AAH@Z @ 1401 NONAME
 ?AfxRegisterClass@@YGHPAUtagWNDCLASSW@@@Z @ 1402 NONAME
 ?AfxRegisterWndClass@@YGPBGIPAUHICON__@@PAUHBRUSH__@@0@Z @ 1403 NONAME
 ?AfxRepositionWindow@@YGXPAUAFX_SIZEPARENTPARAMS@@PAUHWND__@@PBUtagRECT@@@Z @ 1404 NONAME
 ?AfxResetMsgCache@@YGXXZ @ 1405 NONAME
 ?AfxResolveShortcut@@YGHPAVCWnd@@PBGPAGH@Z @ 1406 NONAME
 ?AfxRFXBulkDefault@@YGXPAVCFieldExchange@@PBGPAXPAJHI@Z @ 1407 NONAME
 ?AfxSafeArrayInit@@YGXPAVCOleSafeArray@@@Z @ 1408 NONAME
 ?AfxSetAllocHook@@YGP6GHIHJ@ZP6GHIHJ@Z@Z @ 1409 NONAME
 ?AfxSetAllocStop@@YGXJ@Z @ 1410 NONAME
 ?AfxSetModuleState@@YGPAVAFX_MODULE_STATE@@PAV1@@Z @ 1411 NONAME
 ?AfxSetNewHandler@@YGP6AHI@ZP6AHI@Z@Z @ 1412 NONAME
 ?AfxSetResourceHandle@@YGXPAUHINSTANCE__@@@Z @ 1413 NONAME
 ?AfxSetWindowText@@YGXPAUHWND__@@PBG@Z @ 1414 NONAME
 ?_AfxSocketInit@@YGHPAUWSAData@@@Z @ 1415 NONAME
 ?AfxSocketTerm@@YGXXZ @ 1416 NONAME
 ?AfxStaticDownCast@@YAPAVCObject@@PAUCRuntimeClass@@PAV1@@Z @ 1417 NONAME
 ?AfxStaticDownCast@@YAPBVCObject@@PAUCRuntimeClass@@PBV1@@Z @ 1418 NONAME
 ?AfxStoreField@@YGXAAVCRecordset@@IPAX@Z @ 1419 NONAME
 ?AfxStringFromCLSID@@YG?AV?$CStringT@GV?$StrTraitMFC@GV?$ChTraitsCRT@G@@@@@@ABU_GUID@@@Z @ 1420 NONAME
 ?AfxTermExtensionModule@@YGXAAUAFX_EXTENSION_MODULE@@H@Z @ 1421 NONAME
 ?AfxTermLocalData@@YGXPAUHINSTANCE__@@H@Z @ 1422 NONAME
 ?AfxTermThread@@YGXPAUHINSTANCE__@@@Z @ 1423 NONAME
 ?AfxTextFloatFormat@@YGXPAVCDataExchange@@HPAXNH@Z @ 1424 NONAME
 ?AfxThrowArchiveException@@YGXHPBG@Z @ 1425 NONAME
 ?AfxThrowDBException@@YGXFPAVCDatabase@@PAX@Z @ 1426 NONAME
 ?AfxThrowFileException@@YGXHJPBG@Z @ 1427 NONAME
 ?AfxThrowInternetException@@YGXKK@Z @ 1428 NONAME
 ?AfxThrowLastCleanup@@YGXXZ @ 1429 NONAME
 ?AfxThrowMemoryException@@YGXXZ @ 1430 NONAME
 ?AfxThrowNotSupportedException@@YGXXZ @ 1431 NONAME
 ?AfxThrowOleDispatchException@@YGXGII@Z @ 1432 NONAME
 ?AfxThrowOleDispatchException@@YGXGPBGI@Z @ 1433 NONAME
 ?AfxThrowOleException@@YGXJ@Z @ 1434 NONAME
 ?AfxThrowResourceException@@YGXXZ @ 1435 NONAME
 ?AfxThrowUserException@@YGXXZ @ 1436 NONAME
 ?AfxTimeToFileTime@@YAXABVCTime@ATL@@PAU_FILETIME@@@Z @ 1437 NONAME
 ?AfxTlsAddRef@@YGXXZ @ 1438 NONAME
 ?AfxTlsRelease@@YGXXZ @ 1439 NONAME
 ?AfxTrace@@YAXPBGZZ @ 1440 NONAME
 ?afxTraceEnabled@@3HA @ 1441 NONAME DATA
 ?afxTraceFlags@@3IA @ 1442 NONAME DATA
 ?AfxTrackerTerm@@YAXXZ @ 1443 NONAME
 ?AfxTryCleanup@@YGXXZ @ 1444 NONAME
 ?AfxUnhookWindowCreate@@YGHXZ @ 1445 NONAME
 ?AfxUnlockGlobals@@YGXH@Z @ 1446 NONAME
 ?AfxUnlockTempMaps@@YGHH@Z @ 1447 NONAME
 ?AfxUnmergeMenus@@YGXPAUHMENU__@@00@Z @ 1448 NONAME
 ?AfxVariantInit@@YGXPAUtagVARIANT@@@Z @ 1449 NONAME
 ?AfxVerifyLicFile@@YGHPAUHINSTANCE__@@PBG1I@Z @ 1450 NONAME
 ?AfxW2AHelper@@YGPADPADPBGH@Z @ 1451 NONAME
 ?AfxWingdixTerm@@YAXXZ @ 1452 NONAME
 ?AfxWinInit@@YGHPAUHINSTANCE__@@0PAGH@Z @ 1453 NONAME
 ?AfxWinMain@@YGHPAUHINSTANCE__@@0PAGH@Z @ 1454 NONAME
 ?AfxWinTerm@@YGXXZ @ 1455 NONAME
 ?AfxWndProc@@YGJPAUHWND__@@IIJ@Z @ 1456 NONAME
 ?AfxWndProcBase@@YGJPAUHWND__@@IIJ@Z @ 1457 NONAME
 ?AfxWndProcDllOle@@YGJPAUHWND__@@IIJ@Z @ 1458 NONAME
 ?AfxWriteStringLength@@YGXAAVCArchive@@IH@Z @ 1459 NONAME
 ?Alloc@CFixedAlloc@@QAEPAXXZ @ 1460 NONAME
 ?Alloc@CFixedAllocNoSync@@QAEPAXXZ @ 1461 NONAME
 ?Alloc@CMemFile@@MAEPAEK@Z @ 1462 NONAME
 ?Alloc@CSharedFile@@MAEPAEK@Z @ 1463 NONAME
 ?AllocAndCacheFieldInfo@CRecordset@@IAEXXZ @ 1464 NONAME
 ?Allocate@CAfxStringMgr@@UAEPAUCStringData@ATL@@HH@Z @ 1465 NONAME
 ?AllocConnect@CDatabase@@IAEXK@Z @ 1466 NONAME
 ?AllocData@COleSafeArray@@QAEXXZ @ 1467 NONAME
 ?AllocDataCache@CRecordset@@QAEXXZ @ 1468 NONAME
 ?AllocDescriptor@COleSafeArray@@QAEXK@Z @ 1469 NONAME
 ?AllocElements@CControlBar@@QAEHHH@Z @ 1470 NONAME
 ?AllocElements@CStatusBar@@QAEHHH@Z @ 1471 NONAME
 ?AllocHstmt@CRecordset@@IAEHXZ @ 1472 NONAME
 ?AllocRowset@CRecordset@@IAEXXZ @ 1473 NONAME
 ?AllocSlot@CThreadSlotData@@QAEHXZ @ 1474 NONAME
 ?AllocStatusArrays@CRecordset@@QAEXXZ @ 1475 NONAME
 ?AllocValue@CProperty@@AAEPAXK@Z @ 1476 NONAME
 ?AlphaBlend@CDC@@QAEHHHHHPAV1@HHHHU_BLENDFUNCTION@@@Z @ 1477 NONAME
 ?AmbientAppearance@COleControl@@QAEFXZ @ 1478 NONAME
 ?AmbientBackColor@COleControl@@QAEKXZ @ 1479 NONAME
 ?AmbientDisplayName@COleControl@@QAE?AV?$CStringT@GV?$StrTraitMFC@GV?$ChTraitsCRT@G@@@@@@XZ @ 1480 NONAME
 ?AmbientFont@COleControl@@QAEPAUIFontDisp@@XZ @ 1481 NONAME
 ?AmbientForeColor@COleControl@@QAEKXZ @ 1482 NONAME
 ?AmbientLocaleID@COleControl@@QAEKXZ @ 1483 NONAME
 ?AmbientScaleUnits@COleControl@@QAE?AV?$CStringT@GV?$StrTraitMFC@GV?$ChTraitsCRT@G@@@@@@XZ @ 1484 NONAME
 ?AmbientShowGrabHandles@COleControl@@QAEHXZ @ 1485 NONAME
 ?AmbientShowHatching@COleControl@@QAEHXZ @ 1486 NONAME
 ?AmbientTextAlign@COleControl@@QAEFXZ @ 1487 NONAME
 ?AmbientUIDead@COleControl@@QAEHXZ @ 1488 NONAME
 ?AmbientUserMode@COleControl@@QAEHXZ @ 1489 NONAME
 ?AngleArc@CDC@@QAEHHHHMM@Z @ 1490 NONAME
 ?AnimatePalette@CPalette@@QAEXIIPAUtagPALETTEENTRY@@@Z @ 1491 NONAME
 ?Append@CByteArray@@QAEHABV1@@Z @ 1492 NONAME
 ?Append@CDWordArray@@QAEHABV1@@Z @ 1493 NONAME
 ?Append@CObArray@@QAEHABV1@@Z @ 1494 NONAME
 ?Append@CPtrArray@@QAEHABV1@@Z @ 1495 NONAME
 ?Append@CStringArray@@QAEHABV1@@Z @ 1496 NONAME
 ?Append@CUIntArray@@QAEHABV1@@Z @ 1497 NONAME
 ?Append@CWordArray@@QAEHABV1@@Z @ 1498 NONAME
 ?AppendFilterAndSortSQL@CRecordset@@IAEXXZ @ 1499 NONAME
 ?AppendMenuW@CMenu@@QAEHIIPBG@Z @ 1500 NONAME
 ?AppendMenuW@CMenu@@QAEHIIPBVCBitmap@@@Z @ 1501 NONAME
 ?AppendNames@CRecordset@@QAEIPAV?$CStringT@GV?$StrTraitMFC@GV?$ChTraitsCRT@G@@@@@@PBG@Z @ 1502 NONAME
 ?AppendNamesValues@CRecordset@@QAEIPAXPAV?$CStringT@GV?$StrTraitMFC@GV?$ChTraitsCRT@G@@@@@@PBG@Z @ 1503 NONAME
 ?AppendValues@CRecordset@@QAEIPAXPAV?$CStringT@GV?$StrTraitMFC@GV?$ChTraitsCRT@G@@@@@@PBG@Z @ 1504 NONAME
 ?Apply@XPropertyPage@COlePropertyPage@@UAGJXZ @ 1505 NONAME
 ?ApplyPrintDevice@COleDocument@@QAEHPBUtagDVTARGETDEVICE@@@Z @ 1506 NONAME
 ?ApplyPrintDevice@COleDocument@@QAEHPBUtagPDW@@@Z @ 1507 NONAME
 ?ApplyViewState@XOleDocumentView@CDocObjectServer@@UAGJPAUIStream@@@Z @ 1508 NONAME
 ?ApproximateViewRect@CListCtrl@@QBE?AVCSize@@V2@H@Z @ 1509 NONAME
 ?Arc@CDC@@QAEHHHHHHHHH@Z @ 1510 NONAME
 ?Arc@CDC@@QAEHPBUtagRECT@@UtagPOINT@@1@Z @ 1511 NONAME
 ?ArcTo@CDC@@QAEHHHHHHHHH@Z @ 1512 NONAME
 ?ArcTo@CDC@@QAEHPBUtagRECT@@UtagPOINT@@1@Z @ 1513 NONAME
 ?Arrange@CListCtrl@@QAEHI@Z @ 1514 NONAME
 ?ArrangeIconicWindows@CWnd@@QAEIXZ @ 1515 NONAME
 ?AssertValid@CAsyncMonikerFile@@UBEXXZ @ 1516 NONAME
 ?AssertValid@CAsyncSocket@@UBEXXZ @ 1517 NONAME
 ?AssertValid@CBitmapButton@@UBEXXZ @ 1518 NONAME
 ?AssertValid@CByteArray@@UBEXXZ @ 1519 NONAME
 ?AssertValid@CCachedDataPathProperty@@UBEXXZ @ 1520 NONAME
 ?AssertValid@CClientDC@@UBEXXZ @ 1521 NONAME
 ?AssertValid@CCmdTarget@@UBEXXZ @ 1522 NONAME
 ?AssertValid@CControlBar@@UBEXXZ @ 1523 NONAME
 ?AssertValid@CCtrlView@@UBEXXZ @ 1524 NONAME
 ?AssertValid@CDatabase@@UBEXXZ @ 1525 NONAME
 ?AssertValid@CDataPathProperty@@UBEXXZ @ 1526 NONAME
 ?AssertValid@CDC@@UBEXXZ @ 1527 NONAME
 ?AssertValid@CDialog@@UBEXXZ @ 1528 NONAME
 ?AssertValid@CDocItem@@UBEXXZ @ 1529 NONAME
 ?AssertValid@CDockBar@@UBEXXZ @ 1530 NONAME
 ?AssertValid@CDocManager@@UBEXXZ @ 1531 NONAME
 ?AssertValid@CDocObjectServer@@MBEXXZ @ 1532 NONAME
 ?AssertValid@CDocObjectServerItem@@UBEXXZ @ 1533 NONAME
 ?AssertValid@CDocTemplate@@UBEXXZ @ 1534 NONAME
 ?AssertValid@CDocument@@UBEXXZ @ 1535 NONAME
 ?AssertValid@CDWordArray@@UBEXXZ @ 1536 NONAME
 ?AssertValid@CDynLinkLibrary@@UBEXXZ @ 1537 NONAME
 ?AssertValid@CEditView@@UBEXXZ @ 1538 NONAME
 ?AssertValid@CFile@@UBEXXZ @ 1539 NONAME
 ?AssertValid@CFileFind@@MBEXXZ @ 1540 NONAME
 ?AssertValid@CFormView@@UBEXXZ @ 1541 NONAME
 ?AssertValid@CFrameWnd@@UBEXXZ @ 1542 NONAME
 ?AssertValid@CFtpConnection@@UBEXXZ @ 1543 NONAME
 ?AssertValid@CFtpFileFind@@UBEXXZ @ 1544 NONAME
 ?AssertValid@CGdiObject@@UBEXXZ @ 1545 NONAME
 ?AssertValid@CGopherConnection@@UBEXXZ @ 1546 NONAME
 ?AssertValid@CGopherFile@@UBEXXZ @ 1547 NONAME
 ?AssertValid@CGopherFileFind@@UBEXXZ @ 1548 NONAME
 ?AssertValid@CHtmlEditDoc@@UBEXXZ @ 1549 NONAME
 ?AssertValid@CHtmlEditView@@UBEXXZ @ 1550 NONAME
 ?AssertValid@CHtmlView@@UBEXXZ @ 1551 NONAME
 ?AssertValid@CHttpConnection@@UBEXXZ @ 1552 NONAME
 ?AssertValid@CHttpFile@@MBEXXZ @ 1553 NONAME
 ?AssertValid@CImageList@@UBEXXZ @ 1554 NONAME
 ?AssertValid@CInternetConnection@@UBEXXZ @ 1555 NONAME
 ?AssertValid@CInternetFile@@MBEXXZ @ 1556 NONAME
 ?AssertValid@CLongBinary@@UBEXXZ @ 1557 NONAME
 ?AssertValid@CMapPtrToPtr@@UBEXXZ @ 1558 NONAME
 ?AssertValid@CMapPtrToWord@@UBEXXZ @ 1559 NONAME
 ?AssertValid@CMapStringToOb@@UBEXXZ @ 1560 NONAME
 ?AssertValid@CMapStringToPtr@@UBEXXZ @ 1561 NONAME
 ?AssertValid@CMapStringToString@@UBEXXZ @ 1562 NONAME
 ?AssertValid@CMapWordToOb@@UBEXXZ @ 1563 NONAME
 ?AssertValid@CMapWordToPtr@@UBEXXZ @ 1564 NONAME
 ?AssertValid@CMDIChildWnd@@UBEXXZ @ 1565 NONAME
 ?AssertValid@CMDIFrameWnd@@UBEXXZ @ 1566 NONAME
 ?AssertValid@CMemFile@@UBEXXZ @ 1567 NONAME
 ?AssertValid@CMenu@@UBEXXZ @ 1568 NONAME
 ?AssertValid@CMonikerFile@@UBEXXZ @ 1569 NONAME
 ?AssertValid@CMultiDocTemplate@@UBEXXZ @ 1570 NONAME
 ?AssertValid@CObArray@@UBEXXZ @ 1571 NONAME
 ?AssertValid@CObject@@UBEXXZ @ 1572 NONAME
 ?AssertValid@CObList@@UBEXXZ @ 1573 NONAME
 ?AssertValid@COleChangeSourceDialog@@UBEXXZ @ 1574 NONAME
 ?AssertValid@COleClientItem@@UBEXXZ @ 1575 NONAME
 ?AssertValid@COleCntrFrameWnd@@UBEXXZ @ 1576 NONAME
 ?AssertValid@COleControl@@UBEXXZ @ 1577 NONAME
 ?AssertValid@COleDataSource@@UBEXXZ @ 1578 NONAME
 ?AssertValid@COleDocIPFrameWnd@@UBEXXZ @ 1579 NONAME
 ?AssertValid@COleDocument@@UBEXXZ @ 1580 NONAME
 ?AssertValid@COleDropTarget@@UBEXXZ @ 1581 NONAME
 ?AssertValid@COleIPFrameWnd@@UBEXXZ @ 1582 NONAME
 ?AssertValid@COleLinkingDoc@@UBEXXZ @ 1583 NONAME
 ?AssertValid@COleLinksDialog@@UBEXXZ @ 1584 NONAME
 ?AssertValid@COleMessageFilter@@UBEXXZ @ 1585 NONAME
 ?AssertValid@COleObjectFactory@@UBEXXZ @ 1586 NONAME
 ?AssertValid@COlePasteSpecialDialog@@UBEXXZ @ 1587 NONAME
 ?AssertValid@COlePropertiesDialog@@UBEXXZ @ 1588 NONAME
 ?AssertValid@COleServerDoc@@UBEXXZ @ 1589 NONAME
 ?AssertValid@COleServerItem@@UBEXXZ @ 1590 NONAME
 ?AssertValid@COleStreamFile@@UBEXXZ @ 1591 NONAME
 ?AssertValid@CPaintDC@@UBEXXZ @ 1592 NONAME
 ?AssertValid@CPreviewDC@@UBEXXZ @ 1593 NONAME
 ?AssertValid@CPreviewView@@UBEXXZ @ 1594 NONAME
 ?AssertValid@CPropertyPage@@UBEXXZ @ 1595 NONAME
 ?AssertValid@CPropertySheet@@UBEXXZ @ 1596 NONAME
 ?AssertValid@CPtrArray@@UBEXXZ @ 1597 NONAME
 ?AssertValid@CPtrList@@UBEXXZ @ 1598 NONAME
 ?AssertValid@CRecordset@@UBEXXZ @ 1599 NONAME
 ?AssertValid@CRecordView@@UBEXXZ @ 1600 NONAME
 ?AssertValid@CRichEditCntrItem@@UBEXXZ @ 1601 NONAME
 ?AssertValid@CRichEditDoc@@UBEXXZ @ 1602 NONAME
 ?AssertValid@CRichEditView@@UBEXXZ @ 1603 NONAME
 ?AssertValid@CScrollView@@UBEXXZ @ 1604 NONAME
 ?AssertValid@CSingleDocTemplate@@UBEXXZ @ 1605 NONAME
 ?AssertValid@CSocket@@MBEXXZ @ 1606 NONAME
 ?AssertValid@CSocketFile@@UBEXXZ @ 1607 NONAME
 ?AssertValid@CSplitterWnd@@UBEXXZ @ 1608 NONAME
 ?AssertValid@CStatusBar@@UBEXXZ @ 1609 NONAME
 ?AssertValid@CStringArray@@UBEXXZ @ 1610 NONAME
 ?AssertValid@CStringList@@UBEXXZ @ 1611 NONAME
 ?AssertValid@CSyncObject@@UBEXXZ @ 1612 NONAME
 ?AssertValid@CToolBar@@UBEXXZ @ 1613 NONAME
 ?AssertValid@CUIntArray@@UBEXXZ @ 1614 NONAME
 ?AssertValid@CView@@UBEXXZ @ 1615 NONAME
 ?AssertValid@CWinApp@@UBEXXZ @ 1616 NONAME
 ?AssertValid@CWindowDC@@UBEXXZ @ 1617 NONAME
 ?AssertValid@CWinThread@@UBEXXZ @ 1618 NONAME
 ?AssertValid@CWnd@@UBEXXZ @ 1619 NONAME
 ?AssertValid@CWordArray@@UBEXXZ @ 1620 NONAME
 ?AssignInstance@CThreadSlotData@@QAEXPAUHINSTANCE__@@@Z @ 1621 NONAME
 ?AsyncSelect@CAsyncSocket@@QAEHJ@Z @ 1622 NONAME
 ?Attach@CAsyncSocket@@QAEHIJ@Z @ 1623 NONAME
 ?Attach@CDC@@QAEHPAUHDC__@@@Z @ 1624 NONAME
 ?Attach@CGdiObject@@QAEHPAX@Z @ 1625 NONAME
 ?Attach@CImageList@@QAEHPAU_IMAGELIST@@@Z @ 1626 NONAME
 ?Attach@CMemFile@@QAEXPAEII@Z @ 1627 NONAME
 ?Attach@CMenu@@QAEHPAUHMENU__@@@Z @ 1628 NONAME
 ?Attach@CMonikerFile@@IAEHPAUIMoniker@@PAUIBindHost@@PAUIBindStatusCallback@@PAUIBindCtx@@PAVCFileException@@@Z @ 1629 NONAME
 ?Attach@CMonikerFile@@IAEHPBGPAUIBindHost@@PAUIBindStatusCallback@@PAUIBindCtx@@PAVCFileException@@@Z @ 1630 NONAME
 ?Attach@COleDataObject@@QAEXPAUIDataObject@@H@Z @ 1631 NONAME
 ?Attach@COleSafeArray@@QAEXAAUtagVARIANT@@@Z @ 1632 NONAME
 ?Attach@COleStreamFile@@QAEXPAUIStream@@@Z @ 1633 NONAME
 ?Attach@COleVariant@@QAEXAAUtagVARIANT@@@Z @ 1634 NONAME
 ?Attach@CSocket@@QAEHI@Z @ 1635 NONAME
 ?Attach@CWnd@@QAEHPAUHWND__@@@Z @ 1636 NONAME
 ?AttachClipboard@COleDataObject@@QAEHXZ @ 1637 NONAME
 ?AttachControlSite@COleControlContainer@@QAEXPAVCWnd@@I@Z @ 1638 NONAME
 ?AttachControlSite@CWnd@@IAEXPAVCHandleMap@@@Z @ 1639 NONAME
 ?AttachControlSite@CWnd@@QAEXPAV1@I@Z @ 1640 NONAME
 ?AttachDataObject@COleClientItem@@QBEXAAVCOleDataObject@@@Z @ 1641 NONAME
 ?AttachDispatch@COleDispatchDriver@@QAEXPAUIDispatch@@H@Z @ 1642 NONAME
 ?AttachHandle@CAsyncSocket@@SGXIPAV1@H@Z @ 1643 NONAME
 ?AttachOnSetup@CPrintDialog@@MAEPAV1@XZ @ 1644 NONAME
 ?AttachWindow@COleControlSite@@IAEXXZ @ 1645 NONAME
 ?AutoLoad@CBitmapButton@@QAEHIPAVCWnd@@@Z @ 1646 NONAME
 ?AutoSize@CToolBarCtrl@@QAEXXZ @ 1647 NONAME
 ?AuxQueueAdd@CSocket@@KGXIIJ@Z @ 1648 NONAME
 ?BeforeNavigate2@CHtmlView@@MAEXPAUIDispatch@@PAUtagVARIANT@@1111PAF@Z @ 1649 NONAME
 ?BeginBusyState@COleMessageFilter@@UAEXXZ @ 1650 NONAME
 ?BeginDeferErrors@COleLinkingDoc@@QAEXXZ @ 1651 NONAME
 ?BeginDrag@CDragListBox@@UAEHVCPoint@@@Z @ 1652 NONAME
 ?BeginDrag@CImageList@@QAEHHVCPoint@@@Z @ 1653 NONAME
 ?BeginDrag@CReBarCtrl@@QAEXIK@Z @ 1654 NONAME
 ?BeginEnumFormats@COleDataObject@@QAEXXZ @ 1655 NONAME
 ?BeginModalState@CFrameWnd@@UAEXXZ @ 1656 NONAME
 ?BeginModalState@CWnd@@UAEXXZ @ 1657 NONAME
 ?BeginPaint@CWnd@@QAEPAVCDC@@PAUtagPAINTSTRUCT@@@Z @ 1658 NONAME
 ?BeginPath@CDC@@QAEHXZ @ 1659 NONAME
 ?BeginTrans@CDatabase@@QAEHXZ @ 1660 NONAME
 ?BeginWaitCursor@CCmdTarget@@QAEXXZ @ 1661 NONAME
 ?Bind@CAsyncSocket@@QAEHIPBG@Z @ 1662 NONAME
 ?Bind@CAsyncSocket@@QAEHPBUsockaddr@@H@Z @ 1663 NONAME
 ?BindColumns@CDataSourceControl@@UAEXXZ @ 1664 NONAME
 ?BindControls@COccManager@@IAEXPAVCWnd@@@Z @ 1665 NONAME
 ?BindDefaultProperty@COleControlSite@@UAEXJGPBGPAVCWnd@@@Z @ 1666 NONAME
 ?BindDefaultProperty@CWnd@@QAEXJGPBGPAV1@@Z @ 1667 NONAME
 ?BindFieldsForUpdate@CRecordset@@QAEXXZ @ 1668 NONAME
 ?BindFieldsToColumns@CRecordset@@QAEIXZ @ 1669 NONAME
 ?BindParameters@CDatabase@@UAEXPAX@Z @ 1670 NONAME
 ?BindParams@CRecordset@@QAEIPAX@Z @ 1671 NONAME
 ?BindProp@CDataSourceControl@@UAEXPAVCDataBoundProperty@@H@Z @ 1672 NONAME
 ?BindProp@CDataSourceControl@@UAEXPAVCOleControlSite@@H@Z @ 1673 NONAME
 ?BindProperty@COleControlSite@@UAEXJPAVCWnd@@@Z @ 1674 NONAME
 ?BindProperty@CWnd@@QAEXJPAV1@@Z @ 1675 NONAME
 ?BitBlt@CDC@@QAEHHHHHPAV1@HHK@Z @ 1676 NONAME
 ?BoundPropertyChanged@COleControl@@QAEXJ@Z @ 1677 NONAME
 ?BoundPropertyRequestEdit@COleControl@@QAEHJ@Z @ 1678 NONAME
 ?BringToTop@CFrameWnd@@IAEXH@Z @ 1679 NONAME
 ?BringWindowToTop@CWnd@@QAEXXZ @ 1680 NONAME
 ?BroadcastAmbientPropertyChange@COleControlContainer@@UAEXJ@Z @ 1681 NONAME
 ?BuildErrorString@CDBException@@UAEXPAVCDatabase@@PAXH@Z @ 1682 NONAME
 ?BuildPropPageArray@CPropertySheet@@UAEXXZ @ 1683 NONAME
 ?BuildSelectSQL@CRecordset@@IAEXXZ @ 1684 NONAME
 ?BuildSharedMenu@COleControl@@MAEHXZ @ 1685 NONAME
 ?BuildSharedMenu@COleDocIPFrameWnd@@MAEHXZ @ 1686 NONAME
 ?BuildSharedMenu@COleIPFrameWnd@@MAEHXZ @ 1687 NONAME
 ?BuildSQL@CRecordset@@IAEXPBG@Z @ 1688 NONAME
 ?BuildUpdateSQL@CRecordset@@IAEXXZ @ 1689 NONAME
 ?ButtonDblClk@COleControl@@IAEXGIVCPoint@@@Z @ 1690 NONAME
 ?ButtonDown@COleControl@@IAEXGIVCPoint@@@Z @ 1691 NONAME
 ?ButtonUp@COleControl@@IAEXGIVCPoint@@@Z @ 1692 NONAME
 ?Cache@_AFXCTL_AMBIENT_CACHE@@QAEXPAUtagQACONTAINER@@@Z @ 1693 NONAME
 ?Cache@CTypeLibCache@@QAEXKPAUITypeLib@@@Z @ 1694 NONAME
 ?Cache@XOleCache@COleControl@@UAGJPAUtagFORMATETC@@KPAK@Z @ 1695 NONAME
 ?CacheData@COleDataSource@@QAEXGPAUtagSTGMEDIUM@@PAUtagFORMATETC@@@Z @ 1696 NONAME
 ?CacheGlobalData@COleDataSource@@QAEXGPAXPAUtagFORMATETC@@@Z @ 1697 NONAME
 ?CacheTypeInfo@CTypeLibCache@@QAEXKABU_GUID@@PAUITypeInfo@@@Z @ 1698 NONAME
 ?CalcBorders@CMiniFrameWnd@@SGXPAUtagRECT@@KK@Z @ 1699 NONAME
 ?CalcDynamicLayout@CControlBar@@UAE?AVCSize@@HK@Z @ 1700 NONAME
 ?CalcDynamicLayout@CReBar@@UAE?AVCSize@@HK@Z @ 1701 NONAME
 ?CalcDynamicLayout@CToolBar@@UAE?AVCSize@@HK@Z @ 1702 NONAME
 ?CalcFixedLayout@CControlBar@@UAE?AVCSize@@HH@Z @ 1703 NONAME
 ?CalcFixedLayout@CDialogBar@@UAE?AVCSize@@HH@Z @ 1704 NONAME
 ?CalcFixedLayout@CDockBar@@UAE?AVCSize@@HH@Z @ 1705 NONAME
 ?CalcFixedLayout@CReBar@@UAE?AVCSize@@HH@Z @ 1706 NONAME
 ?CalcFixedLayout@CStatusBar@@UAE?AVCSize@@HH@Z @ 1707 NONAME
 ?CalcFixedLayout@CToolBar@@UAE?AVCSize@@HH@Z @ 1708 NONAME
 ?CalcInsideRect@CControlBar@@UBEXAAVCRect@@H@Z @ 1709 NONAME
 ?CalcInsideRect@CStatusBar@@UBEXAAVCRect@@H@Z @ 1710 NONAME
 ?CalcLayout@CToolBar@@IAE?AVCSize@@KH@Z @ 1711 NONAME
 ?CalcMinimumItemHeight@CCheckListBox@@IAEHXZ @ 1712 NONAME
 ?CalcPageDisplaySize@CPreviewView@@IAE?AVCSize@@XZ @ 1713 NONAME
 ?CalcScaleRatio@CPreviewView@@MAE?AVCSize@@V2@0@Z @ 1714 NONAME
 ?CalcSize@CToolBar@@IAE?AVCSize@@PAU_TBBUTTON@@H@Z @ 1715 NONAME
 ?CalcWindowRect@CEditView@@MAEXPAUtagRECT@@I@Z @ 1716 NONAME
 ?CalcWindowRect@CScrollView@@UAEXPAUtagRECT@@I@Z @ 1717 NONAME
 ?CalcWindowRect@CView@@UAEXPAUtagRECT@@I@Z @ 1718 NONAME
 ?CalcWindowRect@CWnd@@UAEXPAUtagRECT@@I@Z @ 1719 NONAME
 ?CallMemberFunc@CCmdTarget@@IAEJPBUAFX_DISPMAP_ENTRY@@GPAUtagVARIANT@@PAUtagDISPPARAMS@@PAI@Z @ 1720 NONAME
 ?CanAccessExternal@CDHtmlDialog@@UAEHXZ @ 1721 NONAME
 ?CanActivate@COleClientItem@@MAEHXZ @ 1722 NONAME
 ?CanActivate@CRichEditCntrItem@@UAEHXZ @ 1723 NONAME
 ?CanActivateNext@CSplitterWnd@@UAEHH@Z @ 1724 NONAME
 ?CanAppend@CRecordset@@QBEHXZ @ 1725 NONAME
 ?CanBookmark@CRecordset@@QBEHXZ @ 1726 NONAME
 ?Cancel@CDatabase@@QAEXXZ @ 1727 NONAME
 ?Cancel@CRecordset@@QAEXXZ @ 1728 NONAME
 ?CancelBlockingCall@CSocket@@QAEXXZ @ 1729 NONAME
 ?CancelDrag@CDragListBox@@UAEXVCPoint@@@Z @ 1730 NONAME
 ?Cancelled@XNotifyDBEvents@COleControlSite@@UAGJKKQAUtagDBNOTIFYREASON@@@Z @ 1731 NONAME
 ?CancelLink@COleUILinkInfo@@UAGJK@Z @ 1732 NONAME
 ?CancelLoop@CDockContext@@QAEXXZ @ 1733 NONAME
 ?CancelToClose@CPropertyPage@@QAEXXZ @ 1734 NONAME
 ?CancelToolTips@CWnd@@SGXH@Z @ 1735 NONAME
 ?CancelUpdate@CRecordset@@QAEXXZ @ 1736 NONAME
 ?CanCloseFrame@CDocument@@UAEHPAVCFrameWnd@@@Z @ 1737 NONAME
 ?CanCloseFrame@COleServerDoc@@UAEHPAVCFrameWnd@@@Z @ 1738 NONAME
 ?CanCreateFromData@COleClientItem@@SGHPBVCOleDataObject@@@Z @ 1739 NONAME
 ?CanCreateLinkFromData@COleClientItem@@SGHPBVCOleDataObject@@@Z @ 1740 NONAME
 ?CanDock@CDockContext@@QAEKXZ @ 1741 NONAME
 ?CanDock@CFrameWnd@@QAEKVCRect@@KPAPAVCDockBar@@@Z @ 1742 NONAME
 ?CanEnterHelpMode@CFrameWnd@@QAEHXZ @ 1743 NONAME
 ?CanInPlaceActivate@XOleIPSite@COleClientItem@@UAGJXZ @ 1744 NONAME
 ?CanInPlaceActivate@XOleIPSite@COleControlSite@@UAGJXZ @ 1745 NONAME
 ?CanPaste@COleClientItem@@SGHXZ @ 1746 NONAME
 ?CanPaste@CRichEditCtrl@@QBEHI@Z @ 1747 NONAME
 ?CanPaste@CRichEditView@@QBEHXZ @ 1748 NONAME
 ?CanPasteLink@COleClientItem@@SGHXZ @ 1749 NONAME
 ?CanRedo@CRichEditCtrl@@QBEHXZ @ 1750 NONAME
 ?CanRestart@CRecordset@@QBEHXZ @ 1751 NONAME
 ?CanScroll@CRecordset@@QBEHXZ @ 1752 NONAME
 ?CanTransact@CDatabase@@QBEHXZ @ 1753 NONAME
 ?CanTransact@CRecordset@@QBEHXZ @ 1754 NONAME
 ?CanUndo@CEdit@@QBEHXZ @ 1755 NONAME
 ?CanUndo@CRichEditCtrl@@QBEHXZ @ 1756 NONAME
 ?CanUpdate@CDatabase@@QBEHXZ @ 1757 NONAME
 ?CanUpdate@CRecordset@@QBEHXZ @ 1758 NONAME
 ?CanWindowlessActivate@XOleIPSite@COleControlSite@@UAGJXZ @ 1759 NONAME
 ?CDHtmlSinkHandlerQueryInterface@CDHtmlEventSink@@UAGJABU_GUID@@PAPAX@Z @ 1760 NONAME
 ?CenterOnPoint@CScrollView@@IAEXVCPoint@@@Z @ 1761 NONAME
 ?CenterWindow@CWnd@@QAEXPAV1@@Z @ 1762 NONAME
 ?ChangeClipboardChain@CWnd@@QAEHPAUHWND__@@@Z @ 1763 NONAME
 ?ChangeType@COleVariant@@QAEXGPAUtagVARIANT@@@Z @ 1764 NONAME
 ?CharFromPos@CEdit@@QBEHVCPoint@@@Z @ 1765 NONAME
 ?CharFromPos@CRichEditCtrl@@QBEHVCPoint@@@Z @ 1766 NONAME
 ?CharToItem@CListBox@@UAEHII@Z @ 1767 NONAME
 ?Check@CDatabase@@UBEHF@Z @ 1768 NONAME
 ?Check@CRecordset@@UBEHF@Z @ 1769 NONAME
 ?CheckAutoCenter@CDialog@@UAEHXZ @ 1770 NONAME
 ?CheckAutoCenter@CWnd@@UAEHXZ @ 1771 NONAME
 ?CheckButton@CToolBarCtrl@@QAEHHH@Z @ 1772 NONAME
 ?CheckCount@CArchive@@QAEXXZ @ 1773 NONAME
 ?CheckDlgButton@COleControlContainer@@UAEXHI@Z @ 1774 NONAME
 ?CheckDlgButton@CWnd@@QAEXHI@Z @ 1775 NONAME
 ?CheckFromPoint@CCheckListBox@@IAEHVCPoint@@AAH@Z @ 1776 NONAME
 ?CheckGeneral@COleClientItem@@MAEXJ@Z @ 1777 NONAME
 ?CheckHstmt@CDatabase@@QBGHFPAX@Z @ 1778 NONAME
 ?CheckMenuItem@CMenu@@QAEIII@Z @ 1779 NONAME
 ?CheckMenuRadioItem@CMenu@@QAEHIIII@Z @ 1780 NONAME
 ?Checkpoint@CMemoryState@@QAEXXZ @ 1781 NONAME
 ?CheckRadioButton@COleControlContainer@@UAEXHHH@Z @ 1782 NONAME
 ?CheckRadioButton@CWnd@@QAEXHHH@Z @ 1783 NONAME
 ?CheckRowsetCurrencyStatus@CRecordset@@QAEXGJ@Z @ 1784 NONAME
 ?CheckRowsetError@CRecordset@@UAEXF@Z @ 1785 NONAME
 ?CheckScrollBars@CScrollView@@QBEXAAH0@Z @ 1786 NONAME
 ?ChildWindowFromPoint@CWnd@@QBEPAV1@UtagPOINT@@@Z @ 1787 NONAME
 ?ChildWindowFromPoint@CWnd@@QBEPAV1@UtagPOINT@@I@Z @ 1788 NONAME
 ?Chord@CDC@@QAEHHHHHHHHH@Z @ 1789 NONAME
 ?Chord@CDC@@QAEHPBUtagRECT@@UtagPOINT@@1@Z @ 1790 NONAME
 ?Cleanup@CPropertyPage@@IAEXXZ @ 1791 NONAME
 ?CleanupObjectArray@COlePropertyPage@@IAEXXZ @ 1792 NONAME
 ?Clear@CComboBox@@QAEXXZ @ 1793 NONAME
 ?Clear@CDBVariant@@QAEXXZ @ 1794 NONAME
 ?Clear@CDockState@@QAEXXZ @ 1795 NONAME
 ?Clear@CEdit@@QAEXXZ @ 1796 NONAME
 ?Clear@COleSafeArray@@QAEXXZ @ 1797 NONAME
 ?Clear@COleVariant@@QAEXXZ @ 1798 NONAME
 ?Clear@CRichEditCtrl@@QAEXXZ @ 1799 NONAME
 ?ClearAddress@CIPAddressCtrl@@QAEXXZ @ 1800 NONAME
 ?ClearAllFilters@CHeaderCtrl@@QAEHXZ @ 1801 NONAME
 ?ClearDirtyFieldStatus@CRecordset@@QAEXK@Z @ 1802 NONAME
 ?ClearFieldStatus@CRecordset@@QAEXXZ @ 1803 NONAME
 ?ClearFilter@CHeaderCtrl@@QAEHH@Z @ 1804 NONAME
 ?ClearNullFieldStatus@CRecordset@@QAEXK@Z @ 1805 NONAME
 ?ClearNullParamStatus@CRecordset@@QAEXK@Z @ 1806 NONAME
 ?ClearSel@CSliderCtrl@@QAEXH@Z @ 1807 NONAME
 ?ClearTics@CSliderCtrl@@QAEXH@Z @ 1808 NONAME
 ?ClientToParent@COleControl@@UBEXPBUtagRECT@@PAUtagPOINT@@@Z @ 1809 NONAME
 ?ClientToScreen@CWnd@@QBEXPAUtagPOINT@@@Z @ 1810 NONAME
 ?ClientToScreen@CWnd@@QBEXPAUtagRECT@@@Z @ 1811 NONAME
 ?ClipCaretRect@COleControl@@QAEHPAUtagRECT@@@Z @ 1812 NONAME
 ?ClipToPage@CPreviewDC@@QAEXXZ @ 1813 NONAME
 ?Clone@CAfxStringMgr@@UAEPAVIAtlStringMgr@ATL@@XZ @ 1814 NONAME
 ?Clone@CArchiveStream@@UAGJPAPAUIStream@@@Z @ 1815 NONAME
 ?Clone@XEnumVOID@CEnumArray@@UAGJPAPAUIEnumVOID@@@Z @ 1816 NONAME
 ?Clone@XOleDocumentView@CDocObjectServer@@UAGJPAUIOleInPlaceSite@@PAPAUIOleDocumentView@@@Z @ 1817 NONAME
 ?Close@CAnimateCtrl@@QAEHXZ @ 1818 NONAME
 ?Close@CArchive@@QAEXXZ @ 1819 NONAME
 ?Close@CAsyncMonikerFile@@UAEXXZ @ 1820 NONAME
 ?Close@CAsyncSocket@@UAEXXZ @ 1821 NONAME
 ?Close@CCachedDataPathProperty@@UAEXXZ @ 1822 NONAME
 ?Close@CDatabase@@UAEXXZ @ 1823 NONAME
 ?Close@CFile@@UAEXXZ @ 1824 NONAME
 ?Close@CFileFind@@QAEXXZ @ 1825 NONAME
 ?Close@CInternetConnection@@UAEXXZ @ 1826 NONAME
 ?Close@CInternetFile@@UAEXXZ @ 1827 NONAME
 ?Close@CInternetSession@@UAEXXZ @ 1828 NONAME
 ?Close@CMemFile@@UAEXXZ @ 1829 NONAME
 ?Close@CMetaFileDC@@QAEPAUHMETAFILE__@@XZ @ 1830 NONAME
 ?Close@CMirrorFile@@UAEXXZ @ 1831 NONAME
 ?Close@CMonikerFile@@UAEXXZ @ 1832 NONAME
 ?Close@COleClientItem@@QAEXW4tagOLECLOSE@@@Z @ 1833 NONAME
 ?Close@COleStreamFile@@UAEXXZ @ 1834 NONAME
 ?Close@CRecordset@@UAEXXZ @ 1835 NONAME
 ?Close@CSocket@@UAEXXZ @ 1836 NONAME
 ?Close@CSocketFile@@UAEXXZ @ 1837 NONAME
 ?Close@CStdioFile@@UAEXXZ @ 1838 NONAME
 ?Close@XOleObject@CDocObjectServer@@UAGJK@Z @ 1839 NONAME
 ?Close@XOleObject@COleControl@@UAGJK@Z @ 1840 NONAME
 ?Close@XOleObject@COleServerDoc@@UAGJK@Z @ 1841 NONAME
 ?Close@XOleObject@COleServerItem@@UAGJK@Z @ 1842 NONAME
 ?CloseAllDocuments@CDocManager@@UAEXH@Z @ 1843 NONAME
 ?CloseAllDocuments@CDocTemplate@@UAEXH@Z @ 1844 NONAME
 ?CloseAllDocuments@CWinApp@@QAEXH@Z @ 1845 NONAME
 ?CloseContext@CFileFind@@MAEXXZ @ 1846 NONAME
 ?CloseContext@CFtpFileFind@@MAEXXZ @ 1847 NONAME
 ?CloseContext@CGopherFileFind@@MAEXXZ @ 1848 NONAME
 ?CloseEnhanced@CMetaFileDC@@QAEPAUHENHMETAFILE__@@XZ @ 1849 NONAME
 ?CloseFigure@CDC@@QAEHXZ @ 1850 NONAME
 ?CloseView@XOleDocumentView@CDocObjectServer@@UAGJK@Z @ 1851 NONAME
 ?CloseWindow@CWnd@@QAEXXZ @ 1852 NONAME
 ?CombineRgn@CRgn@@QAEHPAV1@0H@Z @ 1853 NONAME
 ?Command@CFtpConnection@@QAEPAVCInternetFile@@PBGW4CmdResponseType@1@KK@Z @ 1854 NONAME
 ?CommandToIndex@CStatusBar@@QBEHI@Z @ 1855 NONAME
 ?CommandToIndex@CToolBar@@QBEHI@Z @ 1856 NONAME
 ?CommandToIndex@CToolBarCtrl@@QBEII@Z @ 1857 NONAME
 ?Commit@CArchiveStream@@UAGJK@Z @ 1858 NONAME
 ?CommitItem@COleClientItem@@UAEXH@Z @ 1859 NONAME
 ?CommitItems@COleDocument@@QAEXHPAUIStorage@@@Z @ 1860 NONAME
 ?CommitTrans@CDatabase@@QAEHXZ @ 1861 NONAME
 ?CommonConstruct@COleObjectFactory@@IAEXABU_GUID@@PAUCRuntimeClass@@HHPBG@Z @ 1862 NONAME
 ?CommonConstruct@CPropertyPage@@IAEXPBGI@Z @ 1863 NONAME
 ?CommonConstruct@CPropertyPage@@IAEXPBGIII@Z @ 1864 NONAME
 ?CommonConstruct@CPropertySheet@@QAEXPAVCWnd@@I@Z @ 1865 NONAME
 ?CommonConstruct@CPropertySheet@@QAEXPAVCWnd@@IPAUHBITMAP__@@PAUHPALETTE__@@1@Z @ 1866 NONAME
 ?CommonConstruct@CWinThread@@QAEXXZ @ 1867 NONAME
 ?CompareItem@CComboBox@@UAEHPAUtagCOMPAREITEMSTRUCT@@@Z @ 1868 NONAME
 ?CompareItem@CListBox@@UAEHPAUtagCOMPAREITEMSTRUCT@@@Z @ 1869 NONAME
 ?ComputeDeltas@CPreviewDC@@IAE?AVCSize@@AAHPBGAAIHIPAHHPAG30@Z @ 1870 NONAME
 ?Connect@CAsyncSocket@@QAEHPBGI@Z @ 1871 NONAME
 ?Connect@CAsyncSocket@@QAEHPBUsockaddr@@H@Z @ 1872 NONAME
 ?Connect@CDatabase@@IAEHK@Z @ 1873 NONAME
 ?ConnectDHtmlElementEvents@CDHtmlDialog@@IAEJK@Z @ 1874 NONAME
 ?ConnectDHtmlEvents@CDHtmlDialog@@IAEJPAUIUnknown@@@Z @ 1875 NONAME
 ?ConnectHelper@CAsyncSocket@@MAEHPBUsockaddr@@H@Z @ 1876 NONAME
 ?ConnectHelper@CSocket@@MAEHPBUsockaddr@@H@Z @ 1877 NONAME
 ?ConnectSink@COleControlSite@@IAEKABU_GUID@@PAUIUnknown@@@Z @ 1878 NONAME
 ?ConnectTemplate@COleTemplateServer@@QAEXABU_GUID@@PAVCDocTemplate@@H@Z @ 1879 NONAME
 ?ConnectToConnectionPoint@CDHtmlEventSink@@QAEJPAUIUnknown@@ABU_GUID@@PAK@Z @ 1880 NONAME
 ?ConnectToControl@CDHtmlControlSink@@QAEJPAUIUnknown@@@Z @ 1881 NONAME
 ?ConnectView@COleServerDoc@@IAEXPAVCWnd@@PAVCView@@@Z @ 1882 NONAME
 ?Construct@CPropertyPage@@QAEXII@Z @ 1883 NONAME
 ?Construct@CPropertyPage@@QAEXIIII@Z @ 1884 NONAME
 ?Construct@CPropertyPage@@QAEXPBGI@Z @ 1885 NONAME
 ?Construct@CPropertyPage@@QAEXPBGIII@Z @ 1886 NONAME
 ?Construct@CPropertySheet@@QAEXIPAVCWnd@@I@Z @ 1887 NONAME
 ?Construct@CPropertySheet@@QAEXIPAVCWnd@@IPAUHBITMAP__@@PAUHPALETTE__@@1@Z @ 1888 NONAME
 ?Construct@CPropertySheet@@QAEXPBGPAVCWnd@@I@Z @ 1889 NONAME
 ?Construct@CPropertySheet@@QAEXPBGPAVCWnd@@IPAUHBITMAP__@@PAUHPALETTE__@@2@Z @ 1890 NONAME
 ?Construct@CRectTracker@@IAEXXZ @ 1891 NONAME
 ?ContextSensitiveHelp@XOleInPlaceActiveObject@COleControl@@UAGJH@Z @ 1892 NONAME
 ?ContextSensitiveHelp@XOleInPlaceActiveObject@COleServerDoc@@UAGJH@Z @ 1893 NONAME
 ?ContextSensitiveHelp@XOleInPlaceFrame@COleFrameHook@@UAGJH@Z @ 1894 NONAME
 ?ContextSensitiveHelp@XOleInPlaceObject@COleControl@@UAGJH@Z @ 1895 NONAME
 ?ContextSensitiveHelp@XOleInPlaceObject@COleServerDoc@@UAGJH@Z @ 1896 NONAME
 ?ContextSensitiveHelp@XOleIPFrame@COleControlContainer@@UAGJH@Z @ 1897 NONAME
 ?ContextSensitiveHelp@XOleIPSite@COleClientItem@@UAGJH@Z @ 1898 NONAME
 ?ContextSensitiveHelp@XOleIPSite@COleControlSite@@UAGJH@Z @ 1899 NONAME
 ?ContextSensitiveHelp@XRichEditOleCallback@CRichEditView@@UAGJH@Z @ 1900 NONAME
 ?ContinueModal@CPropertySheet@@UAEHXZ @ 1901 NONAME
 ?ContinueModal@CWnd@@UAEHXZ @ 1902 NONAME
 ?ContinueRouting@CCmdUI@@QAEXXZ @ 1903 NONAME
 ?ControlInfoChanged@COleControl@@QAEXXZ @ 1904 NONAME
 ?ConvertObject@XOleUIObjInfo@COlePropertiesDialog@@UAGJKABU_GUID@@@Z @ 1905 NONAME
 ?ConvertTo@COleClientItem@@UAEHABU_GUID@@@Z @ 1906 NONAME
 ?ConvertTo@CRichEditCntrItem@@UAEHABU_GUID@@@Z @ 1907 NONAME
 ?Copy@CByteArray@@QAEXABV1@@Z @ 1908 NONAME
 ?Copy@CComboBox@@QAEXXZ @ 1909 NONAME
 ?Copy@CDWordArray@@QAEXABV1@@Z @ 1910 NONAME
 ?Copy@CEdit@@QAEXXZ @ 1911 NONAME
 ?Copy@CImageList@@QAEHHHI@Z @ 1912 NONAME
 ?Copy@CImageList@@QAEHHPAV1@HI@Z @ 1913 NONAME
 ?Copy@CObArray@@QAEXABV1@@Z @ 1914 NONAME
 ?Copy@COleSafeArray@@QAEXPAPAUtagSAFEARRAY@@@Z @ 1915 NONAME
 ?Copy@CPtrArray@@QAEXABV1@@Z @ 1916 NONAME
 ?Copy@CRichEditCtrl@@QAEXXZ @ 1917 NONAME
 ?Copy@CStringArray@@QAEXABV1@@Z @ 1918 NONAME
 ?Copy@CUIntArray@@QAEXABV1@@Z @ 1919 NONAME
 ?Copy@CWordArray@@QAEXABV1@@Z @ 1920 NONAME
 ?CopyColumnID@CDataSourceControl@@QAEHPAUtagDBCOLUMNID@@PBU2@@Z @ 1921 NONAME
 ?CopyElements@@YGXPAVCOleVariant@@PBV1@H@Z @ 1922 NONAME
 ?CopyRgn@CRgn@@QAEHPAV1@@Z @ 1923 NONAME
 ?CopyTo@CArchiveStream@@UAGJPAUIStream@@T_ULARGE_INTEGER@@PAT3@2@Z @ 1924 NONAME
 ?CopyToClipboard@COleClientItem@@QAEXH@Z @ 1925 NONAME
 ?CopyToClipboard@COleServerItem@@QAEXH@Z @ 1926 NONAME
 ?Create@CAnimateCtrl@@UAEHKABUtagRECT@@PAVCWnd@@I@Z @ 1927 NONAME
 ?Create@CAsyncSocket@@QAEHIHJPBG@Z @ 1928 NONAME
 ?Create@CButton@@UAEHPBGKABUtagRECT@@PAVCWnd@@I@Z @ 1929 NONAME
 ?Create@CCheckListBox@@UAEHKABUtagRECT@@PAVCWnd@@I@Z @ 1930 NONAME
 ?Create@CComboBox@@UAEHKABUtagRECT@@PAVCWnd@@I@Z @ 1931 NONAME
 ?Create@CComboBoxEx@@UAEHKABUtagRECT@@PAVCWnd@@I@Z @ 1932 NONAME
 ?Create@CControlFrameWnd@@UAEHPBG@Z @ 1933 NONAME
 ?Create@CDateTimeCtrl@@UAEHKABUtagRECT@@PAVCWnd@@I@Z @ 1934 NONAME
 ?Create@CDialog@@UAEHIPAVCWnd@@@Z @ 1935 NONAME
 ?Create@CDialog@@UAEHPBGPAVCWnd@@@Z @ 1936 NONAME
 ?Create@CDialogBar@@UAEHPAVCWnd@@III@Z @ 1937 NONAME
 ?Create@CDialogBar@@UAEHPAVCWnd@@PBGII@Z @ 1938 NONAME
 ?Create@CDockBar@@UAEHPAVCWnd@@KI@Z @ 1939 NONAME
 ?Create@CEdit@@UAEHKABUtagRECT@@PAVCWnd@@I@Z @ 1940 NONAME
 ?Create@CFindReplaceDialog@@UAEHHPBG0KPAVCWnd@@@Z @ 1941 NONAME
 ?Create@CFormView@@MAEHPBG0KABUtagRECT@@PAVCWnd@@IPAUCCreateContext@@@Z @ 1942 NONAME
 ?Create@CFrameWnd@@UAEHPBG0KABUtagRECT@@PAVCWnd@@0KPAUCCreateContext@@@Z @ 1943 NONAME
 ?Create@CHeaderCtrl@@UAEHKABUtagRECT@@PAVCWnd@@I@Z @ 1944 NONAME
 ?Create@CHotKeyCtrl@@UAEHKABUtagRECT@@PAVCWnd@@I@Z @ 1945 NONAME
 ?Create@CHtmlEditCtrl@@UAEHPBGKABUtagRECT@@PAVCWnd@@IPAUCCreateContext@@@Z @ 1946 NONAME
 ?Create@CHtmlEditView@@MAEHPBG0KABUtagRECT@@PAVCWnd@@IPAUCCreateContext@@@Z @ 1947 NONAME
 ?Create@CHtmlView@@UAEHPBG0KABUtagRECT@@PAVCWnd@@IPAUCCreateContext@@@Z @ 1948 NONAME
 ?Create@CImageList@@QAEHAAV1@H0HHH@Z @ 1949 NONAME
 ?Create@CImageList@@QAEHHHIHH@Z @ 1950 NONAME
 ?Create@CImageList@@QAEHIHHK@Z @ 1951 NONAME
 ?Create@CImageList@@QAEHPAV1@@Z @ 1952 NONAME
 ?Create@CImageList@@QAEHPBGHHK@Z @ 1953 NONAME
 ?Create@CIPAddressCtrl@@UAEHKABUtagRECT@@PAVCWnd@@I@Z @ 1954 NONAME
 ?Create@CListBox@@UAEHKABUtagRECT@@PAVCWnd@@I@Z @ 1955 NONAME
 ?Create@CListCtrl@@UAEHKABUtagRECT@@PAVCWnd@@I@Z @ 1956 NONAME
 ?Create@CMDIChildWnd@@UAEHPBG0KABUtagRECT@@PAVCMDIFrameWnd@@PAUCCreateContext@@@Z @ 1957 NONAME
 ?Create@CMetaFileDC@@QAEHPBG@Z @ 1958 NONAME
 ?Create@CMiniDockFrameWnd@@UAEHPAVCWnd@@K@Z @ 1959 NONAME
 ?Create@CMiniFrameWnd@@UAEHPBG0KABUtagRECT@@PAVCWnd@@I@Z @ 1960 NONAME
 ?Create@CMonthCalCtrl@@UAEHKABUtagPOINT@@PAVCWnd@@I@Z @ 1961 NONAME
 ?Create@CMonthCalCtrl@@UAEHKABUtagRECT@@PAVCWnd@@I@Z @ 1962 NONAME
 ?Create@COleResizeBar@@UAEHPAVCWnd@@KI@Z @ 1963 NONAME
 ?Create@COleSafeArray@@QAEXGKPAK@Z @ 1964 NONAME
 ?Create@COleSafeArray@@QAEXGKPAUtagSAFEARRAYBOUND@@@Z @ 1965 NONAME
 ?Create@CPlex@@SGPAU1@AAPAU1@II@Z @ 1966 NONAME
 ?Create@CProgressCtrl@@UAEHKABUtagRECT@@PAVCWnd@@I@Z @ 1967 NONAME
 ?Create@CPropertySheet@@UAEHPAVCWnd@@KK@Z @ 1968 NONAME
 ?Create@CReBar@@UAEHPAVCWnd@@KKI@Z @ 1969 NONAME
 ?Create@CReBarCtrl@@UAEHKABUtagRECT@@PAVCWnd@@I@Z @ 1970 NONAME
 ?Create@CReflectorWnd@@QAEHABVCRect@@PAUHWND__@@@Z @ 1971 NONAME
 ?Create@CRichEditCtrl@@UAEHKABUtagRECT@@PAVCWnd@@I@Z @ 1972 NONAME
 ?Create@CScrollBar@@UAEHKABUtagRECT@@PAVCWnd@@I@Z @ 1973 NONAME
 ?Create@CSliderCtrl@@UAEHKABUtagRECT@@PAVCWnd@@I@Z @ 1974 NONAME
 ?Create@CSocket@@QAEHIHPBG@Z @ 1975 NONAME
 ?Create@CSpinButtonCtrl@@UAEHKABUtagRECT@@PAVCWnd@@I@Z @ 1976 NONAME
 ?Create@CSplitterWnd@@UAEHPAVCWnd@@HHUtagSIZE@@PAUCCreateContext@@KI@Z @ 1977 NONAME
 ?Create@CStatic@@UAEHPBGKABUtagRECT@@PAVCWnd@@I@Z @ 1978 NONAME
 ?Create@CStatusBar@@UAEHPAVCWnd@@KI@Z @ 1979 NONAME
 ?Create@CStatusBarCtrl@@UAEHKABUtagRECT@@PAVCWnd@@I@Z @ 1980 NONAME
 ?Create@CTabCtrl@@UAEHKABUtagRECT@@PAVCWnd@@I@Z @ 1981 NONAME
 ?Create@CToolBar@@UAEHPAVCWnd@@KI@Z @ 1982 NONAME
 ?Create@CToolBarCtrl@@UAEHKABUtagRECT@@PAVCWnd@@I@Z @ 1983 NONAME
 ?Create@CToolTipCtrl@@UAEHPAVCWnd@@K@Z @ 1984 NONAME
 ?Create@CTreeCtrl@@UAEHKABUtagRECT@@PAVCWnd@@I@Z @ 1985 NONAME
 ?Create@CWnd@@UAEHPBG0KABUtagRECT@@PAV1@IPAUCCreateContext@@@Z @ 1986 NONAME
 ?CreateAccessibleProxy@CWnd@@UAEJIJPAJ@Z @ 1987 NONAME
 ?CreateBindContext@CMonikerFile@@IAEPAUIBindCtx@@PAVCFileException@@@Z @ 1988 NONAME
 ?CreateBindHost@CMonikerFile@@KAPAUIBindHost@@XZ @ 1989 NONAME
 ?CreateBindStatusCallback@CAsyncMonikerFile@@MAEPAUIUnknown@@PAU2@@Z @ 1990 NONAME
 ?CreateBitmap@CBitmap@@QAEHHHIIPBX@Z @ 1991 NONAME
 ?CreateBitmapIndirect@CBitmap@@QAEHPAUtagBITMAP@@@Z @ 1992 NONAME
 ?CreateBrushIndirect@CBrush@@QAEHPBUtagLOGBRUSH@@@Z @ 1993 NONAME
 ?CreateCaret@CWnd@@QAEXPAVCBitmap@@@Z @ 1994 NONAME
 ?CreateClient@CMDIFrameWnd@@UAEHPAUtagCREATESTRUCTW@@PAVCMenu@@@Z @ 1995 NONAME
 ?CreateClientItem@CRichEditDoc@@UBEPAVCRichEditCntrItem@@PAU_reobject@@@Z @ 1996 NONAME
 ?CreateCloneFrom@COleClientItem@@QAEHPBV1@@Z @ 1997 NONAME
 ?CreateCommon@CSplitterWnd@@IAEHPAVCWnd@@UtagSIZE@@KI@Z @ 1998 NONAME
 ?CreateCompatibleBitmap@CBitmap@@QAEHPAVCDC@@HH@Z @ 1999 NONAME
 ?CreateCompatibleDC@CDC@@QAEHPAV1@@Z @ 2000 NONAME
 ?CreateConnectionArray@CConnectionPoint@@QAEXXZ @ 2001 NONAME
 ?CreateContainer@COccManager@@UAEPAVCOleControlContainer@@PAVCWnd@@@Z @ 2002 NONAME
 ?CreateControl@COleControlContainer@@QAEHPAVCWnd@@ABU_GUID@@PBGKABUtagRECT@@IPAVCFile@@HPAGPAPAVCOleControlSite@@@Z @ 2003 NONAME
 ?CreateControl@COleControlContainer@@QAEHPAVCWnd@@ABU_GUID@@PBGKPBUtagPOINT@@PBUtagSIZE@@IPAVCFile@@HPAGPAPAVCOleControlSite@@@Z @ 2004 NONAME
 ?CreateControl@COleControlSite@@UAEJPAVCWnd@@ABU_GUID@@PBGKABUtagRECT@@IPAVCFile@@HPAG@Z @ 2005 NONAME
 ?CreateControl@COleControlSite@@UAEJPAVCWnd@@ABU_GUID@@PBGKPBUtagPOINT@@PBUtagSIZE@@IPAVCFile@@HPAG@Z @ 2006 NONAME
 ?CreateControl@CWnd@@QAEHABU_GUID@@PBGKABUtagRECT@@PAV1@IPAVCFile@@HPAG@Z @ 2007 NONAME
 ?CreateControl@CWnd@@QAEHABU_GUID@@PBGKPBUtagPOINT@@PBUtagSIZE@@PAV1@IPAVCFile@@HPAG@Z @ 2008 NONAME
 ?CreateControl@CWnd@@QAEHPBG0KABUtagRECT@@PAV1@IPAVCFile@@HPAG@Z @ 2009 NONAME
 ?CreateControlContainer@CWnd@@MAEHPAPAVCOleControlContainer@@@Z @ 2010 NONAME
 ?CreateControlSite@CDHtmlDialog@@UAEHPAVCOleControlContainer@@PAPAVCOleControlSite@@IABU_GUID@@@Z @ 2011 NONAME
 ?CreateControlSite@CHtmlView@@UAEHPAVCOleControlContainer@@PAPAVCOleControlSite@@IABU_GUID@@@Z @ 2012 NONAME
 ?CreateControlSite@CWnd@@MAEHPAVCOleControlContainer@@PAPAVCOleControlSite@@IABU_GUID@@@Z @ 2013 NONAME
 ?CreateControlWindow@COleControl@@MAEHPAUHWND__@@ABVCRect@@PBUtagRECT@@@Z @ 2014 NONAME
 ?CreateDCW@CDC@@QAEHPBG00PBX@Z @ 2015 NONAME
 ?CreateDIBPatternBrush@CBrush@@QAEHPAXI@Z @ 2016 NONAME
 ?CreateDIBPatternBrush@CBrush@@QAEHPBXI@Z @ 2017 NONAME
 ?CreateDirectoryW@CFtpConnection@@QAEHPBG@Z @ 2018 NONAME
 ?CreateDiscardableBitmap@CBitmap@@QAEHPAVCDC@@HH@Z @ 2019 NONAME
 ?CreateDispatch@COleDispatchDriver@@QAEHABU_GUID@@PAVCOleException@@@Z @ 2020 NONAME
 ?CreateDispatch@COleDispatchDriver@@QAEHPBGPAVCOleException@@@Z @ 2021 NONAME
 ?CreateDlg@CWnd@@IAEHPBGPAV1@@Z @ 2022 NONAME
 ?CreateDlgControl@COccManager@@IAEHPAVCWnd@@PAUHWND__@@HPAUDLGITEMTEMPLATE@@GPAEKPAPAU3@@Z @ 2023 NONAME
 ?CreateDlgControls@COccManager@@UAEHPAVCWnd@@PAXPAU_AFX_OCC_DIALOG_INFO@@@Z @ 2024 NONAME
 ?CreateDlgControls@COccManager@@UAEHPAVCWnd@@PBGPAU_AFX_OCC_DIALOG_INFO@@@Z @ 2025 NONAME
 ?CreateDlgIndirect@CWnd@@IAEHPBUDLGTEMPLATE@@PAV1@@Z @ 2026 NONAME
 ?CreateDragImage@CHeaderCtrl@@QAEPAVCImageList@@H@Z @ 2027 NONAME
 ?CreateDragImage@CListCtrl@@QAEPAVCImageList@@HPAUtagPOINT@@@Z @ 2028 NONAME
 ?CreateDragImage@CTreeCtrl@@QAEPAVCImageList@@PAU_TREEITEM@@@Z @ 2029 NONAME
 ?CreateEllipticRgn@CRgn@@QAEHHHHH@Z @ 2030 NONAME
 ?CreateEllipticRgnIndirect@CRgn@@QAEHPBUtagRECT@@@Z @ 2031 NONAME
 ?CreateEmpty@CPictureHolder@@QAEHXZ @ 2032 NONAME
 ?CreateEnhanced@CMetaFileDC@@QAEHPAVCDC@@PBGPBUtagRECT@@1@Z @ 2033 NONAME
 ?CreateEx@CAnimateCtrl@@UAEHKKABUtagRECT@@PAVCWnd@@I@Z @ 2034 NONAME
 ?CreateEx@CComboBoxEx@@UAEHKKABUtagRECT@@PAVCWnd@@I@Z @ 2035 NONAME
 ?CreateEx@CHeaderCtrl@@UAEHKKABUtagRECT@@PAVCWnd@@I@Z @ 2036 NONAME
 ?CreateEx@CHotKeyCtrl@@UAEHKKABUtagRECT@@PAVCWnd@@I@Z @ 2037 NONAME
 ?CreateEx@CIPAddressCtrl@@UAEHKKABUtagRECT@@PAVCWnd@@I@Z @ 2038 NONAME
 ?CreateEx@CListCtrl@@UAEHKKABUtagRECT@@PAVCWnd@@I@Z @ 2039 NONAME
 ?CreateEx@CMiniFrameWnd@@UAEHKPBG0KABUtagRECT@@PAVCWnd@@I@Z @ 2040 NONAME
 ?CreateEx@CProgressCtrl@@UAEHKKABUtagRECT@@PAVCWnd@@I@Z @ 2041 NONAME
 ?CreateEx@CReBarCtrl@@UAEHKKABUtagRECT@@PAVCWnd@@I@Z @ 2042 NONAME
 ?CreateEx@CRichEditCtrl@@UAEHKKABUtagRECT@@PAVCWnd@@I@Z @ 2043 NONAME
 ?CreateEx@CSliderCtrl@@UAEHKKABUtagRECT@@PAVCWnd@@I@Z @ 2044 NONAME
 ?CreateEx@CSpinButtonCtrl@@UAEHKKABUtagRECT@@PAVCWnd@@I@Z @ 2045 NONAME
 ?CreateEx@CStatusBar@@UAEHPAVCWnd@@KKI@Z @ 2046 NONAME
 ?CreateEx@CStatusBarCtrl@@UAEHKKABUtagRECT@@PAVCWnd@@I@Z @ 2047 NONAME
 ?CreateEx@CTabCtrl@@UAEHKKABUtagRECT@@PAVCWnd@@I@Z @ 2048 NONAME
 ?CreateEx@CToolBar@@UAEHPAVCWnd@@KKVCRect@@I@Z @ 2049 NONAME
 ?CreateEx@CToolBarCtrl@@UAEHKKABUtagRECT@@PAVCWnd@@I@Z @ 2050 NONAME
 ?CreateEx@CToolTipCtrl@@UAEHPAVCWnd@@KK@Z @ 2051 NONAME
 ?CreateEx@CTreeCtrl@@UAEHKKABUtagRECT@@PAVCWnd@@I@Z @ 2052 NONAME
 ?CreateEx@CWnd@@UAEHKPBG0KABUtagRECT@@PAV1@IPAX@Z @ 2053 NONAME
 ?CreateEx@CWnd@@UAEHKPBG0KHHHHPAUHWND__@@PAUHMENU__@@PAX@Z @ 2054 NONAME
 ?CreateFloatingFrame@CFrameWnd@@QAEPAVCMiniDockFrameWnd@@K@Z @ 2055 NONAME
 ?CreateFontIndirectW@CFont@@QAEHPBUtagLOGFONTW@@@Z @ 2056 NONAME
 ?CreateFontW@CFont@@QAEHHHHHHEEEEEEEEPBG@Z @ 2057 NONAME
 ?CreateFrameWindow@COleControl@@MAEPAVCControlFrameWnd@@XZ @ 2058 NONAME
 ?CreateFromBitmap@CPictureHolder@@QAEHI@Z @ 2059 NONAME
 ?CreateFromBitmap@CPictureHolder@@QAEHPAUHBITMAP__@@PAUHPALETTE__@@H@Z @ 2060 NONAME
 ?CreateFromBitmap@CPictureHolder@@QAEHPAVCBitmap@@PAVCPalette@@H@Z @ 2061 NONAME
 ?CreateFromClipboard@COleClientItem@@QAEHW4tagOLERENDER@@GPAUtagFORMATETC@@@Z @ 2062 NONAME
 ?CreateFromData@COleClientItem@@QAEHPAVCOleDataObject@@W4tagOLERENDER@@GPAUtagFORMATETC@@@Z @ 2063 NONAME
 ?CreateFromData@CRgn@@QAEHPBUtagXFORM@@HPBU_RGNDATA@@@Z @ 2064 NONAME
 ?CreateFromFile@COleClientItem@@QAEHPBGABU_GUID@@W4tagOLERENDER@@GPAUtagFORMATETC@@@Z @ 2065 NONAME
 ?CreateFromIcon@CPictureHolder@@QAEHI@Z @ 2066 NONAME
 ?CreateFromIcon@CPictureHolder@@QAEHPAUHICON__@@H@Z @ 2067 NONAME
 ?CreateFromMetafile@CPictureHolder@@QAEHPAUHMETAFILE__@@HHH@Z @ 2068 NONAME
 ?CreateFromPath@CRgn@@QAEHPAVCDC@@@Z @ 2069 NONAME
 ?CreateGrayCaret@CWnd@@QAEXHH@Z @ 2070 NONAME
 ?CreateHalftonePalette@CPalette@@QAEHPAVCDC@@@Z @ 2071 NONAME
 ?CreateHatchBrush@CBrush@@QAEHHK@Z @ 2072 NONAME
 ?CreateICW@CDC@@QAEHPBG00PBX@Z @ 2073 NONAME
 ?CreateIndirect@CDialog@@UAEHPAXPAVCWnd@@@Z @ 2074 NONAME
 ?CreateIndirect@CDialog@@UAEHPBUDLGTEMPLATE@@PAVCWnd@@PAX@Z @ 2075 NONAME
 ?CreateInPlaceFrame@COleServerDoc@@MAEPAVCOleIPFrameWnd@@PAVCWnd@@@Z @ 2076 NONAME
 ?CreateInstance@AFX_COM@@QAEJABU_GUID@@PAUIUnknown@@0PAPAX@Z @ 2077 NONAME
 ?CreateInstance@XClassFactory@COleObjectFactory@@UAGJPAUIUnknown@@ABU_GUID@@PAPAX@Z @ 2078 NONAME
 ?CreateInstanceLic@XClassFactory@COleObjectFactory@@UAGJPAUIUnknown@@0ABU_GUID@@PAGPAPAX@Z @ 2079 NONAME
 ?CreateItem@COleInsertDialog@@QAEHPAVCOleClientItem@@@Z @ 2080 NONAME
 ?CreateItem@COlePasteSpecialDialog@@QAEHPAVCOleClientItem@@@Z @ 2081 NONAME
 ?CreateLinkFromClipboard@COleClientItem@@QAEHW4tagOLERENDER@@GPAUtagFORMATETC@@@Z @ 2082 NONAME
 ?CreateLinkFromData@COleClientItem@@QAEHPAVCOleDataObject@@W4tagOLERENDER@@GPAUtagFORMATETC@@@Z @ 2083 NONAME
 ?CreateLinkFromFile@COleClientItem@@QAEHPBGW4tagOLERENDER@@GPAUtagFORMATETC@@@Z @ 2084 NONAME
 ?CreateLocator@CGopherConnection@@QAE?AVCGopherLocator@@PBG0K@Z @ 2085 NONAME
 ?CreateLocator@CGopherConnection@@SA?AVCGopherLocator@@PBG@Z @ 2086 NONAME
 ?CreateLocator@CGopherConnection@@SA?AVCGopherLocator@@PBG00KG@Z @ 2087 NONAME
 ?CreateMemoryStream@COleStreamFile@@QAEHPAVCFileException@@@Z @ 2088 NONAME
 ?CreateMenu@CMenu@@QAEHXZ @ 2089 NONAME
 ?CreateNewChild@CMDIFrameWnd@@QAEPAVCMDIChildWnd@@PAUCRuntimeClass@@IPAUHMENU__@@PAUHACCEL__@@@Z @ 2090 NONAME
 ?CreateNewDocument@CDocTemplate@@UAEPAVCDocument@@XZ @ 2091 NONAME
 ?CreateNewFrame@CDocTemplate@@UAEPAVCFrameWnd@@PAVCDocument@@PAV2@@Z @ 2092 NONAME
 ?CreateNewItem@COleClientItem@@QAEHABU_GUID@@W4tagOLERENDER@@GPAUtagFORMATETC@@@Z @ 2093 NONAME
 ?CreateObject@CByteArray@@SGPAVCObject@@XZ @ 2094 NONAME
 ?CreateObject@CDC@@SGPAVCObject@@XZ @ 2095 NONAME
 ?CreateObject@CDocItem@@SGPAVCObject@@XZ @ 2096 NONAME
 ?CreateObject@CDockState@@SGPAVCObject@@XZ @ 2097 NONAME
 ?CreateObject@CDWordArray@@SGPAVCObject@@XZ @ 2098 NONAME
 ?CreateObject@CEditView@@SGPAVCObject@@XZ @ 2099 NONAME
 ?CreateObject@CFrameWnd@@SGPAVCObject@@XZ @ 2100 NONAME
 ?CreateObject@CGdiObject@@SGPAVCObject@@XZ @ 2101 NONAME
 ?CreateObject@CHtmlEditView@@SGPAVCObject@@XZ @ 2102 NONAME
 ?CreateObject@CHtmlView@@SGPAVCObject@@XZ @ 2103 NONAME
 ?CreateObject@CImageList@@SGPAVCObject@@XZ @ 2104 NONAME
 ?CreateObject@CListView@@SGPAVCObject@@XZ @ 2105 NONAME
 ?CreateObject@CMapStringToOb@@SGPAVCObject@@XZ @ 2106 NONAME
 ?CreateObject@CMapStringToString@@SGPAVCObject@@XZ @ 2107 NONAME
 ?CreateObject@CMapWordToOb@@SGPAVCObject@@XZ @ 2108 NONAME
 ?CreateObject@CMDIChildWnd@@SGPAVCObject@@XZ @ 2109 NONAME
 ?CreateObject@CMDIFrameWnd@@SGPAVCObject@@XZ @ 2110 NONAME
 ?CreateObject@CMenu@@SGPAVCObject@@XZ @ 2111 NONAME
 ?CreateObject@CMiniDockFrameWnd@@SGPAVCObject@@XZ @ 2112 NONAME
 ?CreateObject@CMiniFrameWnd@@SGPAVCObject@@XZ @ 2113 NONAME
 ?CreateObject@CObArray@@SGPAVCObject@@XZ @ 2114 NONAME
 ?CreateObject@CObList@@SGPAVCObject@@XZ @ 2115 NONAME
 ?CreateObject@COleDocIPFrameWnd@@SGPAVCObject@@XZ @ 2116 NONAME
 ?CreateObject@COleIPFrameWnd@@SGPAVCObject@@XZ @ 2117 NONAME
 ?CreateObject@CPreviewView@@SGPAVCObject@@XZ @ 2118 NONAME
 ?CreateObject@CRichEditCntrItem@@SGPAVCObject@@XZ @ 2119 NONAME
 ?CreateObject@CRichEditView@@SGPAVCObject@@XZ @ 2120 NONAME
 ?CreateObject@CRuntimeClass@@QAEPAVCObject@@XZ @ 2121 NONAME
 ?CreateObject@CRuntimeClass@@SGPAVCObject@@PBD@Z @ 2122 NONAME
 ?CreateObject@CRuntimeClass@@SGPAVCObject@@PBG@Z @ 2123 NONAME
 ?CreateObject@CStringArray@@SGPAVCObject@@XZ @ 2124 NONAME
 ?CreateObject@CStringList@@SGPAVCObject@@XZ @ 2125 NONAME
 ?CreateObject@CTreeView@@SGPAVCObject@@XZ @ 2126 NONAME
 ?CreateObject@CWnd@@SGPAVCObject@@XZ @ 2127 NONAME
 ?CreateObject@CWordArray@@SGPAVCObject@@XZ @ 2128 NONAME
 ?CreateOleFont@COleControlContainer@@QAEXPAVCFont@@@Z @ 2129 NONAME
 ?CreateOleFrame@CDocTemplate@@QAEPAVCFrameWnd@@PAVCWnd@@PAVCDocument@@H@Z @ 2130 NONAME
 ?CreateOneDim@COleSafeArray@@QAEXGKPBXJ@Z @ 2131 NONAME
 ?CreateOrLoad@COleControlSite@@IAEJABU_GUID@@PAVCFile@@HPAG@Z @ 2132 NONAME
 ?CreatePalette@CPalette@@QAEHPAUtagLOGPALETTE@@@Z @ 2133 NONAME
 ?CreatePatternBrush@CBrush@@QAEHPAVCBitmap@@@Z @ 2134 NONAME
 ?CreatePen@CPen@@QAEHHHK@Z @ 2135 NONAME
 ?CreatePen@CPen@@QAEHHHPBUtagLOGBRUSH@@HPBK@Z @ 2136 NONAME
 ?CreatePenIndirect@CPen@@QAEHPAUtagLOGPEN@@@Z @ 2137 NONAME
 ?CreatePointFont@CFont@@QAEHHPBGPAVCDC@@@Z @ 2138 NONAME
 ?CreatePointFontIndirect@CFont@@QAEHPBUtagLOGFONTW@@PAVCDC@@@Z @ 2139 NONAME
 ?CreatePolygonRgn@CRgn@@QAEHPAUtagPOINT@@HH@Z @ 2140 NONAME
 ?CreatePolyPolygonRgn@CRgn@@QAEHPAUtagPOINT@@PAHHH@Z @ 2141 NONAME
 ?CreatePopupMenu@CMenu@@QAEHXZ @ 2142 NONAME
 ?CreatePrinterDC@CPageSetupDialog@@QAEPAUHDC__@@XZ @ 2143 NONAME
 ?CreatePrinterDC@CPrintDialog@@QAEPAUHDC__@@XZ @ 2144 NONAME
 ?CreatePrinterDC@CPrintDialogEx@@QAEPAUHDC__@@XZ @ 2145 NONAME
 ?CreatePrinterDC@CWinApp@@QAEHAAVCDC@@@Z @ 2146 NONAME
 ?CreateRectRgn@CRgn@@QAEHHHHH@Z @ 2147 NONAME
 ?CreateRectRgnIndirect@CRgn@@QAEHPBUtagRECT@@@Z @ 2148 NONAME
 ?CreateRoundRectRgn@CRgn@@QAEHHHHHHH@Z @ 2149 NONAME
 ?CreateScrollBarCtrl@CSplitterWnd@@UAEHKI@Z @ 2150 NONAME
 ?CreateSite@COccManager@@UAEPAVCOleControlSite@@PAVCOleControlContainer@@@Z @ 2151 NONAME
 ?CreateSolidBrush@CBrush@@QAEHK@Z @ 2152 NONAME
 ?CreateSolidCaret@CWnd@@QAEXHH@Z @ 2153 NONAME
 ?CreateStatic@CSplitterWnd@@UAEHPAVCWnd@@HHKI@Z @ 2154 NONAME
 ?CreateStaticFromClipboard@COleClientItem@@QAEHW4tagOLERENDER@@GPAUtagFORMATETC@@@Z @ 2155 NONAME
 ?CreateStaticFromData@COleClientItem@@QAEHPAVCOleDataObject@@W4tagOLERENDER@@GPAUtagFORMATETC@@@Z @ 2156 NONAME
 ?CreateStockObject@CGdiObject@@QAEHH@Z @ 2157 NONAME
 ?CreateStream@COleStreamFile@@QAEHPAUIStorage@@PBGKPAVCFileException@@@Z @ 2158 NONAME
 ?CreateSysColorBrush@CBrush@@QAEHH@Z @ 2159 NONAME
 ?CreateThread@CWinThread@@QAEHKIPAU_SECURITY_ATTRIBUTES@@@Z @ 2160 NONAME
 ?CreateTracker@COleControl@@IAEXHH@Z @ 2161 NONAME
 ?CreateTracker@COleControl@@IAEXHHPBUtagRECT@@@Z @ 2162 NONAME
 ?CreateView@CFrameWnd@@QAEPAVCWnd@@PAUCCreateContext@@I@Z @ 2163 NONAME
 ?CreateView@CSplitterWnd@@UAEHHHPAUCRuntimeClass@@UtagSIZE@@PAUCCreateContext@@@Z @ 2164 NONAME
 ?CreateView@XOleDocument@CDocObjectServer@@UAGJPAUIOleInPlaceSite@@PAUIStream@@KPAPAUIOleDocumentView@@@Z @ 2165 NONAME
 ?CreateWindowForSubclassedControl@COleControl@@IAEXXZ @ 2166 NONAME
 ?Customize@CToolBarCtrl@@QAEXXZ @ 2167 NONAME
 ?Cut@CComboBox@@QAEXXZ @ 2168 NONAME
 ?Cut@CEdit@@QAEXXZ @ 2169 NONAME
 ?Cut@CRichEditCtrl@@QAEXXZ @ 2170 NONAME
 ?DAdvise@XDataObject@COleControl@@UAGJPAUtagFORMATETC@@KPAUIAdviseSink@@PAK@Z @ 2171 NONAME
 ?DAdvise@XDataObject@COleDataSource@@UAGJPAUtagFORMATETC@@KPAUIAdviseSink@@PAK@Z @ 2172 NONAME
 ?DAdvise@XDataObject@COleServerDoc@@UAGJPAUtagFORMATETC@@KPAUIAdviseSink@@PAK@Z @ 2173 NONAME
 ?DAdvise@XDataObject@COleServerItem@@UAGJPAUtagFORMATETC@@KPAUIAdviseSink@@PAK@Z @ 2174 NONAME
 ?DDP_CBIndex@@YGXPAVCDataExchange@@HAAHPBG@Z @ 2175 NONAME
 ?DDP_CBString@@YGXPAVCDataExchange@@HAAV?$CStringT@GV?$StrTraitMFC@GV?$ChTraitsCRT@G@@@@@@PBG@Z @ 2176 NONAME
 ?DDP_CBStringExact@@YGXPAVCDataExchange@@HAAV?$CStringT@GV?$StrTraitMFC@GV?$ChTraitsCRT@G@@@@@@PBG@Z @ 2177 NONAME
 ?DDP_Check@@YGXPAVCDataExchange@@HAAHPBG@Z @ 2178 NONAME
 ?DDP_EndCheck@@YGXPAVCDataExchange@@HPAHPBG@Z @ 2179 NONAME
 ?DDP_EndRadio@@YGXPAVCDataExchange@@HPAHPBG@Z @ 2180 NONAME
 ?DDP_EndText@@YGXPAVCDataExchange@@HPAEPBG@Z @ 2181 NONAME
 ?DDP_EndText@@YGXPAVCDataExchange@@HPAFPBG@Z @ 2182 NONAME
 ?DDP_EndText@@YGXPAVCDataExchange@@HPAHPBG@Z @ 2183 NONAME
 ?DDP_EndText@@YGXPAVCDataExchange@@HPAIPBG@Z @ 2184 NONAME
 ?DDP_EndText@@YGXPAVCDataExchange@@HPAJPBG@Z @ 2185 NONAME
 ?DDP_EndText@@YGXPAVCDataExchange@@HPAKPBG@Z @ 2186 NONAME
 ?DDP_EndText@@YGXPAVCDataExchange@@HPAMPBG@Z @ 2187 NONAME
 ?DDP_EndText@@YGXPAVCDataExchange@@HPANPBG@Z @ 2188 NONAME
 ?DDP_EndText@@YGXPAVCDataExchange@@HPAV?$CStringT@GV?$StrTraitMFC@GV?$ChTraitsCRT@G@@@@@@PBG@Z @ 2189 NONAME
 ?DDP_LBIndex@@YGXPAVCDataExchange@@HAAHPBG@Z @ 2190 NONAME
 ?DDP_LBString@@YGXPAVCDataExchange@@HAAV?$CStringT@GV?$StrTraitMFC@GV?$ChTraitsCRT@G@@@@@@PBG@Z @ 2191 NONAME
 ?DDP_LBStringExact@@YGXPAVCDataExchange@@HAAV?$CStringT@GV?$StrTraitMFC@GV?$ChTraitsCRT@G@@@@@@PBG@Z @ 2192 NONAME
 ?DDP_PostProcessing@@YGXPAVCDataExchange@@@Z @ 2193 NONAME
 ?DDP_Radio@@YGXPAVCDataExchange@@HAAHPBG@Z @ 2194 NONAME
 ?DDP_Text@@YGXPAVCDataExchange@@HAAEPBG@Z @ 2195 NONAME
 ?DDP_Text@@YGXPAVCDataExchange@@HAAFPBG@Z @ 2196 NONAME
 ?DDP_Text@@YGXPAVCDataExchange@@HAAHPBG@Z @ 2197 NONAME
 ?DDP_Text@@YGXPAVCDataExchange@@HAAIPBG@Z @ 2198 NONAME
 ?DDP_Text@@YGXPAVCDataExchange@@HAAJPBG@Z @ 2199 NONAME
 ?DDP_Text@@YGXPAVCDataExchange@@HAAKPBG@Z @ 2200 NONAME
 ?DDP_Text@@YGXPAVCDataExchange@@HAAMPBG@Z @ 2201 NONAME
 ?DDP_Text@@YGXPAVCDataExchange@@HAANPBG@Z @ 2202 NONAME
 ?DDP_Text@@YGXPAVCDataExchange@@HAAV?$CStringT@GV?$StrTraitMFC@GV?$ChTraitsCRT@G@@@@@@PBG@Z @ 2203 NONAME
 ?DDV_MaxChars@@YGXPAVCDataExchange@@ABV?$CStringT@GV?$StrTraitMFC@GV?$ChTraitsCRT@G@@@@@@H@Z @ 2204 NONAME
 ?DDV_MinMaxByte@@YGXPAVCDataExchange@@EEE@Z @ 2205 NONAME
 ?DDV_MinMaxDateTime@@YGXPAVCDataExchange@@AAVCOleDateTime@ATL@@PBV23@2@Z @ 2206 NONAME
 ?DDV_MinMaxDateTime@@YGXPAVCDataExchange@@AAVCTime@ATL@@PBV23@2@Z @ 2207 NONAME
 ?DDV_MinMaxDouble@@YGXPAVCDataExchange@@ABNNN@Z @ 2208 NONAME
 ?DDV_MinMaxDWord@@YGXPAVCDataExchange@@KKK@Z @ 2209 NONAME
 ?DDV_MinMaxFloat@@YGXPAVCDataExchange@@ABMMM@Z @ 2210 NONAME
 ?DDV_MinMaxInt@@YGXPAVCDataExchange@@HHH@Z @ 2211 NONAME
 ?DDV_MinMaxLong@@YGXPAVCDataExchange@@JJJ@Z @ 2212 NONAME
 ?DDV_MinMaxLongLong@@YGXPAVCDataExchange@@_J11@Z @ 2213 NONAME
 ?DDV_MinMaxMonth@@YGXPAVCDataExchange@@AAVCOleDateTime@ATL@@PBV23@2@Z @ 2214 NONAME
 ?DDV_MinMaxMonth@@YGXPAVCDataExchange@@AAVCTime@ATL@@PBV23@2@Z @ 2215 NONAME
 ?DDV_MinMaxShort@@YGXPAVCDataExchange@@FFF@Z @ 2216 NONAME
 ?DDV_MinMaxSlider@@YGXPAVCDataExchange@@KKK@Z @ 2217 NONAME
 ?DDV_MinMaxUInt@@YGXPAVCDataExchange@@III@Z @ 2218 NONAME
 ?DDV_MinMaxULongLong@@YGXPAVCDataExchange@@_K11@Z @ 2219 NONAME
 ?DDX_CBIndex@@YGXPAVCDataExchange@@HAAH@Z @ 2220 NONAME
 ?DDX_CBString@@YGXPAVCDataExchange@@HAAV?$CStringT@GV?$StrTraitMFC@GV?$ChTraitsCRT@G@@@@@@@Z @ 2221 NONAME
 ?DDX_CBStringExact@@YGXPAVCDataExchange@@HAAV?$CStringT@GV?$StrTraitMFC@GV?$ChTraitsCRT@G@@@@@@@Z @ 2222 NONAME
 ?DDX_Check@@YGXPAVCDataExchange@@HAAH@Z @ 2223 NONAME
 ?DDX_Control@@YGXPAVCDataExchange@@HAAVCWnd@@@Z @ 2224 NONAME
 ?DDX_DateTimeCtrl@@YGXPAVCDataExchange@@HAAU_FILETIME@@@Z @ 2225 NONAME
 ?DDX_DateTimeCtrl@@YGXPAVCDataExchange@@HAAUtagDBDATE@@@Z @ 2226 NONAME
 ?DDX_DateTimeCtrl@@YGXPAVCDataExchange@@HAAUtagDBTIME@@@Z @ 2227 NONAME
 ?DDX_DateTimeCtrl@@YGXPAVCDataExchange@@HAAV?$CStringT@GV?$StrTraitMFC@GV?$ChTraitsCRT@G@@@@@@@Z @ 2228 NONAME
 ?DDX_DateTimeCtrl@@YGXPAVCDataExchange@@HAAVCOleDateTime@ATL@@@Z @ 2229 NONAME
 ?DDX_DateTimeCtrl@@YGXPAVCDataExchange@@HAAVCTime@ATL@@@Z @ 2230 NONAME
 ?DDX_DHtml_AxControl@CDHtmlDialog@@IAEXPBG0AAUtagVARIANT@@H@Z @ 2231 NONAME
 ?DDX_DHtml_AxControl@CDHtmlDialog@@IAEXPBGJAAUtagVARIANT@@H@Z @ 2232 NONAME
 ?DDX_DHtml_AxControl@CDHtmlDialog@@QAEXPAVCDataExchange@@PBG1AAUtagVARIANT@@@Z @ 2233 NONAME
 ?DDX_DHtml_AxControl@CDHtmlDialog@@QAEXPAVCDataExchange@@PBGJAAUtagVARIANT@@@Z @ 2234 NONAME
 ?DDX_DHtml_CheckBox@CDHtmlDialog@@IAEXPBGAAHH@Z @ 2235 NONAME
 ?DDX_DHtml_CheckBox@CDHtmlDialog@@QAEXPAVCDataExchange@@PBGAAH@Z @ 2236 NONAME
 ?DDX_DHtml_ElementText@CDHtmlDialog@@IAEXPBGJAAFH@Z @ 2237 NONAME
 ?DDX_DHtml_ElementText@CDHtmlDialog@@IAEXPBGJAAHH@Z @ 2238 NONAME
 ?DDX_DHtml_ElementText@CDHtmlDialog@@IAEXPBGJAAJH@Z @ 2239 NONAME
 ?DDX_DHtml_ElementText@CDHtmlDialog@@IAEXPBGJAAKH@Z @ 2240 NONAME
 ?DDX_DHtml_ElementText@CDHtmlDialog@@IAEXPBGJAAMH@Z @ 2241 NONAME
 ?DDX_DHtml_ElementText@CDHtmlDialog@@IAEXPBGJAANH@Z @ 2242 NONAME
 ?DDX_DHtml_ElementText@CDHtmlDialog@@IAEXPBGJAAV?$CStringT@GV?$StrTraitMFC@GV?$ChTraitsCRT@G@@@@@@H@Z @ 2243 NONAME
 ?DDX_DHtml_ElementText@CDHtmlDialog@@QAEXPAVCDataExchange@@PBGJAAF@Z @ 2244 NONAME
 ?DDX_DHtml_ElementText@CDHtmlDialog@@QAEXPAVCDataExchange@@PBGJAAH@Z @ 2245 NONAME
 ?DDX_DHtml_ElementText@CDHtmlDialog@@QAEXPAVCDataExchange@@PBGJAAJ@Z @ 2246 NONAME
 ?DDX_DHtml_ElementText@CDHtmlDialog@@QAEXPAVCDataExchange@@PBGJAAK@Z @ 2247 NONAME
 ?DDX_DHtml_ElementText@CDHtmlDialog@@QAEXPAVCDataExchange@@PBGJAAM@Z @ 2248 NONAME
 ?DDX_DHtml_ElementText@CDHtmlDialog@@QAEXPAVCDataExchange@@PBGJAAN@Z @ 2249 NONAME
 ?DDX_DHtml_ElementText@CDHtmlDialog@@QAEXPAVCDataExchange@@PBGJAAV?$CStringT@GV?$StrTraitMFC@GV?$ChTraitsCRT@G@@@@@@@Z @ 2250 NONAME
 ?DDX_DHtml_ElementTextFloatFormat@CDHtmlDialog@@IAEXPBGJPAXNHH@Z @ 2251 NONAME
 ?DDX_DHtml_ElementTextWithFormat@CDHtmlDialog@@IAAXPBGJ0IHZZ @ 2252 NONAME
 ?DDX_DHtml_Radio@CDHtmlDialog@@IAEXPBGAAJH@Z @ 2253 NONAME
 ?DDX_DHtml_Radio@CDHtmlDialog@@QAEXPAVCDataExchange@@PBGAAJ@Z @ 2254 NONAME
 ?DDX_DHtml_SelectIndex@CDHtmlDialog@@IAEXPBGAAJH@Z @ 2255 NONAME
 ?DDX_DHtml_SelectIndex@CDHtmlDialog@@QAEXPAVCDataExchange@@PBGAAJ@Z @ 2256 NONAME
 ?DDX_DHtml_SelectString@CDHtmlDialog@@IAEXPBGAAV?$CStringT@GV?$StrTraitMFC@GV?$ChTraitsCRT@G@@@@@@H@Z @ 2257 NONAME
 ?DDX_DHtml_SelectString@CDHtmlDialog@@QAEXPAVCDataExchange@@PBGAAV?$CStringT@GV?$StrTraitMFC@GV?$ChTraitsCRT@G@@@@@@@Z @ 2258 NONAME
 ?DDX_DHtml_SelectValue@CDHtmlDialog@@IAEXPBGAAV?$CStringT@GV?$StrTraitMFC@GV?$ChTraitsCRT@G@@@@@@H@Z @ 2259 NONAME
 ?DDX_DHtml_SelectValue@CDHtmlDialog@@QAEXPAVCDataExchange@@PBGAAV?$CStringT@GV?$StrTraitMFC@GV?$ChTraitsCRT@G@@@@@@@Z @ 2260 NONAME
 ?DDX_FieldCBIndex@@YGXPAVCDataExchange@@HAAHPAVCRecordset@@@Z @ 2261 NONAME
 ?DDX_FieldCBString@@YGXPAVCDataExchange@@HAAV?$CStringT@GV?$StrTraitMFC@GV?$ChTraitsCRT@G@@@@@@PAVCRecordset@@@Z @ 2262 NONAME
 ?DDX_FieldCBStringExact@@YGXPAVCDataExchange@@HAAV?$CStringT@GV?$StrTraitMFC@GV?$ChTraitsCRT@G@@@@@@PAVCRecordset@@@Z @ 2263 NONAME
 ?DDX_FieldCheck@@YGXPAVCDataExchange@@HAAHPAVCRecordset@@@Z @ 2264 NONAME
 ?DDX_FieldLBIndex@@YGXPAVCDataExchange@@HAAHPAVCRecordset@@@Z @ 2265 NONAME
 ?DDX_FieldLBString@@YGXPAVCDataExchange@@HAAV?$CStringT@GV?$StrTraitMFC@GV?$ChTraitsCRT@G@@@@@@PAVCRecordset@@@Z @ 2266 NONAME
 ?DDX_FieldLBStringExact@@YGXPAVCDataExchange@@HAAV?$CStringT@GV?$StrTraitMFC@GV?$ChTraitsCRT@G@@@@@@PAVCRecordset@@@Z @ 2267 NONAME
 ?DDX_FieldRadio@@YGXPAVCDataExchange@@HAAHPAVCRecordset@@@Z @ 2268 NONAME
 ?DDX_FieldScroll@@YGXPAVCDataExchange@@HAAHPAVCRecordset@@@Z @ 2269 NONAME
 ?DDX_FieldText@@YGXPAVCDataExchange@@HAAEPAVCRecordset@@@Z @ 2270 NONAME
 ?DDX_FieldText@@YGXPAVCDataExchange@@HAAHPAVCRecordset@@@Z @ 2271 NONAME
 ?DDX_FieldText@@YGXPAVCDataExchange@@HAAIPAVCRecordset@@@Z @ 2272 NONAME
 ?DDX_FieldText@@YGXPAVCDataExchange@@HAAJPAVCRecordset@@@Z @ 2273 NONAME
 ?DDX_FieldText@@YGXPAVCDataExchange@@HAAKPAVCRecordset@@@Z @ 2274 NONAME
 ?DDX_FieldText@@YGXPAVCDataExchange@@HAAMPAVCRecordset@@@Z @ 2275 NONAME
 ?DDX_FieldText@@YGXPAVCDataExchange@@HAANPAVCRecordset@@@Z @ 2276 NONAME
 ?DDX_FieldText@@YGXPAVCDataExchange@@HAAV?$CStringT@GV?$StrTraitMFC@GV?$ChTraitsCRT@G@@@@@@PAVCRecordset@@@Z @ 2277 NONAME
 ?DDX_FieldText@@YGXPAVCDataExchange@@HPAGHPAVCRecordset@@@Z @ 2278 NONAME
 ?DDX_IPAddress@@YGXPAVCDataExchange@@HAAK@Z @ 2279 NONAME
 ?DDX_LBIndex@@YGXPAVCDataExchange@@HAAH@Z @ 2280 NONAME
 ?DDX_LBString@@YGXPAVCDataExchange@@HAAV?$CStringT@GV?$StrTraitMFC@GV?$ChTraitsCRT@G@@@@@@@Z @ 2281 NONAME
 ?DDX_LBStringExact@@YGXPAVCDataExchange@@HAAV?$CStringT@GV?$StrTraitMFC@GV?$ChTraitsCRT@G@@@@@@@Z @ 2282 NONAME
 ?DDX_MonthCalCtrl@@YGXPAVCDataExchange@@HAAU_FILETIME@@@Z @ 2283 NONAME
 ?DDX_MonthCalCtrl@@YGXPAVCDataExchange@@HAAUtagDBDATE@@@Z @ 2284 NONAME
 ?DDX_MonthCalCtrl@@YGXPAVCDataExchange@@HAAVCOleDateTime@ATL@@@Z @ 2285 NONAME
 ?DDX_MonthCalCtrl@@YGXPAVCDataExchange@@HAAVCTime@ATL@@@Z @ 2286 NONAME
 ?DDX_OCBool@@YGXPAVCDataExchange@@HJAAH@Z @ 2287 NONAME
 ?DDX_OCBoolRO@@YGXPAVCDataExchange@@HJAAH@Z @ 2288 NONAME
 ?DDX_OCColor@@YGXPAVCDataExchange@@HJAAK@Z @ 2289 NONAME
 ?DDX_OCColorRO@@YGXPAVCDataExchange@@HJAAK@Z @ 2290 NONAME
 ?DDX_OCFloat@@YGXPAVCDataExchange@@HJAAM@Z @ 2291 NONAME
 ?DDX_OCFloat@@YGXPAVCDataExchange@@HJAAN@Z @ 2292 NONAME
 ?DDX_OCFloatRO@@YGXPAVCDataExchange@@HJAAM@Z @ 2293 NONAME
 ?DDX_OCFloatRO@@YGXPAVCDataExchange@@HJAAN@Z @ 2294 NONAME
 ?DDX_OCInt@@YGXPAVCDataExchange@@HJAAH@Z @ 2295 NONAME
 ?DDX_OCInt@@YGXPAVCDataExchange@@HJAAJ@Z @ 2296 NONAME
 ?DDX_OCIntRO@@YGXPAVCDataExchange@@HJAAH@Z @ 2297 NONAME
 ?DDX_OCIntRO@@YGXPAVCDataExchange@@HJAAJ@Z @ 2298 NONAME
 ?DDX_OCShort@@YGXPAVCDataExchange@@HJAAF@Z @ 2299 NONAME
 ?DDX_OCShortRO@@YGXPAVCDataExchange@@HJAAF@Z @ 2300 NONAME
 ?DDX_OCText@@YGXPAVCDataExchange@@HJAAV?$CStringT@GV?$StrTraitMFC@GV?$ChTraitsCRT@G@@@@@@@Z @ 2301 NONAME
 ?DDX_OCTextRO@@YGXPAVCDataExchange@@HJAAV?$CStringT@GV?$StrTraitMFC@GV?$ChTraitsCRT@G@@@@@@@Z @ 2302 NONAME
 ?DDX_Radio@@YGXPAVCDataExchange@@HAAH@Z @ 2303 NONAME
 ?DDX_Scroll@@YGXPAVCDataExchange@@HAAH@Z @ 2304 NONAME
 ?DDX_Slider@@YGXPAVCDataExchange@@HAAH@Z @ 2305 NONAME
 ?DDX_Text@@YGXPAVCDataExchange@@HAA_J@Z @ 2306 NONAME
 ?DDX_Text@@YGXPAVCDataExchange@@HAA_K@Z @ 2307 NONAME
 ?DDX_Text@@YGXPAVCDataExchange@@HAAE@Z @ 2308 NONAME
 ?DDX_Text@@YGXPAVCDataExchange@@HAAF@Z @ 2309 NONAME
 ?DDX_Text@@YGXPAVCDataExchange@@HAAH@Z @ 2310 NONAME
 ?DDX_Text@@YGXPAVCDataExchange@@HAAI@Z @ 2311 NONAME
 ?DDX_Text@@YGXPAVCDataExchange@@HAAJ@Z @ 2312 NONAME
 ?DDX_Text@@YGXPAVCDataExchange@@HAAK@Z @ 2313 NONAME
 ?DDX_Text@@YGXPAVCDataExchange@@HAAM@Z @ 2314 NONAME
 ?DDX_Text@@YGXPAVCDataExchange@@HAAN@Z @ 2315 NONAME
 ?DDX_Text@@YGXPAVCDataExchange@@HAAU_FILETIME@@@Z @ 2316 NONAME
 ?DDX_Text@@YGXPAVCDataExchange@@HAAU_GUID@@@Z @ 2317 NONAME
 ?DDX_Text@@YGXPAVCDataExchange@@HAAUtagDB_NUMERIC@@@Z @ 2318 NONAME
 ?DDX_Text@@YGXPAVCDataExchange@@HAAUtagDBDATE@@@Z @ 2319 NONAME
 ?DDX_Text@@YGXPAVCDataExchange@@HAAUtagDBTIME@@@Z @ 2320 NONAME
 ?DDX_Text@@YGXPAVCDataExchange@@HAAUtagDEC@@@Z @ 2321 NONAME
 ?DDX_Text@@YGXPAVCDataExchange@@HAAV?$CStringT@GV?$StrTraitMFC@GV?$ChTraitsCRT@G@@@@@@@Z @ 2322 NONAME
 ?DDX_Text@@YGXPAVCDataExchange@@HAAVCOleCurrency@@@Z @ 2323 NONAME
 ?DDX_Text@@YGXPAVCDataExchange@@HAAVCOleDateTime@ATL@@@Z @ 2324 NONAME
 ?DDX_Text@@YGXPAVCDataExchange@@HPAGH@Z @ 2325 NONAME
 ?Deactivate@COleClientItem@@QAEXXZ @ 2326 NONAME
 ?Deactivate@XPropertyPage@COlePropertyPage@@UAGJXZ @ 2327 NONAME
 ?DeactivateAndUndo@COleServerDoc@@QAEHXZ @ 2328 NONAME
 ?DeactivateAndUndo@XOleIPSite@COleClientItem@@UAGJXZ @ 2329 NONAME
 ?DeactivateAndUndo@XOleIPSite@COleControlSite@@UAGJXZ @ 2330 NONAME
 ?DeactivateUI@COleClientItem@@QAEXXZ @ 2331 NONAME
 ?Default@CFieldExchange@@QAEXPBGPAXPAJHII@Z @ 2332 NONAME
 ?Default@CWnd@@IAEJXZ @ 2333 NONAME
 ?DefWindowProcW@CMDIChildWnd@@MAEJIIJ@Z @ 2334 NONAME
 ?DefWindowProcW@CMDIFrameWnd@@MAEJIIJ@Z @ 2335 NONAME
 ?DefWindowProcW@COleControl@@MAEJIIJ@Z @ 2336 NONAME
 ?DefWindowProcW@CPrintDialogEx@@UAEJIIJ@Z @ 2337 NONAME
 ?DefWindowProcW@CWnd@@MAEJIIJ@Z @ 2338 NONAME
 ?DelayRecalcLayout@CFrameWnd@@QAEXH@Z @ 2339 NONAME
 ?DelayRenderData@COleDataSource@@QAEXGPAUtagFORMATETC@@@Z @ 2340 NONAME
 ?DelayRenderFileData@COleDataSource@@QAEXGPAUtagFORMATETC@@@Z @ 2341 NONAME
 ?DelaySetData@COleDataSource@@QAEXGPAUtagFORMATETC@@@Z @ 2342 NONAME
 ?DelayShow@CControlBar@@UAEXH@Z @ 2343 NONAME
 ?DelayUpdateFrameMenu@CFrameWnd@@UAEXPAUHMENU__@@@Z @ 2344 NONAME
 ?DelayUpdateFrameMenu@CMDIFrameWnd@@UAEXPAUHMENU__@@@Z @ 2345 NONAME
 ?DelayUpdateFrameTitle@CFrameWnd@@QAEXXZ @ 2346 NONAME
 ?Delete@CException@@QAEXXZ @ 2347 NONAME
 ?Delete@COleClientItem@@QAEXH@Z @ 2348 NONAME
 ?Delete@CRecordset@@UAEXXZ @ 2349 NONAME
 ?Delete@CWinThread@@UAEXXZ @ 2350 NONAME
 ?DeleteAllItems@CListCtrl@@QAEHXZ @ 2351 NONAME
 ?DeleteAllItems@CTabCtrl@@QAEHXZ @ 2352 NONAME
 ?DeleteAllItems@CTreeCtrl@@QAEHXZ @ 2353 NONAME
 ?DeleteBand@CReBarCtrl@@QAEHI@Z @ 2354 NONAME
 ?DeleteButton@CToolBarCtrl@@QAEHH@Z @ 2355 NONAME
 ?DeleteColumn@CListCtrl@@QAEHH@Z @ 2356 NONAME
 ?DeleteColumn@CSplitterWnd@@UAEXH@Z @ 2357 NONAME
 ?DeleteContents@CDocument@@UAEXXZ @ 2358 NONAME
 ?DeleteContents@CEditView@@UAEXXZ @ 2359 NONAME
 ?DeleteContents@CHtmlEditDoc@@UAEXXZ @ 2360 NONAME
 ?DeleteContents@COleDocument@@UAEXXZ @ 2361 NONAME
 ?DeleteContents@COleServerDoc@@UAEXXZ @ 2362 NONAME
 ?DeleteContents@CRichEditDoc@@UAEXXZ @ 2363 NONAME
 ?DeleteContents@CRichEditView@@UAEXXZ @ 2364 NONAME
 ?DeleteDC@CDC@@QAEHXZ @ 2365 NONAME
 ?DeleteImageList@CImageList@@QAEHXZ @ 2366 NONAME
 ?DeleteItem@CComboBox@@UAEXPAUtagDELETEITEMSTRUCT@@@Z @ 2367 NONAME
 ?DeleteItem@CComboBoxEx@@QAEHH@Z @ 2368 NONAME
 ?DeleteItem@CHeaderCtrl@@QAEHH@Z @ 2369 NONAME
 ?DeleteItem@CListBox@@UAEXPAUtagDELETEITEMSTRUCT@@@Z @ 2370 NONAME
 ?DeleteItem@CListCtrl@@QAEHH@Z @ 2371 NONAME
 ?DeleteItem@CTabCtrl@@QAEHH@Z @ 2372 NONAME
 ?DeleteItem@CTreeCtrl@@QAEHPAU_TREEITEM@@@Z @ 2373 NONAME
 ?DeleteMenu@CMenu@@QAEHII@Z @ 2374 NONAME
 ?DeleteObject@CGdiObject@@QAEHXZ @ 2375 NONAME
 ?DeleteObject@XRichEditOleCallback@CRichEditView@@UAGJPAUIOleObject@@@Z @ 2376 NONAME
 ?DeleteRow@CSplitterWnd@@UAEXH@Z @ 2377 NONAME
 ?DeleteString@CComboBox@@QAEHI@Z @ 2378 NONAME
 ?DeleteString@CListBox@@QAEHI@Z @ 2379 NONAME
 ?DeleteTemp@CHandleMap@@QAEXXZ @ 2380 NONAME
 ?DeleteTempMap@CDC@@SGXXZ @ 2381 NONAME
 ?DeleteTempMap@CGdiObject@@SGXXZ @ 2382 NONAME
 ?DeleteTempMap@CImageList@@SGXXZ @ 2383 NONAME
 ?DeleteTempMap@CMenu@@SGXXZ @ 2384 NONAME
 ?DeleteTempMap@CWnd@@SGXXZ @ 2385 NONAME
 ?DeleteUnmarkedItems@CRichEditDoc@@IBEXXZ @ 2386 NONAME
 ?DeleteValues@CThreadSlotData@@QAEXPAUCThreadData@@PAUHINSTANCE__@@@Z @ 2387 NONAME
 ?DeleteValues@CThreadSlotData@@QAEXPAUHINSTANCE__@@H@Z @ 2388 NONAME
 ?DeleteView@CSplitterWnd@@UAEXHH@Z @ 2389 NONAME
 ?DelRegTree@CWinApp@@QAEJPAUHKEY__@@ABV?$CStringT@GV?$StrTraitMFC@GV?$ChTraitsCRT@G@@@@@@@Z @ 2390 NONAME
 ?DelTool@CToolTipCtrl@@QAEXPAVCWnd@@I@Z @ 2391 NONAME
 ?DeselectAll@CTabCtrl@@QAEXH@Z @ 2392 NONAME
 ?Destroy@COleSafeArray@@QAEXXZ @ 2393 NONAME
 ?DestroyControl@COleControlSite@@UAEHXZ @ 2394 NONAME
 ?DestroyData@COleSafeArray@@QAEXXZ @ 2395 NONAME
 ?DestroyDescriptor@COleSafeArray@@QAEXXZ @ 2396 NONAME
 ?DestroyDockBars@CFrameWnd@@QAEXXZ @ 2397 NONAME
 ?DestroyInPlaceFrame@COleServerDoc@@MAEXPAVCOleIPFrameWnd@@@Z @ 2398 NONAME
 ?DestroyMenu@CMenu@@QAEHXZ @ 2399 NONAME
 ?DestroyModeless@CDHtmlDialog@@QAEXXZ @ 2400 NONAME
 ?DestroySharedMenu@COleControl@@MAEXXZ @ 2401 NONAME
 ?DestroySharedMenu@COleDocIPFrameWnd@@MAEXXZ @ 2402 NONAME
 ?DestroySharedMenu@COleIPFrameWnd@@MAEXXZ @ 2403 NONAME
 ?DestroyToolTipCtrl@CToolTipCtrl@@QAEHXZ @ 2404 NONAME
 ?DestroyTracker@COleControl@@IAEXXZ @ 2405 NONAME
 ?DestroyWindow@CControlBar@@UAEHXZ @ 2406 NONAME
 ?DestroyWindow@CMDIChildWnd@@UAEHXZ @ 2407 NONAME
 ?DestroyWindow@CWnd@@UAEHXZ @ 2408 NONAME
 ?Detach@CAsyncSocket@@QAEIXZ @ 2409 NONAME
 ?Detach@CDC@@QAEPAUHDC__@@XZ @ 2410 NONAME
 ?Detach@CDialogTemplate@@QAEPAXXZ @ 2411 NONAME
 ?Detach@CGdiObject@@QAEPAXXZ @ 2412 NONAME
 ?Detach@CImageList@@QAEPAU_IMAGELIST@@XZ @ 2413 NONAME
 ?Detach@CMemFile@@QAEPAEXZ @ 2414 NONAME
 ?Detach@CMenu@@QAEPAUHMENU__@@XZ @ 2415 NONAME
 ?Detach@CMonikerFile@@QAEHPAVCFileException@@@Z @ 2416 NONAME
 ?Detach@COleDataObject@@QAEPAUIDataObject@@XZ @ 2417 NONAME
 ?Detach@COleSafeArray@@QAE?AUtagVARIANT@@XZ @ 2418 NONAME
 ?Detach@COleStreamFile@@QAEPAUIStream@@XZ @ 2419 NONAME
 ?Detach@COleVariant@@QAE?AUtagVARIANT@@XZ @ 2420 NONAME
 ?Detach@CSharedFile@@QAEPAXXZ @ 2421 NONAME
 ?Detach@CWindowlessDC@@QAEPAUHDC__@@XZ @ 2422 NONAME
 ?Detach@CWnd@@QAEPAUHWND__@@XZ @ 2423 NONAME
 ?DetachDispatch@COleDispatchDriver@@QAEPAUIDispatch@@XZ @ 2424 NONAME
 ?DetachHandle@CAsyncSocket@@SGXIH@Z @ 2425 NONAME
 ?DetachWindow@COleControlSite@@IAEXXZ @ 2426 NONAME
 ?DevModeChange@CWinApp@@QAEXPAG@Z @ 2427 NONAME
 ?DHtmlEventHook@CDHtmlEventSink@@UAEHPAJJPAUtagDISPPARAMS@@PAUtagVARIANT@@PAUtagEXCEPINFO@@PAI@Z @ 2428 NONAME
 ?DidEvent@XNotifyDBEvents@COleControlSite@@UAGJKKQAUtagDBNOTIFYREASON@@@Z @ 2429 NONAME
 ?Difference@CMemoryState@@QAEHABU1@0@Z @ 2430 NONAME
 ?Dir@CComboBox@@QAEHIPBG@Z @ 2431 NONAME
 ?Dir@CComboBoxEx@@QAEHIPBG@Z @ 2432 NONAME
 ?Dir@CListBox@@QAEHIPBG@Z @ 2433 NONAME
 ?DiscardUndoState@COleServerDoc@@QAEHXZ @ 2434 NONAME
 ?DiscardUndoState@XOleIPSite@COleClientItem@@UAGJXZ @ 2435 NONAME
 ?DiscardUndoState@XOleIPSite@COleControlSite@@UAGJXZ @ 2436 NONAME
 ?Disconnect@COleDispatchImpl@@UAEXXZ @ 2437 NONAME
 ?DisconnectDHtmlElementEvents@CDHtmlDialog@@IAEXXZ @ 2438 NONAME
 ?DisconnectDHtmlEvents@CDHtmlDialog@@IAEXXZ @ 2439 NONAME
 ?DisconnectFromConnectionPoint@CDHtmlEventSink@@QAEXPAUIUnknown@@ABU_GUID@@AAK@Z @ 2440 NONAME
 ?DisconnectSink@COleControlSite@@IAEXABU_GUID@@K@Z @ 2441 NONAME
 ?DisconnectViews@CDocument@@QAEXXZ @ 2442 NONAME
 ?DispatchThreadMessage@CWinThread@@IAEXPAUtagMSG@@@Z @ 2443 NONAME
 ?DispatchThreadMessageEx@CWinThread@@IAEHPAUtagMSG@@@Z @ 2444 NONAME
 ?DisplayBand@CRichEditCtrl@@QAEHPAUtagRECT@@@Z @ 2445 NONAME
 ?DisplayError@COleControl@@UAEXJPBG00I@Z @ 2446 NONAME
 ?DlgDirListComboBoxW@CWnd@@QAEHPAGHHI@Z @ 2447 NONAME
 ?DlgDirListW@CWnd@@QAEHPAGHHI@Z @ 2448 NONAME
 ?DlgDirSelect@CWnd@@QAEHPAGH@Z @ 2449 NONAME
 ?DlgDirSelectComboBox@CWnd@@QAEHPAGH@Z @ 2450 NONAME
 ?DoBeginPrinting@CDocObjectServer@@IAEXPAVCView@@PAVCDC@@PAUCPrintInfo@@@Z @ 2451 NONAME
 ?DoBulkFieldExchange@CRecordset@@UAEXPAVCFieldExchange@@@Z @ 2452 NONAME
 ?DoCallBack@CAsyncSocket@@SGXIJ@Z @ 2453 NONAME
 ?DoChangeIcon@COleChangeIconDialog@@QAEHPAVCOleClientItem@@@Z @ 2454 NONAME
 ?DockControlBar@CDockBar@@QAEXPAVCControlBar@@PBUtagRECT@@@Z @ 2455 NONAME
 ?DockControlBar@CFrameWnd@@QAEXPAVCControlBar@@IPBUtagRECT@@@Z @ 2456 NONAME
 ?DockControlBar@CFrameWnd@@QAEXPAVCControlBar@@PAVCDockBar@@PBUtagRECT@@@Z @ 2457 NONAME
 ?DoClick@COleControl@@QAEXXZ @ 2458 NONAME
 ?DoContextSensitiveHelp@COleFrameHook@@QAEHH@Z @ 2459 NONAME
 ?DoConvert@COleConvertDialog@@QAEHPAVCOleClientItem@@@Z @ 2460 NONAME
 ?DocumentComplete@CHtmlView@@MAEXPAUIDispatch@@PAUtagVARIANT@@@Z @ 2461 NONAME
 ?DoDataExchange@CWnd@@MAEXPAVCDataExchange@@@Z @ 2462 NONAME
 ?DoDefaultPrinting@COleDocObjectItem@@SAJPAVCView@@PAUCPrintInfo@@@Z @ 2463 NONAME
 ?DoDragDrop@COleClientItem@@QAEKPBUtagRECT@@VCPoint@@HK0@Z @ 2464 NONAME
 ?DoDragDrop@COleDataSource@@QAEKKPBUtagRECT@@PAVCOleDropSource@@@Z @ 2465 NONAME
 ?DoDragDrop@COleServerItem@@QAEKPBUtagRECT@@VCPoint@@HK0@Z @ 2466 NONAME
 ?DoEnableModeless@COleFrameHook@@QAEHH@Z @ 2467 NONAME
 ?DoEndPrinting@CDocObjectServer@@IAEXPAVCView@@PAVCDC@@PAUCPrintInfo@@@Z @ 2468 NONAME
 ?DoFieldExchange@CRecordset@@UAEXPAVCFieldExchange@@@Z @ 2469 NONAME
 ?DoFileSave@CDocument@@UAEHXZ @ 2470 NONAME
 ?DoKeyboardSplit@CSplitterWnd@@UAEHXZ @ 2471 NONAME
 ?DoMessageBox@CWinApp@@UAEHPBGII@Z @ 2472 NONAME
 ?DoModal@CColorDialog@@UAEHXZ @ 2473 NONAME
 ?DoModal@CDialog@@UAEHXZ @ 2474 NONAME
 ?DoModal@CFileDialog@@UAEHXZ @ 2475 NONAME
 ?DoModal@CFontDialog@@UAEHXZ @ 2476 NONAME
 ?DoModal@COleBusyDialog@@UAEHXZ @ 2477 NONAME
 ?DoModal@COleChangeIconDialog@@UAEHXZ @ 2478 NONAME
 ?DoModal@COleChangeSourceDialog@@UAEHXZ @ 2479 NONAME
 ?DoModal@COleConvertDialog@@UAEHXZ @ 2480 NONAME
 ?DoModal@COleInsertDialog@@QAEHK@Z @ 2481 NONAME
 ?DoModal@COleInsertDialog@@UAEHXZ @ 2482 NONAME
 ?DoModal@COleLinksDialog@@UAEHXZ @ 2483 NONAME
 ?DoModal@COlePasteSpecialDialog@@UAEHXZ @ 2484 NONAME
 ?DoModal@COlePropertiesDialog@@UAEHXZ @ 2485 NONAME
 ?DoModal@COleUpdateDialog@@UAEHXZ @ 2486 NONAME
 ?DoModal@CPageSetupDialog@@UAEHXZ @ 2487 NONAME
 ?DoModal@CPrintDialog@@UAEHXZ @ 2488 NONAME
 ?DoModal@CPrintDialogEx@@UAEHXZ @ 2489 NONAME
 ?DoModal@CPropertySheet@@UAEHXZ @ 2490 NONAME
 ?DoMouseWheel@CScrollView@@QAEHIFVCPoint@@@Z @ 2491 NONAME
 ?DoOleVerb@CCmdTarget@@QAEHJPAUtagMSG@@PAUHWND__@@PBUtagRECT@@@Z @ 2492 NONAME
 ?DoPaint@CControlBar@@UAEXPAVCDC@@@Z @ 2493 NONAME
 ?DoPaint@CDockBar@@UAEXPAVCDC@@@Z @ 2494 NONAME
 ?DoPaste@CRichEditView@@QAEXAAVCOleDataObject@@GPAX@Z @ 2495 NONAME
 ?DoPrepareDC@CDocObjectServer@@IAEXPAVCView@@PAVCDC@@PAUCPrintInfo@@@Z @ 2496 NONAME
 ?DoPreparePrinting@CDocObjectServer@@IAEHPAVCView@@PAUCPrintInfo@@@Z @ 2497 NONAME
 ?DoPreparePrinting@CView@@QAEHPAUCPrintInfo@@@Z @ 2498 NONAME
 ?DoPrint@CDocObjectServer@@IAEXPAVCView@@PAVCDC@@PAUCPrintInfo@@@Z @ 2499 NONAME
 ?DoPrintDialog@CWinApp@@QAEHPAVCPrintDialog@@@Z @ 2500 NONAME
 ?DoPrintPreview@CView@@QAEHIPAV1@PAUCRuntimeClass@@PAUCPrintPreviewState@@@Z @ 2501 NONAME
 ?DoPromptFileName@CDocManager@@UAEHAAV?$CStringT@GV?$StrTraitMFC@GV?$ChTraitsCRT@G@@@@@@IKHPAVCDocTemplate@@@Z @ 2502 NONAME
 ?DoPromptFileName@CWinApp@@QAEHAAV?$CStringT@GV?$StrTraitMFC@GV?$ChTraitsCRT@G@@@@@@IKHPAVCDocTemplate@@@Z @ 2503 NONAME
 ?DoPropExchange@COleControl@@UAEXPAVCPropExchange@@@Z @ 2504 NONAME
 ?DoSave@CDocument@@UAEHPBGH@Z @ 2505 NONAME
 ?DoScroll@CSplitterWnd@@UAEHPAVCView@@IH@Z @ 2506 NONAME
 ?DoScrollBy@CSplitterWnd@@UAEHPAVCView@@VCSize@@H@Z @ 2507 NONAME
 ?DoSuperclassPaint@COleControl@@QAEXPAVCDC@@ABVCRect@@@Z @ 2508 NONAME
 ?DoUpdate@CCmdUI@@QAEHPAVCCmdTarget@@H@Z @ 2509 NONAME
 ?DoUpdate@COleCmdUI@@UAEHPAVCCmdTarget@@H@Z @ 2510 NONAME
 ?DoVerb@COleClientItem@@UAEHJPAVCView@@PAUtagMSG@@@Z @ 2511 NONAME
 ?DoVerb@COleControlSite@@UAEJJPAUtagMSG@@@Z @ 2512 NONAME
 ?DoVerb@XOleObject@CDocObjectServer@@UAGJJPAUtagMSG@@PAUIOleClientSite@@JPAUHWND__@@PBUtagRECT@@@Z @ 2513 NONAME
 ?DoVerb@XOleObject@COleControl@@UAGJJPAUtagMSG@@PAUIOleClientSite@@JPAUHWND__@@PBUtagRECT@@@Z @ 2514 NONAME
 ?DoVerb@XOleObject@COleServerDoc@@UAGJJPAUtagMSG@@PAUIOleClientSite@@JPAUHWND__@@PBUtagRECT@@@Z @ 2515 NONAME
 ?DoVerb@XOleObject@COleServerItem@@UAGJJPAUtagMSG@@PAUIOleClientSite@@JPAUHWND__@@PBUtagRECT@@@Z @ 2516 NONAME
 ?DoWaitCursor@CWinApp@@UAEXH@Z @ 2517 NONAME
 ?DoZoom@CPreviewView@@IAEXIVCPoint@@@Z @ 2518 NONAME
 ?DPtoHIMETRIC@CDC@@QBEXPAUtagSIZE@@@Z @ 2519 NONAME
 ?DPtoLP@CDC@@QBEXPAUtagPOINT@@H@Z @ 2520 NONAME
 ?DPtoLP@CDC@@QBEXPAUtagRECT@@@Z @ 2521 NONAME
 ?DPtoLP@CDC@@QBEXPAUtagSIZE@@@Z @ 2522 NONAME
 ?DragAcceptFiles@CWnd@@QAEXH@Z @ 2523 NONAME
 ?DragEnter@CImageList@@SGHPAVCWnd@@VCPoint@@@Z @ 2524 NONAME
 ?DragEnter@XDropTarget@COleDropTarget@@UAGJPAUIDataObject@@KU_POINTL@@PAK@Z @ 2525 NONAME
 ?Dragging@CDragListBox@@UAEIVCPoint@@@Z @ 2526 NONAME
 ?DragLeave@CImageList@@SGHPAVCWnd@@@Z @ 2527 NONAME
 ?DragLeave@XDropTarget@COleDropTarget@@UAGJXZ @ 2528 NONAME
 ?DragMove@CImageList@@SGHVCPoint@@@Z @ 2529 NONAME
 ?DragMove@CReBarCtrl@@QAEXK@Z @ 2530 NONAME
 ?DragOver@XDropTarget@COleDropTarget@@UAGJKU_POINTL@@PAK@Z @ 2531 NONAME
 ?DragShowNolock@CImageList@@SGHH@Z @ 2532 NONAME
 ?Draw@CImageList@@QAEHPAVCDC@@HUtagPOINT@@I@Z @ 2533 NONAME
 ?Draw@COleClientItem@@QAEHPAVCDC@@PBUtagRECT@@W4tagDVASPECT@@@Z @ 2534 NONAME
 ?Draw@CRectTracker@@QBEXPAVCDC@@@Z @ 2535 NONAME
 ?Draw@XViewObject@COleControl@@UAGJKJPAXPAUtagDVTARGETDEVICE@@PAUHDC__@@2PBU_RECTL@@3P6GHK@ZK@Z @ 2536 NONAME
 ?Draw3dRect@CDC@@QAEXHHHHKK@Z @ 2537 NONAME
 ?Draw3dRect@CDC@@QAEXPBUtagRECT@@KK@Z @ 2538 NONAME
 ?DrawAllSplitBars@CSplitterWnd@@MAEXPAVCDC@@HH@Z @ 2539 NONAME
 ?DrawBorders@CControlBar@@UAEXPAVCDC@@AAVCRect@@@Z @ 2540 NONAME
 ?DrawContent@COleControl@@IAEXPAVCDC@@AAVCRect@@@Z @ 2541 NONAME
 ?DrawDragRect@CDC@@QAEXPBUtagRECT@@UtagSIZE@@01PAVCBrush@@2@Z @ 2542 NONAME
 ?DrawEdge@CDC@@QAEHPAUtagRECT@@II@Z @ 2543 NONAME
 ?DrawEscape@CDC@@QAEHHHPBD@Z @ 2544 NONAME
 ?DrawEx@CImageList@@QAEHPAVCDC@@HUtagPOINT@@UtagSIZE@@KKI@Z @ 2545 NONAME
 ?DrawFocusRect@CDC@@QAEXPBUtagRECT@@@Z @ 2546 NONAME
 ?DrawFocusRect@CDockContext@@QAEXH@Z @ 2547 NONAME
 ?DrawFrameControl@CDC@@QAEHPAUtagRECT@@II@Z @ 2548 NONAME
 ?DrawGripper@CControlBar@@UAEXPAVCDC@@ABVCRect@@@Z @ 2549 NONAME
 ?DrawIcon@CDC@@QAEHHHPAUHICON__@@@Z @ 2550 NONAME
 ?DrawIcon@CDC@@QAEHUtagPOINT@@PAUHICON__@@@Z @ 2551 NONAME
 ?DrawIndirect@CImageList@@QAEHPAU_IMAGELISTDRAWPARAMS@@@Z @ 2552 NONAME
 ?DrawIndirect@CImageList@@QAEHPAVCDC@@HUtagPOINT@@UtagSIZE@@1IKKK@Z @ 2553 NONAME
 ?DrawInsert@CDragListBox@@UAEXH@Z @ 2554 NONAME
 ?DrawItem@CBitmapButton@@MAEXPAUtagDRAWITEMSTRUCT@@@Z @ 2555 NONAME
 ?DrawItem@CButton@@UAEXPAUtagDRAWITEMSTRUCT@@@Z @ 2556 NONAME
 ?DrawItem@CCheckListBox@@UAEXPAUtagDRAWITEMSTRUCT@@@Z @ 2557 NONAME
 ?DrawItem@CChevronOwnerDrawMenu@@UAEXPAUtagDRAWITEMSTRUCT@@@Z @ 2558 NONAME
 ?DrawItem@CComboBox@@UAEXPAUtagDRAWITEMSTRUCT@@@Z @ 2559 NONAME
 ?DrawItem@CHeaderCtrl@@UAEXPAUtagDRAWITEMSTRUCT@@@Z @ 2560 NONAME
 ?DrawItem@CListBox@@UAEXPAUtagDRAWITEMSTRUCT@@@Z @ 2561 NONAME
 ?DrawItem@CListCtrl@@UAEXPAUtagDRAWITEMSTRUCT@@@Z @ 2562 NONAME
 ?DrawItem@CListView@@UAEXPAUtagDRAWITEMSTRUCT@@@Z @ 2563 NONAME
 ?DrawItem@CMenu@@UAEXPAUtagDRAWITEMSTRUCT@@@Z @ 2564 NONAME
 ?DrawItem@CStatic@@UAEXPAUtagDRAWITEMSTRUCT@@@Z @ 2565 NONAME
 ?DrawItem@CStatusBar@@UAEXPAUtagDRAWITEMSTRUCT@@@Z @ 2566 NONAME
 ?DrawItem@CStatusBarCtrl@@UAEXPAUtagDRAWITEMSTRUCT@@@Z @ 2567 NONAME
 ?DrawItem@CTabCtrl@@UAEXPAUtagDRAWITEMSTRUCT@@@Z @ 2568 NONAME
 ?DrawMenuBar@CWnd@@QAEXXZ @ 2569 NONAME
 ?DrawMetafile@COleControl@@IAEXPAVCDC@@AAVCRect@@@Z @ 2570 NONAME
 ?DrawSingle@CDragListBox@@QAEXH@Z @ 2571 NONAME
 ?DrawState@CDC@@QAEHVCPoint@@VCSize@@P6GHPAUHDC__@@JIHH@ZJIPAUHBRUSH__@@@Z @ 2572 NONAME
 ?DrawState@CDC@@QAEHVCPoint@@VCSize@@P6GHPAUHDC__@@JIHH@ZJIPAVCBrush@@@Z @ 2573 NONAME
 ?DrawState@CDC@@QAEHVCPoint@@VCSize@@PAUHBITMAP__@@IPAUHBRUSH__@@@Z @ 2574 NONAME
 ?DrawState@CDC@@QAEHVCPoint@@VCSize@@PAUHICON__@@IPAUHBRUSH__@@@Z @ 2575 NONAME
 ?DrawState@CDC@@QAEHVCPoint@@VCSize@@PAUHICON__@@IPAVCBrush@@@Z @ 2576 NONAME
 ?DrawState@CDC@@QAEHVCPoint@@VCSize@@PAVCBitmap@@IPAVCBrush@@@Z @ 2577 NONAME
 ?DrawState@CDC@@QAEHVCPoint@@VCSize@@PBGIHHPAUHBRUSH__@@@Z @ 2578 NONAME
 ?DrawState@CDC@@QAEHVCPoint@@VCSize@@PBGIHHPAVCBrush@@@Z @ 2579 NONAME
 ?DrawTextW@CDC@@QAEHABV?$CStringT@GV?$StrTraitMFC@GV?$ChTraitsCRT@G@@@@@@PAUtagRECT@@I@Z @ 2580 NONAME
 ?DrawTextW@CDC@@UAEHPBGHPAUtagRECT@@I@Z @ 2581 NONAME
 ?DrawTextW@CMetaFileDC@@QAEHABV?$CStringT@GV?$StrTraitMFC@GV?$ChTraitsCRT@G@@@@@@PAUtagRECT@@I@Z @ 2582 NONAME
 ?DrawTextW@CMetaFileDC@@UAEHPBGHPAUtagRECT@@I@Z @ 2583 NONAME
 ?DrawTextW@CPreviewDC@@UAEHPBGHPAUtagRECT@@I@Z @ 2584 NONAME
 ?DrawTrackerRect@CRectTracker@@UAEXPBUtagRECT@@PAVCWnd@@PAVCDC@@1@Z @ 2585 NONAME
 ?Drop@XDropTarget@COleDropTarget@@UAGJPAUIDataObject@@KU_POINTL@@PAK@Z @ 2586 NONAME
 ?Dropped@CDragListBox@@UAEXHVCPoint@@@Z @ 2587 NONAME
 ?Dump@CArchiveException@@UBEXAAVCDumpContext@@@Z @ 2588 NONAME
 ?Dump@CAsyncMonikerFile@@UBEXAAVCDumpContext@@@Z @ 2589 NONAME
 ?Dump@CAsyncSocket@@UBEXAAVCDumpContext@@@Z @ 2590 NONAME
 ?Dump@CBitmap@@UBEXAAVCDumpContext@@@Z @ 2591 NONAME
 ?Dump@CBitmapButton@@UBEXAAVCDumpContext@@@Z @ 2592 NONAME
 ?Dump@CBrush@@UBEXAAVCDumpContext@@@Z @ 2593 NONAME
 ?Dump@CByteArray@@UBEXAAVCDumpContext@@@Z @ 2594 NONAME
 ?Dump@CCachedDataPathProperty@@UBEXAAVCDumpContext@@@Z @ 2595 NONAME
 ?Dump@CClientDC@@UBEXAAVCDumpContext@@@Z @ 2596 NONAME
 ?Dump@CCmdTarget@@UBEXAAVCDumpContext@@@Z @ 2597 NONAME
 ?Dump@CColorDialog@@UBEXAAVCDumpContext@@@Z @ 2598 NONAME
 ?Dump@CControlBar@@UBEXAAVCDumpContext@@@Z @ 2599 NONAME
 ?Dump@CCtrlView@@UBEXAAVCDumpContext@@@Z @ 2600 NONAME
 ?Dump@CDatabase@@UBEXAAVCDumpContext@@@Z @ 2601 NONAME
 ?Dump@CDataPathProperty@@UBEXAAVCDumpContext@@@Z @ 2602 NONAME
 ?Dump@CDC@@UBEXAAVCDumpContext@@@Z @ 2603 NONAME
 ?Dump@CDialog@@UBEXAAVCDumpContext@@@Z @ 2604 NONAME
 ?Dump@CDocItem@@UBEXAAVCDumpContext@@@Z @ 2605 NONAME
 ?Dump@CDockBar@@UBEXAAVCDumpContext@@@Z @ 2606 NONAME
 ?Dump@CDocManager@@UBEXAAVCDumpContext@@@Z @ 2607 NONAME
 ?Dump@CDocObjectServer@@MBEXAAVCDumpContext@@@Z @ 2608 NONAME
 ?Dump@CDocObjectServerItem@@UBEXAAVCDumpContext@@@Z @ 2609 NONAME
 ?Dump@CDocTemplate@@UBEXAAVCDumpContext@@@Z @ 2610 NONAME
 ?Dump@CDocument@@UBEXAAVCDumpContext@@@Z @ 2611 NONAME
 ?Dump@CDWordArray@@UBEXAAVCDumpContext@@@Z @ 2612 NONAME
 ?Dump@CDynLinkLibrary@@UBEXAAVCDumpContext@@@Z @ 2613 NONAME
 ?Dump@CEditView@@UBEXAAVCDumpContext@@@Z @ 2614 NONAME
 ?Dump@CFile@@UBEXAAVCDumpContext@@@Z @ 2615 NONAME
 ?Dump@CFileDialog@@UBEXAAVCDumpContext@@@Z @ 2616 NONAME
 ?Dump@CFileException@@UBEXAAVCDumpContext@@@Z @ 2617 NONAME
 ?Dump@CFileFind@@MBEXAAVCDumpContext@@@Z @ 2618 NONAME
 ?Dump@CFileStatus@@QBEXAAVCDumpContext@@@Z @ 2619 NONAME
 ?Dump@CFindReplaceDialog@@UBEXAAVCDumpContext@@@Z @ 2620 NONAME
 ?Dump@CFont@@UBEXAAVCDumpContext@@@Z @ 2621 NONAME
 ?Dump@CFontDialog@@UBEXAAVCDumpContext@@@Z @ 2622 NONAME
 ?Dump@CFormView@@UBEXAAVCDumpContext@@@Z @ 2623 NONAME
 ?Dump@CFrameWnd@@UBEXAAVCDumpContext@@@Z @ 2624 NONAME
 ?Dump@CFtpConnection@@UBEXAAVCDumpContext@@@Z @ 2625 NONAME
 ?Dump@CFtpFileFind@@UBEXAAVCDumpContext@@@Z @ 2626 NONAME
 ?Dump@CGdiObject@@UBEXAAVCDumpContext@@@Z @ 2627 NONAME
 ?Dump@CGopherConnection@@UBEXAAVCDumpContext@@@Z @ 2628 NONAME
 ?Dump@CGopherFile@@UBEXAAVCDumpContext@@@Z @ 2629 NONAME
 ?Dump@CGopherFileFind@@UBEXAAVCDumpContext@@@Z @ 2630 NONAME
 ?Dump@CHtmlEditDoc@@UBEXAAVCDumpContext@@@Z @ 2631 NONAME
 ?Dump@CHtmlEditView@@UBEXAAVCDumpContext@@@Z @ 2632 NONAME
 ?Dump@CHtmlView@@UBEXAAVCDumpContext@@@Z @ 2633 NONAME
 ?Dump@CHttpConnection@@UBEXAAVCDumpContext@@@Z @ 2634 NONAME
 ?Dump@CHttpFile@@MBEXAAVCDumpContext@@@Z @ 2635 NONAME
 ?Dump@CImageList@@UBEXAAVCDumpContext@@@Z @ 2636 NONAME
 ?Dump@CInternetConnection@@UBEXAAVCDumpContext@@@Z @ 2637 NONAME
 ?Dump@CInternetException@@UBEXAAVCDumpContext@@@Z @ 2638 NONAME
 ?Dump@CInternetFile@@MBEXAAVCDumpContext@@@Z @ 2639 NONAME
 ?Dump@CInternetSession@@UBEXAAVCDumpContext@@@Z @ 2640 NONAME
 ?Dump@CLongBinary@@UBEXAAVCDumpContext@@@Z @ 2641 NONAME
 ?Dump@CMapPtrToPtr@@UBEXAAVCDumpContext@@@Z @ 2642 NONAME
 ?Dump@CMapPtrToWord@@UBEXAAVCDumpContext@@@Z @ 2643 NONAME
 ?Dump@CMapStringToOb@@UBEXAAVCDumpContext@@@Z @ 2644 NONAME
 ?Dump@CMapStringToPtr@@UBEXAAVCDumpContext@@@Z @ 2645 NONAME
 ?Dump@CMapStringToString@@UBEXAAVCDumpContext@@@Z @ 2646 NONAME
 ?Dump@CMapWordToOb@@UBEXAAVCDumpContext@@@Z @ 2647 NONAME
 ?Dump@CMapWordToPtr@@UBEXAAVCDumpContext@@@Z @ 2648 NONAME
 ?Dump@CMDIChildWnd@@UBEXAAVCDumpContext@@@Z @ 2649 NONAME
 ?Dump@CMDIFrameWnd@@UBEXAAVCDumpContext@@@Z @ 2650 NONAME
 ?Dump@CMemFile@@UBEXAAVCDumpContext@@@Z @ 2651 NONAME
 ?Dump@CMenu@@UBEXAAVCDumpContext@@@Z @ 2652 NONAME
 ?Dump@CMonikerFile@@UBEXAAVCDumpContext@@@Z @ 2653 NONAME
 ?Dump@CMultiDocTemplate@@UBEXAAVCDumpContext@@@Z @ 2654 NONAME
 ?Dump@CObArray@@UBEXAAVCDumpContext@@@Z @ 2655 NONAME
 ?Dump@CObject@@UBEXAAVCDumpContext@@@Z @ 2656 NONAME
 ?Dump@CObList@@UBEXAAVCDumpContext@@@Z @ 2657 NONAME
 ?Dump@COleBusyDialog@@UBEXAAVCDumpContext@@@Z @ 2658 NONAME
 ?Dump@COleChangeIconDialog@@UBEXAAVCDumpContext@@@Z @ 2659 NONAME
 ?Dump@COleChangeSourceDialog@@UBEXAAVCDumpContext@@@Z @ 2660 NONAME
 ?Dump@COleClientItem@@UBEXAAVCDumpContext@@@Z @ 2661 NONAME
 ?Dump@COleControl@@UBEXAAVCDumpContext@@@Z @ 2662 NONAME
 ?Dump@COleConvertDialog@@UBEXAAVCDumpContext@@@Z @ 2663 NONAME
 ?Dump@COleDataSource@@UBEXAAVCDumpContext@@@Z @ 2664 NONAME
 ?Dump@COleDialog@@UBEXAAVCDumpContext@@@Z @ 2665 NONAME
 ?Dump@COleDocIPFrameWnd@@UBEXAAVCDumpContext@@@Z @ 2666 NONAME
 ?Dump@COleDocument@@UBEXAAVCDumpContext@@@Z @ 2667 NONAME
 ?Dump@COleDropSource@@UBEXAAVCDumpContext@@@Z @ 2668 NONAME
 ?Dump@COleDropTarget@@UBEXAAVCDumpContext@@@Z @ 2669 NONAME
 ?Dump@COleInsertDialog@@UBEXAAVCDumpContext@@@Z @ 2670 NONAME
 ?Dump@COleIPFrameWnd@@UBEXAAVCDumpContext@@@Z @ 2671 NONAME
 ?Dump@COleLinkingDoc@@UBEXAAVCDumpContext@@@Z @ 2672 NONAME
 ?Dump@COleLinksDialog@@UBEXAAVCDumpContext@@@Z @ 2673 NONAME
 ?Dump@COleMessageFilter@@UBEXAAVCDumpContext@@@Z @ 2674 NONAME
 ?Dump@COleObjectFactory@@UBEXAAVCDumpContext@@@Z @ 2675 NONAME
 ?Dump@COlePasteSpecialDialog@@UBEXAAVCDumpContext@@@Z @ 2676 NONAME
 ?Dump@COlePropertiesDialog@@UBEXAAVCDumpContext@@@Z @ 2677 NONAME
 ?Dump@COleServerDoc@@UBEXAAVCDumpContext@@@Z @ 2678 NONAME
 ?Dump@COleServerItem@@UBEXAAVCDumpContext@@@Z @ 2679 NONAME
 ?Dump@COleStreamFile@@UBEXAAVCDumpContext@@@Z @ 2680 NONAME
 ?Dump@COleUpdateDialog@@UBEXAAVCDumpContext@@@Z @ 2681 NONAME
 ?Dump@CPageSetupDialog@@UBEXAAVCDumpContext@@@Z @ 2682 NONAME
 ?Dump@CPaintDC@@UBEXAAVCDumpContext@@@Z @ 2683 NONAME
 ?Dump@CPen@@UBEXAAVCDumpContext@@@Z @ 2684 NONAME
 ?Dump@CPreviewDC@@UBEXAAVCDumpContext@@@Z @ 2685 NONAME
 ?Dump@CPreviewView@@UBEXAAVCDumpContext@@@Z @ 2686 NONAME
 ?Dump@CPrintDialog@@UBEXAAVCDumpContext@@@Z @ 2687 NONAME
 ?Dump@CPrintDialogEx@@UBEXAAVCDumpContext@@@Z @ 2688 NONAME
 ?Dump@CPropertyPage@@UBEXAAVCDumpContext@@@Z @ 2689 NONAME
 ?Dump@CPropertySheet@@UBEXAAVCDumpContext@@@Z @ 2690 NONAME
 ?Dump@CPtrArray@@UBEXAAVCDumpContext@@@Z @ 2691 NONAME
 ?Dump@CPtrList@@UBEXAAVCDumpContext@@@Z @ 2692 NONAME
 ?Dump@CRecordset@@UBEXAAVCDumpContext@@@Z @ 2693 NONAME
 ?Dump@CRecordView@@UBEXAAVCDumpContext@@@Z @ 2694 NONAME
 ?Dump@CRichEditCntrItem@@UBEXAAVCDumpContext@@@Z @ 2695 NONAME
 ?Dump@CRichEditDoc@@UBEXAAVCDumpContext@@@Z @ 2696 NONAME
 ?Dump@CRichEditView@@UBEXAAVCDumpContext@@@Z @ 2697 NONAME
 ?Dump@CScrollView@@UBEXAAVCDumpContext@@@Z @ 2698 NONAME
 ?Dump@CSingleDocTemplate@@UBEXAAVCDumpContext@@@Z @ 2699 NONAME
 ?Dump@CSocket@@MBEXAAVCDumpContext@@@Z @ 2700 NONAME
 ?Dump@CSocketFile@@UBEXAAVCDumpContext@@@Z @ 2701 NONAME
 ?Dump@CSplitterWnd@@UBEXAAVCDumpContext@@@Z @ 2702 NONAME
 ?Dump@CStatusBar@@UBEXAAVCDumpContext@@@Z @ 2703 NONAME
 ?Dump@CStdioFile@@UBEXAAVCDumpContext@@@Z @ 2704 NONAME
 ?Dump@CStringArray@@UBEXAAVCDumpContext@@@Z @ 2705 NONAME
 ?Dump@CStringList@@UBEXAAVCDumpContext@@@Z @ 2706 NONAME
 ?Dump@CSyncObject@@UBEXAAVCDumpContext@@@Z @ 2707 NONAME
 ?Dump@CToolBar@@UBEXAAVCDumpContext@@@Z @ 2708 NONAME
 ?Dump@CUIntArray@@UBEXAAVCDumpContext@@@Z @ 2709 NONAME
 ?Dump@CView@@UBEXAAVCDumpContext@@@Z @ 2710 NONAME
 ?Dump@CWinApp@@UBEXAAVCDumpContext@@@Z @ 2711 NONAME
 ?Dump@CWindowDC@@UBEXAAVCDumpContext@@@Z @ 2712 NONAME
 ?Dump@CWinThread@@UBEXAAVCDumpContext@@@Z @ 2713 NONAME
 ?Dump@CWnd@@UBEXAAVCDumpContext@@@Z @ 2714 NONAME
 ?Dump@CWordArray@@UBEXAAVCDumpContext@@@Z @ 2715 NONAME
 ?DumpAllObjectsSince@CMemoryState@@QBEXXZ @ 2716 NONAME
 ?DumpElements@@YGXAAVCDumpContext@@PBVCOleVariant@@H@Z @ 2717 NONAME
 ?DumpFields@CRecordset@@QBEXAAVCDumpContext@@@Z @ 2718 NONAME
 ?DumpStatistics@CMemoryState@@QBEXXZ @ 2719 NONAME
 ?DUnadvise@XDataObject@COleControl@@UAGJK@Z @ 2720 NONAME
 ?DUnadvise@XDataObject@COleDataSource@@UAGJK@Z @ 2721 NONAME
 ?DUnadvise@XDataObject@COleServerDoc@@UAGJK@Z @ 2722 NONAME
 ?DUnadvise@XDataObject@COleServerItem@@UAGJK@Z @ 2723 NONAME
 ?Duplicate@CFile@@UBEPAV1@XZ @ 2724 NONAME
 ?Duplicate@CInternetFile@@UBEPAVCFile@@XZ @ 2725 NONAME
 ?Duplicate@CMemFile@@UBEPAVCFile@@XZ @ 2726 NONAME
 ?Duplicate@COleStreamFile@@UBEPAVCFile@@XZ @ 2727 NONAME
 ?Duplicate@CSocketFile@@UBEPAVCFile@@XZ @ 2728 NONAME
 ?Duplicate@CStdioFile@@UBEPAVCFile@@XZ @ 2729 NONAME
 ?dwStyleDefault@CEditView@@2KB @ 2730 NONAME DATA
 ?Edit@CRecordset@@UAEXXZ @ 2731 NONAME
 ?EditFilter@CHeaderCtrl@@QAEHHH@Z @ 2732 NONAME
 ?EditLabel@CListCtrl@@QAEPAVCEdit@@H@Z @ 2733 NONAME
 ?EditLabel@CTreeCtrl@@QAEPAVCEdit@@PAU_TREEITEM@@@Z @ 2734 NONAME
 ?EditProperty@XPropertyPage@COlePropertyPage@@UAGJJ@Z @ 2735 NONAME
 ?EditStreamCallBack@CRichEditView@@SGKKPAEJPAJ@Z @ 2736 NONAME
 ?ElementAt@CByteArray@@QAEAAEH@Z @ 2737 NONAME
 ?ElementAt@CDWordArray@@QAEAAKH@Z @ 2738 NONAME
 ?ElementAt@CObArray@@QAEAAPAVCObject@@H@Z @ 2739 NONAME
 ?ElementAt@CPtrArray@@QAEAAPAXH@Z @ 2740 NONAME
 ?ElementAt@CStringArray@@QAEAAV?$CStringT@GV?$StrTraitMFC@GV?$ChTraitsCRT@G@@@@@@H@Z @ 2741 NONAME
 ?ElementAt@CUIntArray@@QAEAAIH@Z @ 2742 NONAME
 ?ElementAt@CWordArray@@QAEAAGH@Z @ 2743 NONAME
 ?Ellipse@CDC@@QAEHHHHH@Z @ 2744 NONAME
 ?Ellipse@CDC@@QAEHPBUtagRECT@@@Z @ 2745 NONAME
 ?Empty@CDBException@@QAEXXZ @ 2746 NONAME
 ?Empty@COleDataSource@@QAEXXZ @ 2747 NONAME
 ?EmptyUndoBuffer@CEdit@@QAEXXZ @ 2748 NONAME
 ?EmptyUndoBuffer@CRichEditCtrl@@QAEXXZ @ 2749 NONAME
 ?Enable@CCheckListBox@@QAEXHH@Z @ 2750 NONAME
 ?Enable@CCmdUI@@UAEXH@Z @ 2751 NONAME
 ?Enable@COleCmdUI@@UAEXH@Z @ 2752 NONAME
 ?Enable@CStatusCmdUI@@UAEXH@Z @ 2753 NONAME
 ?Enable@CTestCmdUI@@UAEXH@Z @ 2754 NONAME
 ?Enable@CToolCmdUI@@UAEXH@Z @ 2755 NONAME
 ?Enable3dControls@CWinApp@@IAEHXZ @ 2756 NONAME
 ?EnableActiveAccessibility@CWnd@@QAEXXZ @ 2757 NONAME
 ?EnableAggregation@CCmdTarget@@QAEXXZ @ 2758 NONAME
 ?EnableAutomation@CCmdTarget@@QAEXXZ @ 2759 NONAME
 ?EnableBookmarks@CRecordset@@IAEXXZ @ 2760 NONAME
 ?EnableBusyDialog@COleMessageFilter@@QAEXH@Z @ 2761 NONAME
 ?EnableButton@CToolBarCtrl@@QAEHHH@Z @ 2762 NONAME
 ?EnableCompoundFile@COleDocument@@QAEXH@Z @ 2763 NONAME
 ?EnableConnections@CCmdTarget@@QAEXXZ @ 2764 NONAME
 ?EnableDocking@CControlBar@@QAEXK@Z @ 2765 NONAME
 ?EnableDocking@CFrameWnd@@QAEXK@Z @ 2766 NONAME
 ?EnableDocking@CReBar@@QAEXK@Z @ 2767 NONAME
 ?EnableDocking@CStatusBar@@QAEXK@Z @ 2768 NONAME
 ?EnableDSC@COleControlSite@@UAEXXZ @ 2769 NONAME
 ?EnableHtmlHelp@CWinApp@@QAEXXZ @ 2770 NONAME
 ?EnableMenuItem@CMenu@@QAEIII@Z @ 2771 NONAME
 ?EnableModeless@CBrowserControlSite@@MAGJH@Z @ 2772 NONAME
 ?EnableModeless@CDHtmlDialog@@UAGJH@Z @ 2773 NONAME
 ?EnableModeless@CWinApp@@QAEXH@Z @ 2774 NONAME
 ?EnableModeless@XDocHostUIHandler@CHtmlControlSite@@UAGJH@Z @ 2775 NONAME
 ?EnableModeless@XOleInPlaceActiveObject@COleControl@@UAGJH@Z @ 2776 NONAME
 ?EnableModeless@XOleInPlaceActiveObject@COleServerDoc@@UAGJH@Z @ 2777 NONAME
 ?EnableModeless@XOleInPlaceFrame@COleFrameHook@@UAGJH@Z @ 2778 NONAME
 ?EnableModeless@XOleIPFrame@COleControlContainer@@UAGJH@Z @ 2779 NONAME
 ?EnableNotRespondingDialog@COleMessageFilter@@QAEXH@Z @ 2780 NONAME
 ?EnableScrollBar@CScrollBar@@QAEHI@Z @ 2781 NONAME
 ?EnableScrollBar@CWnd@@QAEHHI@Z @ 2782 NONAME
 ?EnableScrollBarCtrl@CWnd@@QAEXHH@Z @ 2783 NONAME
 ?EnableShellOpen@CWinApp@@IAEXXZ @ 2784 NONAME
 ?EnableSimpleFrame@COleControl@@QAEXXZ @ 2785 NONAME
 ?EnableStackedTabs@CPropertySheet@@QAEXH@Z @ 2786 NONAME
 ?EnableStatusCallback@CInternetSession@@QAEHH@Z @ 2787 NONAME
 ?EnableToolTips@CWnd@@QAEHH@Z @ 2788 NONAME
 ?EnableTrackingToolTips@CWnd@@QAEHH@Z @ 2789 NONAME
 ?EnableTypeLib@CCmdTarget@@QAEXXZ @ 2790 NONAME
 ?EnableWindow@COleControlSite@@UAEHH@Z @ 2791 NONAME
 ?EnableWindow@CWnd@@QAEHH@Z @ 2792 NONAME
 ?EndBusyState@COleMessageFilter@@UAEXXZ @ 2793 NONAME
 ?EndCallbacks@CAsyncMonikerFile@@IAEXXZ @ 2794 NONAME
 ?EndDeferErrors@COleLinkingDoc@@QAEJJ@Z @ 2795 NONAME
 ?EndDialog@CDialog@@QAEXH@Z @ 2796 NONAME
 ?EndDialog@CPropertyPage@@QAEXH@Z @ 2797 NONAME
 ?EndDialog@CPropertySheet@@QAEXH@Z @ 2798 NONAME
 ?EndDoc@CDC@@QAEHXZ @ 2799 NONAME
 ?EndDrag@CDockContext@@QAEXXZ @ 2800 NONAME
 ?EndDrag@CImageList@@SGXXZ @ 2801 NONAME
 ?EndDrag@CReBarCtrl@@QAEXXZ @ 2802 NONAME
 ?EndModalLoop@CWnd@@UAEXH@Z @ 2803 NONAME
 ?EndModalState@CFrameWnd@@UAEXXZ @ 2804 NONAME
 ?EndModalState@CWnd@@UAEXXZ @ 2805 NONAME
 ?EndPage@CDC@@QAEHXZ @ 2806 NONAME
 ?EndPaint@CWnd@@QAEXPAUtagPAINTSTRUCT@@@Z @ 2807 NONAME
 ?EndPath@CDC@@QAEHXZ @ 2808 NONAME
 ?EndRequest@CHttpFile@@QAEHKPAU_INTERNET_BUFFERSW@@K@Z @ 2809 NONAME
 ?EndResize@CDockContext@@QAEXXZ @ 2810 NONAME
 ?EndWaitCursor@CCmdTarget@@QAEXXZ @ 2811 NONAME
 ?EnsureClipboardObject@COleDataObject@@QAEXXZ @ 2812 NONAME
 ?EnsureStdObj@CWnd@@UAEJXZ @ 2813 NONAME
 ?EnsureVisible@CListCtrl@@QAEHHH@Z @ 2814 NONAME
 ?EnsureVisible@CTreeCtrl@@QAEHPAU_TREEITEM@@@Z @ 2815 NONAME
 ?EnumAdvise@XOleObject@CDocObjectServer@@UAGJPAPAUIEnumSTATDATA@@@Z @ 2816 NONAME
 ?EnumAdvise@XOleObject@COleControl@@UAGJPAPAUIEnumSTATDATA@@@Z @ 2817 NONAME
 ?EnumAdvise@XOleObject@COleServerDoc@@UAGJPAPAUIEnumSTATDATA@@@Z @ 2818 NONAME
 ?EnumAdvise@XOleObject@COleServerItem@@UAGJPAPAUIEnumSTATDATA@@@Z @ 2819 NONAME
 ?EnumCache@XOleCache@COleControl@@UAGJPAPAUIEnumSTATDATA@@@Z @ 2820 NONAME
 ?EnumChildProc@COlePropertyPage@@KGHPAUHWND__@@J@Z @ 2821 NONAME
 ?EnumConnectionPoints@COleConnPtContainer@@UAGJPAPAUIEnumConnectionPoints@@@Z @ 2822 NONAME
 ?EnumConnections@XConnPt@CConnectionPoint@@UAGJPAPAUIEnumConnections@@@Z @ 2823 NONAME
 ?EnumControls@COlePropertyPage@@KGHPAUHWND__@@J@Z @ 2824 NONAME
 ?EnumDAdvise@XDataObject@COleControl@@UAGJPAPAUIEnumSTATDATA@@@Z @ 2825 NONAME
 ?EnumDAdvise@XDataObject@COleDataSource@@UAGJPAPAUIEnumSTATDATA@@@Z @ 2826 NONAME
 ?EnumDAdvise@XDataObject@COleServerDoc@@UAGJPAPAUIEnumSTATDATA@@@Z @ 2827 NONAME
 ?EnumDAdvise@XDataObject@COleServerItem@@UAGJPAPAUIEnumSTATDATA@@@Z @ 2828 NONAME
 ?EnumFormatEtc@XDataObject@COleControl@@UAGJKPAPAUIEnumFORMATETC@@@Z @ 2829 NONAME
 ?EnumFormatEtc@XDataObject@COleDataSource@@UAGJKPAPAUIEnumFORMATETC@@@Z @ 2830 NONAME
 ?EnumFormatEtc@XDataObject@COleServerDoc@@UAGJKPAPAUIEnumFORMATETC@@@Z @ 2831 NONAME
 ?EnumFormatEtc@XDataObject@COleServerItem@@UAGJKPAPAUIEnumFORMATETC@@@Z @ 2832 NONAME
 ?EnumObjects@CDC@@QAEHHP6GHPAXJ@ZJ@Z @ 2833 NONAME
 ?EnumObjects@XOleContainer@COleControlContainer@@UAGJKPAPAUIEnumUnknown@@@Z @ 2834 NONAME
 ?EnumObjects@XOleItemContainer@COleLinkingDoc@@UAGJKPAPAUIEnumUnknown@@@Z @ 2835 NONAME
 ?EnumOleVerbs@CCmdTarget@@QAEHPAPAUIEnumOLEVERB@@@Z @ 2836 NONAME
 ?EnumVerbs@XOleObject@CDocObjectServer@@UAGJPAPAUIEnumOLEVERB@@@Z @ 2837 NONAME
 ?EnumVerbs@XOleObject@COleControl@@UAGJPAPAUIEnumOLEVERB@@@Z @ 2838 NONAME
 ?EnumVerbs@XOleObject@COleServerDoc@@UAGJPAPAUIEnumOLEVERB@@@Z @ 2839 NONAME
 ?EnumVerbs@XOleObject@COleServerItem@@UAGJPAPAUIEnumOLEVERB@@@Z @ 2840 NONAME
 ?EnumViews@XOleDocument@CDocObjectServer@@UAGJPAPAUIEnumOleDocumentViews@@PAPAUIOleDocumentView@@@Z @ 2841 NONAME
 ?EqualRgn@CRgn@@QBEHPAV1@@Z @ 2842 NONAME
 ?EraseNonClient@CControlBar@@QAEXXZ @ 2843 NONAME
 ?ErrnoToException@CFileException@@SGHH@Z @ 2844 NONAME
 ?ErrorDlg@CHttpFile@@QAEKPAVCWnd@@KKPAPAX@Z @ 2845 NONAME
 ?Escape@CDC@@QAEHHHPBDHPAD@Z @ 2846 NONAME
 ?Escape@CDC@@UAEHHHPBDPAX@Z @ 2847 NONAME
 ?Escape@CMetaFileDC@@UAEHHHPBDPAX@Z @ 2848 NONAME
 ?Escape@CPreviewDC@@UAEHHHPBDPAX@Z @ 2849 NONAME
 ?ExchangeBlobProp@CArchivePropExchange@@UAEHPBGPAPAXPAX@Z @ 2850 NONAME
 ?ExchangeBlobProp@CAsyncPropExchange@@UAEHPBGPAPAXPAX@Z @ 2851 NONAME
 ?ExchangeBlobProp@CPropbagPropExchange@@UAEHPBGPAPAXPAX@Z @ 2852 NONAME
 ?ExchangeBlobProp@CPropsetPropExchange@@UAEHPBGPAPAXPAX@Z @ 2853 NONAME
 ?ExchangeBlobProp@CResetPropExchange@@UAEHPBGPAPAXPAX@Z @ 2854 NONAME
 ?ExchangeExtent@COleControl@@QAEHPAVCPropExchange@@@Z @ 2855 NONAME
 ?ExchangeFontProp@CArchivePropExchange@@UAEHPBGAAVCFontHolder@@PBUtagFONTDESC@@PAUIFontDisp@@@Z @ 2856 NONAME
 ?ExchangeFontProp@CAsyncPropExchange@@UAEHPBGAAVCFontHolder@@PBUtagFONTDESC@@PAUIFontDisp@@@Z @ 2857 NONAME
 ?ExchangeFontProp@CPropbagPropExchange@@UAEHPBGAAVCFontHolder@@PBUtagFONTDESC@@PAUIFontDisp@@@Z @ 2858 NONAME
 ?ExchangeFontProp@CPropsetPropExchange@@UAEHPBGAAVCFontHolder@@PBUtagFONTDESC@@PAUIFontDisp@@@Z @ 2859 NONAME
 ?ExchangeFontProp@CResetPropExchange@@UAEHPBGAAVCFontHolder@@PBUtagFONTDESC@@PAUIFontDisp@@@Z @ 2860 NONAME
 ?ExchangePersistentProp@CArchivePropExchange@@UAEHPBGPAPAUIUnknown@@ABU_GUID@@PAU2@@Z @ 2861 NONAME
 ?ExchangePersistentProp@CAsyncPropExchange@@UAEHPBGPAPAUIUnknown@@ABU_GUID@@PAU2@@Z @ 2862 NONAME
 ?ExchangePersistentProp@CPropbagPropExchange@@UAEHPBGPAPAUIUnknown@@ABU_GUID@@PAU2@@Z @ 2863 NONAME
 ?ExchangePersistentProp@CPropsetPropExchange@@UAEHPBGPAPAUIUnknown@@ABU_GUID@@PAU2@@Z @ 2864 NONAME
 ?ExchangePersistentProp@CResetPropExchange@@UAEHPBGPAPAUIUnknown@@ABU_GUID@@PAU2@@Z @ 2865 NONAME
 ?ExchangeProp@CArchivePropExchange@@UAEHPBGGPAXPBX@Z @ 2866 NONAME
 ?ExchangeProp@CAsyncPropExchange@@UAEHPBGGPAXPBX@Z @ 2867 NONAME
 ?ExchangeProp@CPropbagPropExchange@@UAEHPBGGPAXPBX@Z @ 2868 NONAME
 ?ExchangeProp@CPropsetPropExchange@@UAEHPBGGPAXPBX@Z @ 2869 NONAME
 ?ExchangeProp@CResetPropExchange@@UAEHPBGGPAXPBX@Z @ 2870 NONAME
 ?ExchangeStockProps@COleControl@@QAEXPAVCPropExchange@@@Z @ 2871 NONAME
 ?ExchangeVersion@CAsyncPropExchange@@UAEHAAKKH@Z @ 2872 NONAME
 ?ExchangeVersion@COleControl@@QAEHPAVCPropExchange@@KH@Z @ 2873 NONAME
 ?ExchangeVersion@CPropExchange@@UAEHAAKKH@Z @ 2874 NONAME
 ?ExcludeClipRect@CDC@@QAEHHHHH@Z @ 2875 NONAME
 ?ExcludeClipRect@CDC@@QAEHPBUtagRECT@@@Z @ 2876 NONAME
 ?ExcludeUpdateRgn@CDC@@QAEHPAVCWnd@@@Z @ 2877 NONAME
 ?Exec@XOleCommandTarget@CDocObjectServer@@UAGJPBU_GUID@@KKPAUtagVARIANT@@1@Z @ 2878 NONAME
 ?Exec@XOleCommandTarget@COleFrameHook@@UAGJPBU_GUID@@KKPAUtagVARIANT@@1@Z @ 2879 NONAME
 ?ExecCommand@COleDocObjectItem@@QAEJKKPBU_GUID@@@Z @ 2880 NONAME
 ?ExecFormsCommand@CHtmlView@@QAEJKPAUtagVARIANT@@0@Z @ 2881 NONAME
 ?ExecuteDlgInit@CWnd@@QAEHPAX@Z @ 2882 NONAME
 ?ExecuteDlgInit@CWnd@@QAEHPBG@Z @ 2883 NONAME
 ?ExecuteSetPosUpdate@CRecordset@@IAEXXZ @ 2884 NONAME
 ?ExecuteSQL@CDatabase@@QAEXPBG@Z @ 2885 NONAME
 ?ExecuteUpdateSQL@CRecordset@@IAEXXZ @ 2886 NONAME
 ?ExecWB@CHtmlView@@QAEXW4OLECMDID@@W4OLECMDEXECOPT@@PAUtagVARIANT@@2@Z @ 2887 NONAME
 ?ExitHelpMode@CFrameWnd@@UAEXXZ @ 2888 NONAME
 ?ExitInstance@COleControlModule@@UAEHXZ @ 2889 NONAME
 ?ExitInstance@CWinApp@@UAEHXZ @ 2890 NONAME
 ?ExitInstance@CWinThread@@UAEHXZ @ 2891 NONAME
 ?Expand@CTreeCtrl@@QAEHPAU_TREEITEM@@I@Z @ 2892 NONAME
 ?ExternalAddRef@CCmdTarget@@QAEKXZ @ 2893 NONAME
 ?ExternalDisconnect@CCmdTarget@@QAEXXZ @ 2894 NONAME
 ?ExternalQueryInterface@CCmdTarget@@QAEKPBXPAPAX@Z @ 2895 NONAME
 ?ExternalRelease@CCmdTarget@@QAEKXZ @ 2896 NONAME
 ?ExtFloodFill@CDC@@QAEHHHKI@Z @ 2897 NONAME
 ?ExtractIconW@CImageList@@QAEPAUHICON__@@H@Z @ 2898 NONAME
 ?ExtTextOutW@CDC@@QAEHHHIPBUtagRECT@@ABV?$CStringT@GV?$StrTraitMFC@GV?$ChTraitsCRT@G@@@@@@PAH@Z @ 2899 NONAME
 ?ExtTextOutW@CDC@@UAEHHHIPBUtagRECT@@PBGIPAH@Z @ 2900 NONAME
 ?ExtTextOutW@CMetaFileDC@@QAEHHHIPBUtagRECT@@ABV?$CStringT@GV?$StrTraitMFC@GV?$ChTraitsCRT@G@@@@@@PAH@Z @ 2901 NONAME
 ?ExtTextOutW@CMetaFileDC@@UAEHHHIPBUtagRECT@@PBGIPAH@Z @ 2902 NONAME
 ?ExtTextOutW@CPreviewDC@@UAEHHHIPBUtagRECT@@PBGIPAH@Z @ 2903 NONAME
 ?Fail@CDataExchange@@QAEXXZ @ 2904 NONAME
 ?FailedToDo@XNotifyDBEvents@COleControlSite@@UAGJKKQAUtagDBNOTIFYREASON@@@Z @ 2905 NONAME
 ?FetchData@CRecordset@@QAEFGJPAK@Z @ 2906 NONAME
 ?FillBuffer@CArchive@@QAEXI@Z @ 2907 NONAME
 ?FillInLogFont@CFontDialog@@QAEKABU_charformatw@@@Z @ 2908 NONAME
 ?FillInToolInfo@CToolTipCtrl@@QBEXAAUtagTOOLINFOW@@PAVCWnd@@I@Z @ 2909 NONAME
 ?FillOutsideRect@CScrollView@@QAEXPAVCDC@@PAVCBrush@@@Z @ 2910 NONAME
 ?FillPath@CDC@@QAEHXZ @ 2911 NONAME
 ?FillRect@CDC@@QAEXPBUtagRECT@@PAVCBrush@@@Z @ 2912 NONAME
 ?FillRgn@CDC@@QAEHPAVCRgn@@PAVCBrush@@@Z @ 2913 NONAME
 ?FillSolidRect@CDC@@QAEXHHHHK@Z @ 2914 NONAME
 ?FillSolidRect@CDC@@QAEXPBUtagRECT@@K@Z @ 2915 NONAME
 ?FilterDataObject@CBrowserControlSite@@MAGJPAUIDataObject@@PAPAU2@@Z @ 2916 NONAME
 ?FilterDataObject@CDHtmlDialog@@UAGJPAUIDataObject@@PAPAU2@@Z @ 2917 NONAME
 ?FilterDataObject@XDocHostUIHandler@CHtmlControlSite@@UAGJPAUIDataObject@@PAPAU3@@Z @ 2918 NONAME
 ?FilterToolTipMessage@CWnd@@QAEXPAUtagMSG@@@Z @ 2919 NONAME
 ?Find@CObList@@QBEPAU__POSITION@@PAVCObject@@PAU2@@Z @ 2920 NONAME
 ?Find@CPtrList@@QBEPAU__POSITION@@PAXPAU2@@Z @ 2921 NONAME
 ?Find@CStringList@@QBEPAU__POSITION@@PBGPAU2@@Z @ 2922 NONAME
 ?FindAndSelect@CRichEditView@@QAEJKAAU_findtextexw@@@Z @ 2923 NONAME
 ?FindBar@CDockBar@@QAEHPAVCControlBar@@H@Z @ 2924 NONAME
 ?FindConnectionPoint@COleConnPtContainer@@UAGJABU_GUID@@PAPAUIConnectionPoint@@@Z @ 2925 NONAME
 ?FindDHtmlEventEntry@CDHtmlEventSink@@QAEHPBUDHtmlEventMapEntry@@JPAPAUIHTMLElement@@@Z @ 2926 NONAME
 ?FindFile@CFileFind@@UAEHPBGK@Z @ 2927 NONAME
 ?FindFile@CFtpFileFind@@UAEHPBGK@Z @ 2928 NONAME
 ?FindFile@CGopherFileFind@@UAEHAAVCGopherLocator@@PBGK@Z @ 2929 NONAME
 ?FindFile@CGopherFileFind@@UAEHPBGK@Z @ 2930 NONAME
 ?FindIndex@CObList@@QBEPAU__POSITION@@H@Z @ 2931 NONAME
 ?FindIndex@CPtrList@@QBEPAU__POSITION@@H@Z @ 2932 NONAME
 ?FindIndex@CStringList@@QBEPAU__POSITION@@H@Z @ 2933 NONAME
 ?FindItem@CListCtrl@@QBEHPAUtagLVFINDINFOW@@H@Z @ 2934 NONAME
 ?FindItem@COleControlContainer@@UBEPAVCOleControlSite@@I@Z @ 2935 NONAME
 ?FindNext@CFindReplaceDialog@@QBEHXZ @ 2936 NONAME
 ?FindNextFileW@CFileFind@@UAEHXZ @ 2937 NONAME
 ?FindNextFileW@CFtpFileFind@@UAEHXZ @ 2938 NONAME
 ?FindNextFileW@CGopherFileFind@@UAEHXZ @ 2939 NONAME
 ?FindPageRect@CPreviewView@@IAEHAAVCPoint@@AAI@Z @ 2940 NONAME
 ?FindSinkForObject@CDHtmlDialog@@IAEHPBG@Z @ 2941 NONAME
 ?FindSQLToken@CRecordset@@SGPBGPBG0@Z @ 2942 NONAME
 ?FindString@CComboBox@@QBEHHPBG@Z @ 2943 NONAME
 ?FindString@CComboBoxEx@@QBEHHPBG@Z @ 2944 NONAME
 ?FindString@CListBox@@QBEHHPBG@Z @ 2945 NONAME
 ?FindStringExact@CComboBox@@QBEHHPBG@Z @ 2946 NONAME
 ?FindStringExact@CListBox@@QBEHHPBG@Z @ 2947 NONAME
 ?FindTextSimple@CRichEditView@@QAEHPAV_AFX_RICHEDIT_STATE@@@Z @ 2948 NONAME
 ?FindTextSimple@CRichEditView@@QAEHPBGHHH@Z @ 2949 NONAME
 ?FindTextW@CEditView@@QAEHPBGHH@Z @ 2950 NONAME
 ?FindTextW@CRichEditCtrl@@QBEJKPAU_findtextexw@@@Z @ 2951 NONAME
 ?FindTextW@CRichEditView@@QAEHPAV_AFX_RICHEDIT_STATE@@@Z @ 2952 NONAME
 ?FindTextW@CRichEditView@@QAEHPBGHHH@Z @ 2953 NONAME
 ?FindWindowW@CWnd@@SGPAV1@PBG0@Z @ 2954 NONAME
 ?FindWordBreak@CRichEditCtrl@@QBEKIK@Z @ 2955 NONAME
 ?FinishCreate@COleClientItem@@MAEHJ@Z @ 2956 NONAME
 ?FireClick@COleControl@@QAEXXZ @ 2957 NONAME
 ?FireDblClick@COleControl@@QAEXXZ @ 2958 NONAME
 ?FireError@COleControl@@QAEXJPBGI@Z @ 2959 NONAME
 ?FireEvent@COleControl@@QAAXJPAEZZ @ 2960 NONAME
 ?FireEvent@XNotifyDBEvents@COleControlSite@@QAEJKKQAUtagDBNOTIFYREASON@@W4DSCSTATE@@@Z @ 2961 NONAME
 ?FireEventV@COleControl@@IAEXJPAEPAD@Z @ 2962 NONAME
 ?FireKeyDown@COleControl@@QAEXPAGF@Z @ 2963 NONAME
 ?FireKeyPress@COleControl@@QAEXPAG@Z @ 2964 NONAME
 ?FireKeyUp@COleControl@@QAEXPAGF@Z @ 2965 NONAME
 ?FireMouseDown@COleControl@@QAEXFFJJ@Z @ 2966 NONAME
 ?FireMouseMove@COleControl@@QAEXFFJJ@Z @ 2967 NONAME
 ?FireMouseUp@COleControl@@QAEXFFJJ@Z @ 2968 NONAME
 ?FireReadyStateChange@COleControl@@QAEXXZ @ 2969 NONAME
 ?Fixups@CRecordset@@QAEXXZ @ 2970 NONAME
 ?FlashWindow@CWnd@@QAEHH@Z @ 2971 NONAME
 ?FlattenPath@CDC@@QAEHXZ @ 2972 NONAME
 ?FloatControlBar@CFrameWnd@@QAEXPAVCControlBar@@VCPoint@@K@Z @ 2973 NONAME
 ?FloodFill@CDC@@QAEHHHK@Z @ 2974 NONAME
 ?Flush@CArchive@@QAEXXZ @ 2975 NONAME
 ?Flush@CDumpContext@@QAEXXZ @ 2976 NONAME
 ?Flush@CFile@@UAEXXZ @ 2977 NONAME
 ?Flush@CInternetFile@@UAEXXZ @ 2978 NONAME
 ?Flush@CMemFile@@UAEXXZ @ 2979 NONAME
 ?Flush@CMonikerFile@@UAEXXZ @ 2980 NONAME
 ?Flush@COleStreamFile@@UAEXXZ @ 2981 NONAME
 ?Flush@CSocketFile@@UAEXXZ @ 2982 NONAME
 ?Flush@CStdioFile@@UAEXXZ @ 2983 NONAME
 ?FlushClipboard@COleDataSource@@SGXXZ @ 2984 NONAME
 ?FlushResultSet@CRecordset@@QAEHXZ @ 2985 NONAME
 ?FmtLines@CEdit@@QAEHH@Z @ 2986 NONAME
 ?Format@COleCurrency@@QBE?AV?$CStringT@GV?$StrTraitMFC@GV?$ChTraitsCRT@G@@@@@@KK@Z @ 2987 NONAME
 ?FormatRange@CRichEditCtrl@@QAEJPAU_formatrange@@H@Z @ 2988 NONAME
 ?ForwardActivationMsg@COleControl@@IAEXPAUtagMSG@@@Z @ 2989 NONAME
 ?FrameRect@CDC@@QAEXPBUtagRECT@@PAVCBrush@@@Z @ 2990 NONAME
 ?FrameRgn@CDC@@QAEHPAVCRgn@@PAVCBrush@@HH@Z @ 2991 NONAME
 ?Free@CAfxStringMgr@@UAEXPAUCStringData@ATL@@@Z @ 2992 NONAME
 ?Free@CDatabase@@IAEXXZ @ 2993 NONAME
 ?Free@CFixedAlloc@@QAEXPAX@Z @ 2994 NONAME
 ?Free@CFixedAllocNoSync@@QAEXPAX@Z @ 2995 NONAME
 ?Free@CMemFile@@MAEXPAE@Z @ 2996 NONAME
 ?Free@CSharedFile@@MAEXPAE@Z @ 2997 NONAME
 ?FreeAll@CFixedAlloc@@QAEXXZ @ 2998 NONAME
 ?FreeAll@CFixedAllocNoSync@@QAEXXZ @ 2999 NONAME
 ?FreeAssoc@CMapPtrToPtr@@IAEXPAUCAssoc@1@@Z @ 3000 NONAME
 ?FreeAssoc@CMapPtrToWord@@IAEXPAUCAssoc@1@@Z @ 3001 NONAME
 ?FreeAssoc@CMapStringToOb@@IAEXPAUCAssoc@1@@Z @ 3002 NONAME
 ?FreeAssoc@CMapStringToPtr@@IAEXPAUCAssoc@1@@Z @ 3003 NONAME
 ?FreeAssoc@CMapStringToString@@IAEXPAVCAssoc@1@@Z @ 3004 NONAME
 ?FreeAssoc@CMapWordToOb@@IAEXPAUCAssoc@1@@Z @ 3005 NONAME
 ?FreeAssoc@CMapWordToPtr@@IAEXPAUCAssoc@1@@Z @ 3006 NONAME
 ?FreeDataCache@CRecordset@@QAEXXZ @ 3007 NONAME
 ?FreeDataChain@CPlex@@QAEXXZ @ 3008 NONAME
 ?FreeExtra@CByteArray@@QAEXXZ @ 3009 NONAME
 ?FreeExtra@CDWordArray@@QAEXXZ @ 3010 NONAME
 ?FreeExtra@CObArray@@QAEXXZ @ 3011 NONAME
 ?FreeExtra@CPtrArray@@QAEXXZ @ 3012 NONAME
 ?FreeExtra@CStringArray@@QAEXXZ @ 3013 NONAME
 ?FreeExtra@CUIntArray@@QAEXXZ @ 3014 NONAME
 ?FreeExtra@CWordArray@@QAEXXZ @ 3015 NONAME
 ?FreeNode@CObList@@IAEXPAUCNode@1@@Z @ 3016 NONAME
 ?FreeNode@CPtrList@@IAEXPAUCNode@1@@Z @ 3017 NONAME
 ?FreeNode@CStringList@@IAEXPAUCNode@1@@Z @ 3018 NONAME
 ?FreeRowset@CRecordset@@IAEXXZ @ 3019 NONAME
 ?FreeSlot@CThreadSlotData@@QAEXH@Z @ 3020 NONAME
 ?FreeValue@CProperty@@AAEXXZ @ 3021 NONAME
 ?Freeze@XViewObject@COleControl@@UAGJKJPAXPAK@Z @ 3022 NONAME
 ?FreezeAllEvents@COleControlContainer@@QAEXH@Z @ 3023 NONAME
 ?FreezeEvents@COleControlSite@@QAEXH@Z @ 3024 NONAME
 ?FreezeEvents@XOleControl@COleControl@@UAGJH@Z @ 3025 NONAME
 ?FreezeLink@COleClientItem@@UAEHXZ @ 3026 NONAME
 ?FromHandle@CAsyncSocket@@SGPAV1@I@Z @ 3027 NONAME
 ?FromHandle@CBitmap@@SGPAV1@PAUHBITMAP__@@@Z @ 3028 NONAME
 ?FromHandle@CBrush@@SGPAV1@PAUHBRUSH__@@@Z @ 3029 NONAME
 ?FromHandle@CDC@@SGPAV1@PAUHDC__@@@Z @ 3030 NONAME
 ?FromHandle@CFont@@SGPAV1@PAUHFONT__@@@Z @ 3031 NONAME
 ?FromHandle@CGdiObject@@SGPAV1@PAX@Z @ 3032 NONAME
 ?FromHandle@CHandleMap@@QAEPAVCObject@@PAX@Z @ 3033 NONAME
 ?FromHandle@CImageList@@SGPAV1@PAU_IMAGELIST@@@Z @ 3034 NONAME
 ?FromHandle@CMenu@@SGPAV1@PAUHMENU__@@@Z @ 3035 NONAME
 ?FromHandle@CPalette@@SGPAV1@PAUHPALETTE__@@@Z @ 3036 NONAME
 ?FromHandle@CPen@@SGPAV1@PAUHPEN__@@@Z @ 3037 NONAME
 ?FromHandle@CRgn@@SGPAV1@PAUHRGN__@@@Z @ 3038 NONAME
 ?FromHandle@CSocket@@SGPAV1@I@Z @ 3039 NONAME
 ?FromHandle@CWnd@@SGPAV1@PAUHWND__@@@Z @ 3040 NONAME
 ?FromHandlePermanent@CImageList@@SGPAV1@PAU_IMAGELIST@@@Z @ 3041 NONAME
 ?FromHandlePermanent@CMenu@@SGPAV1@PAUHMENU__@@@Z @ 3042 NONAME
 ?FromHandlePermanent@CWnd@@SGPAV1@PAUHWND__@@@Z @ 3043 NONAME
 ?FromIDispatch@CCmdTarget@@SGPAV1@PAUIDispatch@@@Z @ 3044 NONAME
 ?FromName@CRuntimeClass@@SGPAU1@PBD@Z @ 3045 NONAME
 ?FromName@CRuntimeClass@@SGPAU1@PBG@Z @ 3046 NONAME
 ?Get@CProperty@@QAEPAXPAK@Z @ 3047 NONAME
 ?Get@CProperty@@QAEPAXXZ @ 3048 NONAME
 ?Get@CPropertySection@@QAEPAXK@Z @ 3049 NONAME
 ?Get@CPropertySection@@QAEPAXKPAK@Z @ 3050 NONAME
 ?Get@CPropertySet@@QAEPAXU_GUID@@K@Z @ 3051 NONAME
 ?Get@CPropertySet@@QAEPAXU_GUID@@KPAK@Z @ 3052 NONAME
 ?get_accChild@CWnd@@UAEJUtagVARIANT@@PAPAUIDispatch@@@Z @ 3053 NONAME
 ?get_accChild@XAccessible@CWnd@@UAGJUtagVARIANT@@PAPAUIDispatch@@@Z @ 3054 NONAME
 ?get_accChildCount@CWnd@@UAEJPAJ@Z @ 3055 NONAME
 ?get_accChildCount@XAccessible@CWnd@@UAGJPAJ@Z @ 3056 NONAME
 ?get_accDefaultAction@CCheckListBox@@MAEJUtagVARIANT@@PAPAG@Z @ 3057 NONAME
 ?get_accDefaultAction@CWnd@@UAEJUtagVARIANT@@PAPAG@Z @ 3058 NONAME
 ?get_accDefaultAction@XAccessible@CWnd@@UAGJUtagVARIANT@@PAPAG@Z @ 3059 NONAME
 ?get_accDescription@CWnd@@UAEJUtagVARIANT@@PAPAG@Z @ 3060 NONAME
 ?get_accDescription@XAccessible@CWnd@@UAGJUtagVARIANT@@PAPAG@Z @ 3061 NONAME
 ?get_accFocus@CWnd@@UAEJPAUtagVARIANT@@@Z @ 3062 NONAME
 ?get_accFocus@XAccessible@CWnd@@UAGJPAUtagVARIANT@@@Z @ 3063 NONAME
 ?get_accHelp@CWnd@@UAEJUtagVARIANT@@PAPAG@Z @ 3064 NONAME
 ?get_accHelp@XAccessible@CWnd@@UAGJUtagVARIANT@@PAPAG@Z @ 3065 NONAME
 ?get_accHelpTopic@CWnd@@UAEJPAPAGUtagVARIANT@@PAJ@Z @ 3066 NONAME
 ?get_accHelpTopic@XAccessible@CWnd@@UAGJPAPAGUtagVARIANT@@PAJ@Z @ 3067 NONAME
 ?get_accKeyboardShortcut@CWnd@@UAEJUtagVARIANT@@PAPAG@Z @ 3068 NONAME
 ?get_accKeyboardShortcut@XAccessible@CWnd@@UAGJUtagVARIANT@@PAPAG@Z @ 3069 NONAME
 ?get_accName@CToolBar@@UAEJUtagVARIANT@@PAPAG@Z @ 3070 NONAME
 ?get_accName@CWnd@@UAEJUtagVARIANT@@PAPAG@Z @ 3071 NONAME
 ?get_accName@XAccessible@CWnd@@UAGJUtagVARIANT@@PAPAG@Z @ 3072 NONAME
 ?get_accParent@CWnd@@UAEJPAPAUIDispatch@@@Z @ 3073 NONAME
 ?get_accParent@XAccessible@CWnd@@UAGJPAPAUIDispatch@@@Z @ 3074 NONAME
 ?get_accRole@CCheckListBox@@MAEJUtagVARIANT@@PAU2@@Z @ 3075 NONAME
 ?get_accRole@CWnd@@UAEJUtagVARIANT@@PAU2@@Z @ 3076 NONAME
 ?get_accRole@XAccessible@CWnd@@UAGJUtagVARIANT@@PAU3@@Z @ 3077 NONAME
 ?get_accSelection@CWnd@@UAEJPAUtagVARIANT@@@Z @ 3078 NONAME
 ?get_accSelection@XAccessible@CWnd@@UAGJPAUtagVARIANT@@@Z @ 3079 NONAME
 ?get_accState@CCheckListBox@@MAEJUtagVARIANT@@PAU2@@Z @ 3080 NONAME
 ?get_accState@CWnd@@UAEJUtagVARIANT@@PAU2@@Z @ 3081 NONAME
 ?get_accState@XAccessible@CWnd@@UAGJUtagVARIANT@@PAU3@@Z @ 3082 NONAME
 ?get_accValue@CWnd@@UAEJUtagVARIANT@@PAPAG@Z @ 3083 NONAME
 ?get_accValue@XAccessible@CWnd@@UAGJUtagVARIANT@@PAPAG@Z @ 3084 NONAME
 ?GetAccel@CSpinButtonCtrl@@QBEIHPAU_UDACCEL@@@Z @ 3085 NONAME
 ?GetAccessibilityHitTest@CWnd@@QAEJJJPAUtagVARIANT@@@Z @ 3086 NONAME
 ?GetAccessibilityLocation@CWnd@@QAEJUtagVARIANT@@PAJ111@Z @ 3087 NONAME
 ?GetAccessibleChild@CWnd@@QAEJUtagVARIANT@@PAPAUIDispatch@@@Z @ 3088 NONAME
 ?GetAccessibleChildCount@CWnd@@QAEJXZ @ 3089 NONAME
 ?GetAccessibleName@CWnd@@QAEJUtagVARIANT@@PAPAG@Z @ 3090 NONAME
 ?GetActivationPolicy@COleControl@@UAEKXZ @ 3091 NONAME
 ?GetActivationPolicy@XPointerInactive@COleControl@@UAGJPAK@Z @ 3092 NONAME
 ?GetActiveDocument@CFrameWnd@@UAEPAVCDocument@@XZ @ 3093 NONAME
 ?GetActiveFrame@CFrameWnd@@UAEPAV1@XZ @ 3094 NONAME
 ?GetActiveFrame@CMDIFrameWnd@@UAEPAVCFrameWnd@@XZ @ 3095 NONAME
 ?GetActiveIndex@CPropertySheet@@QBEHXZ @ 3096 NONAME
 ?GetActivePage@CPropertySheet@@QBEPAVCPropertyPage@@XZ @ 3097 NONAME
 ?GetActivePane@CSplitterWnd@@IAEPAVCWnd@@AAH0@Z @ 3098 NONAME
 ?GetActivePane@CSplitterWnd@@UAEPAVCWnd@@PAH0@Z @ 3099 NONAME
 ?GetActiveView@CFrameWnd@@QBEPAVCView@@XZ @ 3100 NONAME
 ?GetActiveView@COleClientItem@@QBEPAVCView@@XZ @ 3101 NONAME
 ?GetActiveView@COleDocObjectItem@@QBEPAUIOleDocumentView@@XZ @ 3102 NONAME
 ?GetActiveView@CRichEditCntrItem@@QAEPAVCRichEditView@@XZ @ 3103 NONAME
 ?GetActiveWindow@CWnd@@SGPAV1@XZ @ 3104 NONAME
 ?GetAddress@CIPAddressCtrl@@QAEHAAE000@Z @ 3105 NONAME
 ?GetAddress@CIPAddressCtrl@@QAEHAAK@Z @ 3106 NONAME
 ?GetAddressBar@CHtmlView@@QBEHXZ @ 3107 NONAME
 ?GetAdvise@XViewObject@COleControl@@UAGJPAK0PAPAUIAdviseSink@@@Z @ 3108 NONAME
 ?GetAmbientDispatchDriver@COleControl@@IAEPAVCOleDispatchDriver@@XZ @ 3109 NONAME
 ?GetAmbientProp@COleControlContainer@@UAEHPAVCOleControlSite@@JPAUtagVARIANT@@@Z @ 3110 NONAME
 ?GetAmbientProperty@COleControl@@QAEHJGPAX@Z @ 3111 NONAME
 ?GetAnchorHighlight@CToolBarCtrl@@QBEHXZ @ 3112 NONAME
 ?GetAnchorIndex@CListBox@@QBEHXZ @ 3113 NONAME
 ?GetAppearance@COleControl@@QAEFXZ @ 3114 NONAME
 ?GetApplication@CHtmlView@@QBEPAUIDispatch@@XZ @ 3115 NONAME
 ?GetAppRegistryKey@CWinApp@@QAEPAUHKEY__@@XZ @ 3116 NONAME
 ?GetArcDirection@CDC@@QBEHXZ @ 3117 NONAME
 ?GetAspectRatioFilter@CDC@@QBE?AVCSize@@XZ @ 3118 NONAME
 ?GetAssocAt@CMapPtrToPtr@@IBEPAUCAssoc@1@PAXAAI1@Z @ 3119 NONAME
 ?GetAssocAt@CMapPtrToWord@@IBEPAUCAssoc@1@PAXAAI1@Z @ 3120 NONAME
 ?GetAssocAt@CMapStringToOb@@IBEPAUCAssoc@1@PBGAAI1@Z @ 3121 NONAME
 ?GetAssocAt@CMapStringToPtr@@IBEPAUCAssoc@1@PBGAAI1@Z @ 3122 NONAME
 ?GetAssocAt@CMapStringToString@@IBEPAVCAssoc@1@PBGAAI1@Z @ 3123 NONAME
 ?GetAssocAt@CMapWordToOb@@IBEPAUCAssoc@1@GAAI0@Z @ 3124 NONAME
 ?GetAssocAt@CMapWordToPtr@@IBEPAUCAssoc@1@GAAI0@Z @ 3125 NONAME
 ?GetAt@CByteArray@@QBEEH@Z @ 3126 NONAME
 ?GetAt@CDWordArray@@QBEKH@Z @ 3127 NONAME
 ?GetAt@CObArray@@QBEPAVCObject@@H@Z @ 3128 NONAME
 ?GetAt@CObList@@QAEAAPAVCObject@@PAU__POSITION@@@Z @ 3129 NONAME
 ?GetAt@CObList@@QBEAAPBVCObject@@PAU__POSITION@@@Z @ 3130 NONAME
 ?GetAt@CPtrArray@@QBEPAXH@Z @ 3131 NONAME
 ?GetAt@CPtrList@@QAEAAPAXPAU__POSITION@@@Z @ 3132 NONAME
 ?GetAt@CPtrList@@QBEAAPBXPAU__POSITION@@@Z @ 3133 NONAME
 ?GetAt@CStringArray@@QBEABV?$CStringT@GV?$StrTraitMFC@GV?$ChTraitsCRT@G@@@@@@H@Z @ 3134 NONAME
 ?GetAt@CStringList@@QAEAAV?$CStringT@GV?$StrTraitMFC@GV?$ChTraitsCRT@G@@@@@@PAU__POSITION@@@Z @ 3135 NONAME
 ?GetAt@CStringList@@QBEABV?$CStringT@GV?$StrTraitMFC@GV?$ChTraitsCRT@G@@@@@@PAU__POSITION@@@Z @ 3136 NONAME
 ?GetAt@CUIntArray@@QBEIH@Z @ 3137 NONAME
 ?GetAt@CWordArray@@QBEGH@Z @ 3138 NONAME
 ?GetAttribute@CGopherConnection@@QAEHAAVCGopherLocator@@V?$CStringT@GV?$StrTraitMFC@GV?$ChTraitsCRT@G@@@@@@AAV3@@Z @ 3139 NONAME
 ?GetBackColor@COleControl@@QAEKXZ @ 3140 NONAME
 ?GetBandBorders@CReBarCtrl@@QBEXIPAUtagRECT@@@Z @ 3141 NONAME
 ?GetBandCount@CReBarCtrl@@QBEIXZ @ 3142 NONAME
 ?GetBandInfo@CReBarCtrl@@QBEHIPAUtagREBARBANDINFOW@@@Z @ 3143 NONAME
 ?GetBarHeight@CReBarCtrl@@QBEIXZ @ 3144 NONAME
 ?GetBarInfo@CControlBar@@QAEXPAVCControlBarInfo@@@Z @ 3145 NONAME
 ?GetBarInfo@CDockBar@@QAEXPAVCControlBarInfo@@@Z @ 3146 NONAME
 ?GetBarInfo@CReBarCtrl@@QBEHPAUtagREBARINFO@@@Z @ 3147 NONAME
 ?GetBarStyle@CControlBar@@QAEKXZ @ 3148 NONAME
 ?GetBase@CSpinButtonCtrl@@QBEIXZ @ 3149 NONAME
 ?GetBindInfo@CAsyncMonikerFile@@MBEKXZ @ 3150 NONAME
 ?GetBinding@CAsyncMonikerFile@@QBEPAUIBinding@@XZ @ 3151 NONAME
 ?GetBitmap@CBitmap@@QAEHPAUtagBITMAP@@@Z @ 3152 NONAME
 ?GetBitmap@CButton@@QBEPAUHBITMAP__@@XZ @ 3153 NONAME
 ?GetBitmap@CStatic@@QBEPAUHBITMAP__@@XZ @ 3154 NONAME
 ?GetBitmap@CToolBarCtrl@@QBEHH@Z @ 3155 NONAME
 ?GetBitmapBits@CBitmap@@QBEKKPAX@Z @ 3156 NONAME
 ?GetBitmapDimension@CBitmap@@QBE?AVCSize@@XZ @ 3157 NONAME
 ?GetBitmapFlags@CToolBarCtrl@@QBEIXZ @ 3158 NONAME
 ?GetBitmapMargin@CHeaderCtrl@@QBEHXZ @ 3159 NONAME
 ?GetBkColor@CDC@@QBEKXZ @ 3160 NONAME
 ?GetBkColor@CImageList@@QBEKXZ @ 3161 NONAME
 ?GetBkColor@CListCtrl@@QBEKXZ @ 3162 NONAME
 ?GetBkColor@CReBarCtrl@@QBEKXZ @ 3163 NONAME
 ?GetBkColor@CTreeCtrl@@QBEKXZ @ 3164 NONAME
 ?GetBkImage@CListCtrl@@QBEHPAUtagLVBKIMAGEW@@@Z @ 3165 NONAME
 ?GetBkMode@CDC@@QBEHXZ @ 3166 NONAME
 ?GetBlob@CBlobProperty@@QAEPAXXZ @ 3167 NONAME
 ?GetBookmark@CRecordset@@QAEXAAVCDBVariant@@@Z @ 3168 NONAME
 ?GetBookmarkPersistence@CDatabase@@QBEKXZ @ 3169 NONAME
 ?GetBorder@XOleInPlaceFrame@COleFrameHook@@UAGJPAUtagRECT@@@Z @ 3170 NONAME
 ?GetBorder@XOleIPFrame@COleControlContainer@@UAGJPAUtagRECT@@@Z @ 3171 NONAME
 ?GetBorders@CControlBar@@QBE?AVCRect@@XZ @ 3172 NONAME
 ?GetBorders@CStatusBarCtrl@@QBEHAAH00@Z @ 3173 NONAME
 ?GetBorders@CStatusBarCtrl@@QBEHPAH@Z @ 3174 NONAME
 ?GetBorderStyle@COleControl@@QAEFXZ @ 3175 NONAME
 ?GetBoundClientRow@CDataSourceControl@@QAEJXZ @ 3176 NONAME
 ?GetBoundFieldIndex@CRecordset@@QAEHPAX@Z @ 3177 NONAME
 ?GetBoundParamIndex@CRecordset@@QAEHPAX@Z @ 3178 NONAME
 ?GetBoundsRect@CDC@@QAEIPAUtagRECT@@I@Z @ 3179 NONAME
 ?GetBrushOrg@CDC@@QBE?AVCPoint@@XZ @ 3180 NONAME
 ?GetBubbleSize@CToolTipCtrl@@QBE?AVCSize@@PAUtagTOOLINFOW@@@Z @ 3181 NONAME
 ?GetBuddy@CSliderCtrl@@QBEPAVCWnd@@H@Z @ 3182 NONAME
 ?GetBuddy@CSpinButtonCtrl@@QBEPAVCWnd@@XZ @ 3183 NONAME
 ?GetBufferLength@CEditView@@QBEIXZ @ 3184 NONAME
 ?GetBufferPtr@CFile@@UAEIIIPAPAX0@Z @ 3185 NONAME
 ?GetBufferPtr@CMemFile@@UAEIIIPAPAX0@Z @ 3186 NONAME
 ?GetBufferPtr@CSocketFile@@UAEIIIPAPAX0@Z @ 3187 NONAME
 ?GetBusy@CHtmlView@@QBEHXZ @ 3188 NONAME
 ?GetButton@CToolBarCtrl@@QBEHHPAU_TBBUTTON@@@Z @ 3189 NONAME
 ?GetButtonCount@CToolBarCtrl@@QBEHXZ @ 3190 NONAME
 ?GetButtonInfo@CToolBar@@QBEXHAAI0AAH@Z @ 3191 NONAME
 ?GetButtonInfo@CToolBarCtrl@@QBEHHPAUTBBUTTONINFOW@@@Z @ 3192 NONAME
 ?GetButtonSize@CToolBarCtrl@@QBEKXZ @ 3193 NONAME
 ?GetButtonStyle@CButton@@QBEIXZ @ 3194 NONAME
 ?GetButtonStyle@CToolBar@@QBEIH@Z @ 3195 NONAME
 ?GetButtonText@CToolBar@@QBE?AV?$CStringT@GV?$StrTraitMFC@GV?$ChTraitsCRT@G@@@@@@H@Z @ 3196 NONAME
 ?GetButtonText@CToolBar@@QBEXHAAV?$CStringT@GV?$StrTraitMFC@GV?$ChTraitsCRT@G@@@@@@@Z @ 3197 NONAME
 ?GetByteArray@COleSafeArray@@QAEXAAVCByteArray@@@Z @ 3198 NONAME
 ?GetByteArrayFromVariantArray@COleVariant@@QAEXAAVCByteArray@@@Z @ 3199 NONAME
 ?GetByteOrder@CPropertySet@@QAEGXZ @ 3200 NONAME
 ?GetCachedExtent@COleClientItem@@QAEHPAUtagSIZE@@W4tagDVASPECT@@@Z @ 3201 NONAME
 ?GetCacheEntry@COleDataSource@@IAEPAUAFX_DATACACHE_ENTRY@@PAUtagFORMATETC@@W4tagDATADIR@@@Z @ 3202 NONAME
 ?GetCallbackMask@CListCtrl@@QBEIXZ @ 3203 NONAME
 ?GetCanonicalFormatEtc@XDataObject@COleControl@@UAGJPAUtagFORMATETC@@0@Z @ 3204 NONAME
 ?GetCanonicalFormatEtc@XDataObject@COleDataSource@@UAGJPAUtagFORMATETC@@0@Z @ 3205 NONAME
 ?GetCanonicalFormatEtc@XDataObject@COleServerDoc@@UAGJPAUtagFORMATETC@@0@Z @ 3206 NONAME
 ?GetCanonicalFormatEtc@XDataObject@COleServerItem@@UAGJPAUtagFORMATETC@@0@Z @ 3207 NONAME
 ?GetCapture@COleControl@@QAEPAVCWnd@@XZ @ 3208 NONAME
 ?GetCapture@CWnd@@SGPAV1@XZ @ 3209 NONAME
 ?GetCapture@XOleIPSite@COleControlSite@@UAGJXZ @ 3210 NONAME
 ?GetCaretIndex@CListBox@@QBEHXZ @ 3211 NONAME
 ?GetCaretPos@CWnd@@SG?AVCPoint@@XZ @ 3212 NONAME
 ?GetChannelRect@CSliderCtrl@@QBEXPAUtagRECT@@@Z @ 3213 NONAME
 ?GetCharABCWidthsW@CDC@@QBEHIIPAU_ABC@@@Z @ 3214 NONAME
 ?GetCharABCWidthsW@CDC@@QBEHIIPAU_ABCFLOAT@@@Z @ 3215 NONAME
 ?GetCharFormat@CFontDialog@@QBEXAAU_charformatw@@@Z @ 3216 NONAME
 ?GetCharFormatSelection@CRichEditView@@QAEAAUCHARFORMAT2W@@XZ @ 3217 NONAME
 ?GetCharPos@CRichEditCtrl@@QBE?AVCPoint@@J@Z @ 3218 NONAME
 ?GetCharWidthW@CDC@@QBEHIIPAH@Z @ 3219 NONAME
 ?GetCharWidthW@CDC@@QBEHIIPAM@Z @ 3220 NONAME
 ?GetCheck@CButton@@QBEHXZ @ 3221 NONAME
 ?GetCheck@CCheckListBox@@QAEHH@Z @ 3222 NONAME
 ?GetCheck@CListCtrl@@QBEHH@Z @ 3223 NONAME
 ?GetCheck@CTreeCtrl@@QBEHPAU_TREEITEM@@@Z @ 3224 NONAME
 ?GetCheckedRadioButton@CWnd@@QAEHHH@Z @ 3225 NONAME
 ?GetCheckStyle@CCheckListBox@@QAEIXZ @ 3226 NONAME
 ?GetChildItem@CTreeCtrl@@QBEPAU_TREEITEM@@PAU2@@Z @ 3227 NONAME
 ?GetClassID@CBlobProperty@@UAGJPAU_GUID@@@Z @ 3228 NONAME
 ?GetClassID@COleClientItem@@QBEXPAU_GUID@@@Z @ 3229 NONAME
 ?GetClassID@COleConvertDialog@@QBEABU_GUID@@XZ @ 3230 NONAME
 ?GetClassID@COleInsertDialog@@QBEABU_GUID@@XZ @ 3231 NONAME
 ?GetClassID@COleObjectFactory@@QBEABU_GUID@@XZ @ 3232 NONAME
 ?GetClassID@CPropertySet@@QAE?AU_GUID@@XZ @ 3233 NONAME
 ?GetClassID@XPersistFile@COleLinkingDoc@@UAGJPAU_GUID@@@Z @ 3234 NONAME
 ?GetClassID@XPersistMemory@COleControl@@UAGJPAU_GUID@@@Z @ 3235 NONAME
 ?GetClassID@XPersistPropertyBag@COleControl@@UAGJPAU_GUID@@@Z @ 3236 NONAME
 ?GetClassID@XPersistStorage@COleControl@@UAGJPAU_GUID@@@Z @ 3237 NONAME
 ?GetClassID@XPersistStorage@COleServerDoc@@UAGJPAU_GUID@@@Z @ 3238 NONAME
 ?GetClassID@XPersistStreamInit@COleControl@@UAGJPAU_GUID@@@Z @ 3239 NONAME
 ?GetClassInfoW@XProvideClassInfo@COleControl@@UAGJPAPAUITypeInfo@@@Z @ 3240 NONAME
 ?GetClassObject@AFX_COM@@QAEJABU_GUID@@0PAPAX@Z @ 3241 NONAME
 ?GetClientOffset@COleControl@@UBEXPAJ0@Z @ 3242 NONAME
 ?GetClientRect@COleControl@@UBEXPAUtagRECT@@@Z @ 3243 NONAME
 ?GetClientRect@CWnd@@QBEXPAUtagRECT@@@Z @ 3244 NONAME
 ?GetClientSite@COleClientItem@@MAEPAUIOleClientSite@@XZ @ 3245 NONAME
 ?GetClientSite@COleControl@@QAEPAUIOleClientSite@@XZ @ 3246 NONAME
 ?GetClientSite@COleServerDoc@@QBEPAUIOleClientSite@@XZ @ 3247 NONAME
 ?GetClientSite@CRichEditCntrItem@@UAEPAUIOleClientSite@@XZ @ 3248 NONAME
 ?GetClientSite@XOleObject@CDocObjectServer@@UAGJPAPAUIOleClientSite@@@Z @ 3249 NONAME
 ?GetClientSite@XOleObject@COleControl@@UAGJPAPAUIOleClientSite@@@Z @ 3250 NONAME
 ?GetClientSite@XOleObject@COleServerDoc@@UAGJPAPAUIOleClientSite@@@Z @ 3251 NONAME
 ?GetClientSite@XOleObject@COleServerItem@@UAGJPAPAUIOleClientSite@@@Z @ 3252 NONAME
 ?GetClipboardData@COleClientItem@@QAEXPAVCOleDataSource@@HPAUtagPOINT@@PAUtagSIZE@@@Z @ 3253 NONAME
 ?GetClipboardData@COleServerItem@@QAEXPAVCOleDataSource@@HPAUtagPOINT@@PAUtagSIZE@@@Z @ 3254 NONAME
 ?GetClipboardData@CRichEditView@@MAEJPAU_charrange@@KPAUIDataObject@@PAPAU3@@Z @ 3255 NONAME
 ?GetClipboardData@XOleObject@CDocObjectServer@@UAGJKPAPAUIDataObject@@@Z @ 3256 NONAME
 ?GetClipboardData@XOleObject@COleControl@@UAGJKPAPAUIDataObject@@@Z @ 3257 NONAME
 ?GetClipboardData@XOleObject@COleServerDoc@@UAGJKPAPAUIDataObject@@@Z @ 3258 NONAME
 ?GetClipboardData@XOleObject@COleServerItem@@UAGJKPAPAUIDataObject@@@Z @ 3259 NONAME
 ?GetClipboardData@XRichEditOleCallback@CRichEditView@@UAGJPAU_charrange@@KPAPAUIDataObject@@@Z @ 3260 NONAME
 ?GetClipboardOwner@COleDataSource@@SGPAV1@XZ @ 3261 NONAME
 ?GetClipboardOwner@CWnd@@SGPAV1@XZ @ 3262 NONAME
 ?GetClipboardViewer@CWnd@@SGPAV1@XZ @ 3263 NONAME
 ?GetClipBox@CDC@@UBEHPAUtagRECT@@@Z @ 3264 NONAME
 ?GetClipBox@CMetaFileDC@@UBEHPAUtagRECT@@@Z @ 3265 NONAME
 ?GetColor@CColorDialog@@QBEKXZ @ 3266 NONAME
 ?GetColor@CFontDialog@@QBEKXZ @ 3267 NONAME
 ?GetColor@CMonthCalCtrl@@QBEKH@Z @ 3268 NONAME
 ?GetColorAdjustment@CDC@@QBEHPAUtagCOLORADJUSTMENT@@@Z @ 3269 NONAME
 ?GetColorScheme@CReBarCtrl@@QAEHPAUtagCOLORSCHEME@@@Z @ 3270 NONAME
 ?GetColorSet@XViewObject@COleControl@@UAGJKJPAXPAUtagDVTARGETDEVICE@@PAUHDC__@@PAPAUtagLOGPALETTE@@@Z @ 3271 NONAME
 ?GetColumn@CListCtrl@@QBEHHPAUtagLVCOLUMNW@@@Z @ 3272 NONAME
 ?GetColumnCount@CSplitterWnd@@QBEHXZ @ 3273 NONAME
 ?GetColumnInfo@CSplitterWnd@@QBEXHAAH0@Z @ 3274 NONAME
 ?GetColumnOrderArray@CListCtrl@@QAEHPAHH@Z @ 3275 NONAME
 ?GetColumnWidth@CListCtrl@@QBEHH@Z @ 3276 NONAME
 ?GetComboBoxCtrl@CComboBoxEx@@QAEPAVCComboBox@@XZ @ 3277 NONAME
 ?GetCommandMap@CCmdTarget@@MBEPBUAFX_OLECMDMAP@@XZ @ 3278 NONAME
 ?GetCommandMap@COleDocObjectItem@@MBEPBUAFX_OLECMDMAP@@XZ @ 3279 NONAME
 ?GetConnect@CDatabase@@QBEABV?$CStringT@GV?$StrTraitMFC@GV?$ChTraitsCRT@G@@@@@@XZ @ 3280 NONAME
 ?GetConnectInfo@CDatabase@@IAEXXZ @ 3281 NONAME
 ?GetConnectionCount@CConnectionPoint@@QAEHXZ @ 3282 NONAME
 ?GetConnectionHook@CCmdTarget@@MAEPAUIConnectionPoint@@ABU_GUID@@@Z @ 3283 NONAME
 ?GetConnectionHook@COleControl@@MAEPAUIConnectionPoint@@ABU_GUID@@@Z @ 3284 NONAME
 ?GetConnectionInterface@XConnPt@CConnectionPoint@@UAGJPAU_GUID@@@Z @ 3285 NONAME
 ?GetConnectionMap@CCmdTarget@@MBEPBUAFX_CONNECTIONMAP@@XZ @ 3286 NONAME
 ?GetConnectionMap@COleControl@@MBEPBUAFX_CONNECTIONMAP@@XZ @ 3287 NONAME
 ?GetConnectionPointContainer@XConnPt@CConnectionPoint@@UAGJPAPAUIConnectionPointContainer@@@Z @ 3288 NONAME
 ?GetConnections@CConnectionPoint@@QAEPBVCPtrArray@@XZ @ 3289 NONAME
 ?GetContainer@CConnectionPoint@@UAEPAUIConnectionPointContainer@@XZ @ 3290 NONAME
 ?GetContainer@CHtmlView@@QBEPAUIDispatch@@XZ @ 3291 NONAME
 ?GetContainer@COleDocument@@UAEPAUIOleItemContainer@@XZ @ 3292 NONAME
 ?GetContainer@COleLinkingDoc@@UAEPAUIOleItemContainer@@XZ @ 3293 NONAME
 ?GetContainer@XOleClientSite@COleClientItem@@UAGJPAPAUIOleContainer@@@Z @ 3294 NONAME
 ?GetContainer@XOleClientSite@COleControlSite@@UAGJPAPAUIOleContainer@@@Z @ 3295 NONAME
 ?GetContentExtent@XQuickActivate@COleControl@@UAGJPAUtagSIZE@@@Z @ 3296 NONAME
 ?GetContext@CInternetConnection@@QBEKXZ @ 3297 NONAME
 ?GetContext@CInternetFile@@QBEKXZ @ 3298 NONAME
 ?GetContext@CInternetSession@@QBEKXZ @ 3299 NONAME
 ?GetContextMenu@CRichEditView@@MAEPAUHMENU__@@GPAUIOleObject@@PAU_charrange@@@Z @ 3300 NONAME
 ?GetContextMenu@XRichEditOleCallback@CRichEditView@@UAGJGPAUIOleObject@@PAU_charrange@@PAPAUHMENU__@@@Z @ 3301 NONAME
 ?GetControl@CDataPathProperty@@QAEPAVCOleControl@@XZ @ 3302 NONAME
 ?GetControlBar@CFrameWnd@@QAEPAVCControlBar@@I@Z @ 3303 NONAME
 ?GetControlDispatch@CDHtmlDialog@@QAEJPBGPAPAUIDispatch@@@Z @ 3304 NONAME
 ?GetControlFlags@COleControl@@UAEKXZ @ 3305 NONAME
 ?GetControlInfo@COleControlSite@@IAEXXZ @ 3306 NONAME
 ?GetControlInfo@XOleControl@COleControl@@UAGJPAUtagCONTROLINFO@@@Z @ 3307 NONAME
 ?GetControllingFrame@CDocObjectServer@@QBEPAVCOleDocIPFrameWnd@@XZ @ 3308 NONAME
 ?GetControllingUnknown@CCmdTarget@@QAEPAUIUnknown@@XZ @ 3309 NONAME
 ?GetControlProperty@CDHtmlDialog@@QAE?AUtagVARIANT@@PAUIDispatch@@J@Z @ 3310 NONAME
 ?GetControlProperty@CDHtmlDialog@@QAE?AUtagVARIANT@@PBG0@Z @ 3311 NONAME
 ?GetControlProperty@CDHtmlDialog@@QAE?AUtagVARIANT@@PBGJ@Z @ 3312 NONAME
 ?GetControlSize@COleControl@@QAEXPAH0@Z @ 3313 NONAME
 ?GetControlStatus@COlePropertyPage@@QAEHI@Z @ 3314 NONAME
 ?GetControlUnknown@CWnd@@QAEPAUIUnknown@@XZ @ 3315 NONAME
 ?GetConvertInfo@XOleUIObjInfo@COlePropertiesDialog@@UAGJKPAU_GUID@@PAG0PAPAU3@PAI@Z @ 3316 NONAME
 ?GetCookie@CInternetSession@@SAHPBG0AAV?$CStringT@GV?$StrTraitMFC@GV?$ChTraitsCRT@G@@@@@@@Z @ 3317 NONAME
 ?GetCookie@CInternetSession@@SAHPBG0PAGK@Z @ 3318 NONAME
 ?GetCookieLength@CInternetSession@@SAKPBG0@Z @ 3319 NONAME
 ?GetCopies@CPrintDialog@@QBEHXZ @ 3320 NONAME
 ?GetCopies@CPrintDialogEx@@QBEHXZ @ 3321 NONAME
 ?GetCount@CByteArray@@QBEHXZ @ 3322 NONAME
 ?GetCount@CComboBox@@QBEHXZ @ 3323 NONAME
 ?GetCount@CControlBar@@QBEHXZ @ 3324 NONAME
 ?GetCount@CDWordArray@@QBEHXZ @ 3325 NONAME
 ?GetCount@CListBox@@QBEHXZ @ 3326 NONAME
 ?GetCount@CMapPtrToPtr@@QBEHXZ @ 3327 NONAME
 ?GetCount@CMapPtrToWord@@QBEHXZ @ 3328 NONAME
 ?GetCount@CMapStringToOb@@QBEHXZ @ 3329 NONAME
 ?GetCount@CMapStringToPtr@@QBEHXZ @ 3330 NONAME
 ?GetCount@CMapStringToString@@QBEHXZ @ 3331 NONAME
 ?GetCount@CMapWordToOb@@QBEHXZ @ 3332 NONAME
 ?GetCount@CMapWordToPtr@@QBEHXZ @ 3333 NONAME
 ?GetCount@CObArray@@QBEHXZ @ 3334 NONAME
 ?GetCount@CObList@@QBEHXZ @ 3335 NONAME
 ?GetCount@CPropertySection@@QAEKXZ @ 3336 NONAME
 ?GetCount@CPropertySet@@QAEKXZ @ 3337 NONAME
 ?GetCount@CPtrArray@@QBEHXZ @ 3338 NONAME
 ?GetCount@CPtrList@@QBEHXZ @ 3339 NONAME
 ?GetCount@CStringArray@@QBEHXZ @ 3340 NONAME
 ?GetCount@CStringList@@QBEHXZ @ 3341 NONAME
 ?GetCount@CTreeCtrl@@QBEIXZ @ 3342 NONAME
 ?GetCount@CUIntArray@@QBEHXZ @ 3343 NONAME
 ?GetCount@CWordArray@@QBEHXZ @ 3344 NONAME
 ?GetCountPerPage@CListCtrl@@QBEHXZ @ 3345 NONAME
 ?GetCreationTime@CFileFind@@UBEHAAVCTime@ATL@@@Z @ 3346 NONAME
 ?GetCreationTime@CFileFind@@UBEHPAU_FILETIME@@@Z @ 3347 NONAME
 ?GetCreationTime@CGopherFileFind@@UBEHAAVCTime@ATL@@@Z @ 3348 NONAME
 ?GetCreationTime@CGopherFileFind@@UBEHPAU_FILETIME@@@Z @ 3349 NONAME
 ?GetCurFile@XPersistFile@COleLinkingDoc@@UAGJPAPAG@Z @ 3350 NONAME
 ?GetCurFocus@CTabCtrl@@QBEHXZ @ 3351 NONAME
 ?GetCurrentBitmap@CDC@@QBEPAVCBitmap@@XZ @ 3352 NONAME
 ?GetCurrentBrush@CDC@@QBEPAVCBrush@@XZ @ 3353 NONAME
 ?GetCurrentDirectoryAsURL@CFtpConnection@@QBEHAAV?$CStringT@GV?$StrTraitMFC@GV?$ChTraitsCRT@G@@@@@@@Z @ 3354 NONAME
 ?GetCurrentDirectoryAsURL@CFtpConnection@@QBEHPAGPAK@Z @ 3355 NONAME
 ?GetCurrentDirectoryW@CFtpConnection@@QBEHAAV?$CStringT@GV?$StrTraitMFC@GV?$ChTraitsCRT@G@@@@@@@Z @ 3356 NONAME
 ?GetCurrentDirectoryW@CFtpConnection@@QBEHPAGPAK@Z @ 3357 NONAME
 ?GetCurrentFont@CDC@@QBEPAVCFont@@XZ @ 3358 NONAME
 ?GetCurrentFont@CFontDialog@@QAEXPAUtagLOGFONTW@@@Z @ 3359 NONAME
 ?GetCurrentMessage@CWnd@@KGPBUtagMSG@@XZ @ 3360 NONAME
 ?GetCurrentPalette@CDC@@QBEPAVCPalette@@XZ @ 3361 NONAME
 ?GetCurrentPen@CDC@@QBEPAVCPen@@XZ @ 3362 NONAME
 ?GetCurrentPosition@CDC@@QBE?AVCPoint@@XZ @ 3363 NONAME
 ?GetCurrentUrl@CDHtmlDialog@@QAEXAAV?$CStringT@GV?$StrTraitMFC@GV?$ChTraitsCRT@G@@@@@@@Z @ 3364 NONAME
 ?GetCurSel@CComboBox@@QBEHXZ @ 3365 NONAME
 ?GetCurSel@CListBox@@QBEHXZ @ 3366 NONAME
 ?GetCurSel@CMonthCalCtrl@@QBEHAAVCOleDateTime@ATL@@@Z @ 3367 NONAME
 ?GetCurSel@CMonthCalCtrl@@QBEHAAVCTime@ATL@@@Z @ 3368 NONAME
 ?GetCurSel@CMonthCalCtrl@@QBEHPAU_SYSTEMTIME@@@Z @ 3369 NONAME
 ?GetCurSel@CTabCtrl@@QBEHXZ @ 3370 NONAME
 ?GetCursor@CButton@@QAEPAUHICON__@@XZ @ 3371 NONAME
 ?GetCursor@CDataBoundProperty@@QAEPAUIUnknown@@XZ @ 3372 NONAME
 ?GetCursor@CDataSourceControl@@UAEPAUIUnknown@@XZ @ 3373 NONAME
 ?GetCursor@COleControlSite@@IAEJJPAPAUIUnknown@@PAPAX@Z @ 3374 NONAME
 ?GetCursor@CStatic@@QAEPAUHICON__@@XZ @ 3375 NONAME
 ?GetCursor@XBoundObjectSite@COleControlSite@@UAGJJPAPAUICursor@@PAPAX@Z @ 3376 NONAME
 ?GetCursorCommitBehavior@CDatabase@@QBEHXZ @ 3377 NONAME
 ?GetCursorRollbackBehavior@CDatabase@@QBEHXZ @ 3378 NONAME
 ?GetData@CByteArray@@QAEPAEXZ @ 3379 NONAME
 ?GetData@CByteArray@@QBEPBEXZ @ 3380 NONAME
 ?GetData@CDWordArray@@QAEPAKXZ @ 3381 NONAME
 ?GetData@CDWordArray@@QBEPBKXZ @ 3382 NONAME
 ?GetData@CObArray@@QAEPAPAVCObject@@XZ @ 3383 NONAME
 ?GetData@CObArray@@QBEPAPBVCObject@@XZ @ 3384 NONAME
 ?GetData@COleDataObject@@QAEHGPAUtagSTGMEDIUM@@PAUtagFORMATETC@@@Z @ 3385 NONAME
 ?GetData@CProcessLocalObject@@QAEPAVCNoTrackObject@@P6GPAV2@XZ@Z @ 3386 NONAME
 ?GetData@CPtrArray@@QAEPAPAXXZ @ 3387 NONAME
 ?GetData@CPtrArray@@QBEPAPBXXZ @ 3388 NONAME
 ?GetData@CRecordset@@SGJPAVCDatabase@@PAXFF1HF@Z @ 3389 NONAME
 ?GetData@CStringArray@@QAEPAV?$CStringT@GV?$StrTraitMFC@GV?$ChTraitsCRT@G@@@@@@XZ @ 3390 NONAME
 ?GetData@CStringArray@@QBEPBV?$CStringT@GV?$StrTraitMFC@GV?$ChTraitsCRT@G@@@@@@XZ @ 3391 NONAME
 ?GetData@CThreadLocalObject@@QAEPAVCNoTrackObject@@P6GPAV2@XZ@Z @ 3392 NONAME
 ?GetData@CUIntArray@@QAEPAIXZ @ 3393 NONAME
 ?GetData@CUIntArray@@QBEPBIXZ @ 3394 NONAME
 ?GetData@CWordArray@@QAEPAGXZ @ 3395 NONAME
 ?GetData@CWordArray@@QBEPBGXZ @ 3396 NONAME
 ?GetData@XDataObject@COleControl@@UAGJPAUtagFORMATETC@@PAUtagSTGMEDIUM@@@Z @ 3397 NONAME
 ?GetData@XDataObject@COleDataSource@@UAGJPAUtagFORMATETC@@PAUtagSTGMEDIUM@@@Z @ 3398 NONAME
 ?GetData@XDataObject@COleServerDoc@@UAGJPAUtagFORMATETC@@PAUtagSTGMEDIUM@@@Z @ 3399 NONAME
 ?GetData@XDataObject@COleServerItem@@UAGJPAUtagFORMATETC@@PAUtagSTGMEDIUM@@@Z @ 3400 NONAME
 ?GetDatabaseName@CDatabase@@QBE?AV?$CStringT@GV?$StrTraitMFC@GV?$ChTraitsCRT@G@@@@@@XZ @ 3401 NONAME
 ?GetDataBuffer@CRecordset@@SGPAXAAVCDBVariant@@FPAHFK@Z @ 3402 NONAME
 ?GetDataHere@XDataObject@COleControl@@UAGJPAUtagFORMATETC@@PAUtagSTGMEDIUM@@@Z @ 3403 NONAME
 ?GetDataHere@XDataObject@COleDataSource@@UAGJPAUtagFORMATETC@@PAUtagSTGMEDIUM@@@Z @ 3404 NONAME
 ?GetDataHere@XDataObject@COleServerDoc@@UAGJPAUtagFORMATETC@@PAUtagSTGMEDIUM@@@Z @ 3405 NONAME
 ?GetDataHere@XDataObject@COleServerItem@@UAGJPAUtagFORMATETC@@PAUtagSTGMEDIUM@@@Z @ 3406 NONAME
 ?GetDataNA@CThreadLocalObject@@QAEPAVCNoTrackObject@@XZ @ 3407 NONAME
 ?GetDataObject@COleServerItem@@QAEPAUIDataObject@@XZ @ 3408 NONAME
 ?GetDataSource@COleControl@@IAEPAVCControlDataSource@1@XZ @ 3409 NONAME
 ?GetDataSource@COleServerItem@@IAEPAVCOleDataSource@@XZ @ 3410 NONAME
 ?GetDC@COleControl@@QAEPAVCDC@@PBUtagRECT@@K@Z @ 3411 NONAME
 ?GetDC@CWnd@@QAEPAVCDC@@XZ @ 3412 NONAME
 ?GetDC@XOleIPSite@COleControlSite@@UAGJPBUtagRECT@@KPAPAUHDC__@@@Z @ 3413 NONAME
 ?GetDCEx@CWnd@@QAEPAVCDC@@PAVCRgn@@K@Z @ 3414 NONAME
 ?GetDefaultAccelerator@CDocument@@UAEPAUHACCEL__@@XZ @ 3415 NONAME
 ?GetDefaultAccelerator@CFrameWnd@@UAEPAUHACCEL__@@XZ @ 3416 NONAME
 ?GetDefaultAccelerator@COleServerDoc@@MAEPAUHACCEL__@@XZ @ 3417 NONAME
 ?GetDefaultCharFormat@CRichEditCtrl@@QBEKAAU_charformatw@@@Z @ 3418 NONAME
 ?GetDefaultCharFormat@CRichEditCtrl@@QBEKAAUCHARFORMAT2W@@@Z @ 3419 NONAME
 ?GetDefaultConnect@CRecordset@@UAE?AV?$CStringT@GV?$StrTraitMFC@GV?$ChTraitsCRT@G@@@@@@XZ @ 3420 NONAME
 ?GetDefaultFieldType@CRecordset@@SGFF@Z @ 3421 NONAME
 ?GetDefaultItem@CMenu@@QAEIIH@Z @ 3422 NONAME
 ?GetDefaultMenu@CDocument@@UAEPAUHMENU__@@XZ @ 3423 NONAME
 ?GetDefaultMenu@COleServerDoc@@MAEPAUHMENU__@@XZ @ 3424 NONAME
 ?GetDefaults@CPrintDialog@@QAEHXZ @ 3425 NONAME
 ?GetDefaults@CPrintDialogEx@@QAEHXZ @ 3426 NONAME
 ?GetDefaultSQL@CRecordset@@UAE?AV?$CStringT@GV?$StrTraitMFC@GV?$ChTraitsCRT@G@@@@@@XZ @ 3427 NONAME
 ?GetDefBtnCode@COccManager@@SAKPAVCWnd@@@Z @ 3428 NONAME
 ?GetDefBtnCode@COleControlSite@@QAEKXZ @ 3429 NONAME
 ?GetDefID@CDialog@@QBEKXZ @ 3430 NONAME
 ?GetDelayTime@CToolTipCtrl@@QBEHK@Z @ 3431 NONAME
 ?GetDepth@CDumpContext@@QBEHXZ @ 3432 NONAME
 ?GetDescendantWindow@CWnd@@QBEPAV1@HH@Z @ 3433 NONAME
 ?GetDescendantWindow@CWnd@@SGPAV1@PAUHWND__@@HH@Z @ 3434 NONAME
 ?GetDesktopWindow@CWnd@@SGPAV1@XZ @ 3435 NONAME
 ?GetDeviceCaps@CDC@@QBEHH@Z @ 3436 NONAME
 ?GetDeviceName@CPageSetupDialog@@QBE?AV?$CStringT@GV?$StrTraitMFC@GV?$ChTraitsCRT@G@@@@@@XZ @ 3437 NONAME
 ?GetDeviceName@CPrintDialog@@QBE?AV?$CStringT@GV?$StrTraitMFC@GV?$ChTraitsCRT@G@@@@@@XZ @ 3438 NONAME
 ?GetDeviceName@CPrintDialogEx@@QBE?AV?$CStringT@GV?$StrTraitMFC@GV?$ChTraitsCRT@G@@@@@@XZ @ 3439 NONAME
 ?GetDeviceScrollPosition@CScrollView@@QBE?AVCPoint@@XZ @ 3440 NONAME
 ?GetDeviceScrollSizes@CScrollView@@QBEXAAHAAUtagSIZE@@11@Z @ 3441 NONAME
 ?GetDevMode@CPageSetupDialog@@QBEPAU_devicemodeW@@XZ @ 3442 NONAME
 ?GetDevMode@CPrintDialog@@QBEPAU_devicemodeW@@XZ @ 3443 NONAME
 ?GetDevMode@CPrintDialogEx@@QBEPAU_devicemodeW@@XZ @ 3444 NONAME
 ?GetDHtmlDocument@CDHtmlDialog@@UAEJPAPAUIHTMLDocument2@@@Z @ 3445 NONAME
 ?GetDHtmlEventMap@@YAPBUDHtmlEventMapEntry@@XZ @ 3446 NONAME
 ?GetDHtmlEventMap@CDHtmlDialog@@MAEPBUDHtmlEventMapEntry@@XZ @ 3447 NONAME
 ?GetDHtmlEventMap@CMultiPageDHtmlDialog@@MAEPBUDHtmlEventMapEntry@@XZ @ 3448 NONAME
 ?GetDim@COleSafeArray@@QAEKXZ @ 3449 NONAME
 ?GetDisabledImageList@CToolBarCtrl@@QBEPAVCImageList@@XZ @ 3450 NONAME
 ?GetDispatchIID@CCmdTarget@@UAEHPAU_GUID@@@Z @ 3451 NONAME
 ?GetDispatchIID@COleControl@@MAEHPAU_GUID@@@Z @ 3452 NONAME
 ?GetDispatchMap@CCmdTarget@@MBEPBUAFX_DISPMAP@@XZ @ 3453 NONAME
 ?GetDispatchMap@COleControlContainer@@MBEPBUAFX_DISPMAP@@XZ @ 3454 NONAME
 ?GetDispEntry@CCmdTarget@@IAGPBUAFX_DISPMAP_ENTRY@@J@Z @ 3455 NONAME
 ?GetDisplayName@COleChangeSourceDialog@@QAE?AV?$CStringT@GV?$StrTraitMFC@GV?$ChTraitsCRT@G@@@@@@XZ @ 3456 NONAME
 ?GetDisplayName@CRecentFileList@@UBEHAAV?$CStringT@GV?$StrTraitMFC@GV?$ChTraitsCRT@G@@@@@@HPBGHH@Z @ 3457 NONAME
 ?GetDisplayString@CFontHolder@@QAEHAAV?$CStringT@GV?$StrTraitMFC@GV?$ChTraitsCRT@G@@@@@@@Z @ 3458 NONAME
 ?GetDisplayString@CPictureHolder@@QAEHAAV?$CStringT@GV?$StrTraitMFC@GV?$ChTraitsCRT@G@@@@@@@Z @ 3459 NONAME
 ?GetDisplayString@XPerPropertyBrowsing@COleControl@@UAGJJPAPAG@Z @ 3460 NONAME
 ?GetDlgCtrlID@COleControlSite@@UBEHXZ @ 3461 NONAME
 ?GetDlgCtrlID@CWnd@@QBEHXZ @ 3462 NONAME
 ?GetDlgItem@COleControlContainer@@UBEPAVCWnd@@H@Z @ 3463 NONAME
 ?GetDlgItem@COleControlContainer@@UBEXHPAPAUHWND__@@@Z @ 3464 NONAME
 ?GetDlgItem@CWnd@@QBEPAV1@H@Z @ 3465 NONAME
 ?GetDlgItem@CWnd@@QBEXHPAPAUHWND__@@@Z @ 3466 NONAME
 ?GetDlgItemInt@COleControlContainer@@UBEIHPAHH@Z @ 3467 NONAME
 ?GetDlgItemInt@CWnd@@QBEIHPAHH@Z @ 3468 NONAME
 ?GetDlgItemTextW@COleControlContainer@@UBEHHPAGH@Z @ 3469 NONAME
 ?GetDlgItemTextW@CWnd@@QBEHHAAV?$CStringT@GV?$StrTraitMFC@GV?$ChTraitsCRT@G@@@@@@@Z @ 3470 NONAME
 ?GetDlgItemTextW@CWnd@@QBEHHPAGH@Z @ 3471 NONAME
 ?GetDocFrame@COleIPFrameWnd@@QAEPAVCFrameWnd@@XZ @ 3472 NONAME
 ?GetDockBar@CDockContext@@QAEPAVCDockBar@@K@Z @ 3473 NONAME
 ?GetDockedControlBar@CDockBar@@IBEPAVCControlBar@@H@Z @ 3474 NONAME
 ?GetDockedCount@CDockBar@@QBEHXZ @ 3475 NONAME
 ?GetDockedVisibleCount@CDockBar@@UBEHXZ @ 3476 NONAME
 ?GetDockingFrame@CControlBar@@QBEPAVCFrameWnd@@XZ @ 3477 NONAME
 ?GetDockState@CFrameWnd@@QBEXAAVCDockState@@@Z @ 3478 NONAME
 ?GetDocMiscStatus@XOleDocument@CDocObjectServer@@UAGJPAK@Z @ 3479 NONAME
 ?GetDocObjectServer@COleServerDoc@@MAEPAVCDocObjectServer@@PAUIOleDocumentSite@@@Z @ 3480 NONAME
 ?GetDocString@CDocTemplate@@UBEHAAV?$CStringT@GV?$StrTraitMFC@GV?$ChTraitsCRT@G@@@@@@W4DocStringIndex@1@@Z @ 3481 NONAME
 ?GetDocTemplate@CDocument@@QBEPAVCDocTemplate@@XZ @ 3482 NONAME
 ?GetDocument@CDocItem@@QBEPAVCDocument@@XZ @ 3483 NONAME
 ?GetDocument@COleClientItem@@QBEPAVCOleDocument@@XZ @ 3484 NONAME
 ?GetDocument@COleServerItem@@QBEPAVCOleServerDoc@@XZ @ 3485 NONAME
 ?GetDocument@CRichEditCntrItem@@QAEPAVCRichEditDoc@@XZ @ 3486 NONAME
 ?GetDocument@CRichEditView@@QBEPAVCRichEditDoc@@XZ @ 3487 NONAME
 ?GetDocument@CView@@QBEPAVCDocument@@XZ @ 3488 NONAME
 ?GetDocument@XOleDocumentView@CDocObjectServer@@UAGJPAPAUIUnknown@@@Z @ 3489 NONAME
 ?GetDocumentCount@CDocManager@@IAEHXZ @ 3490 NONAME
 ?GetDragDropEffect@XRichEditOleCallback@CRichEditView@@UAGJHKPAK@Z @ 3491 NONAME
 ?GetDragImage@CImageList@@SGPAV1@PAUtagPOINT@@0@Z @ 3492 NONAME
 ?GetDrawAspect@COleClientItem@@QBE?AW4tagDVASPECT@@XZ @ 3493 NONAME
 ?GetDrawAspect@COleConvertDialog@@QBE?AW4tagDVASPECT@@XZ @ 3494 NONAME
 ?GetDrawAspect@COleInsertDialog@@QBE?AW4tagDVASPECT@@XZ @ 3495 NONAME
 ?GetDrawAspect@COlePasteSpecialDialog@@QBE?AW4tagDVASPECT@@XZ @ 3496 NONAME
 ?GetDriverName@CPageSetupDialog@@QBE?AV?$CStringT@GV?$StrTraitMFC@GV?$ChTraitsCRT@G@@@@@@XZ @ 3497 NONAME
 ?GetDriverName@CPrintDialog@@QBE?AV?$CStringT@GV?$StrTraitMFC@GV?$ChTraitsCRT@G@@@@@@XZ @ 3498 NONAME
 ?GetDriverName@CPrintDialogEx@@QBE?AV?$CStringT@GV?$StrTraitMFC@GV?$ChTraitsCRT@G@@@@@@XZ @ 3499 NONAME
 ?GetDropHilightItem@CTreeCtrl@@QBEPAU_TREEITEM@@XZ @ 3500 NONAME
 ?GetDroppedControlRect@CComboBox@@QBEXPAUtagRECT@@@Z @ 3501 NONAME
 ?GetDroppedState@CComboBox@@QBEHXZ @ 3502 NONAME
 ?GetDroppedWidth@CComboBox@@QBEHXZ @ 3503 NONAME
 ?GetDropTarget@CBrowserControlSite@@MAGJPAUIDropTarget@@PAPAU2@@Z @ 3504 NONAME
 ?GetDropTarget@CDHtmlDialog@@UAGJPAUIDropTarget@@PAPAU2@@Z @ 3505 NONAME
 ?GetDropTarget@CReBarCtrl@@QBEPAUIDropTarget@@XZ @ 3506 NONAME
 ?GetDropTarget@CToolBarCtrl@@QBEJPAPAUIDropTarget@@@Z @ 3507 NONAME
 ?GetDropTarget@XDocHostUIHandler@CHtmlControlSite@@UAGJPAUIDropTarget@@PAPAU3@@Z @ 3508 NONAME
 ?GetDropTarget@XOleInPlaceObject@COleControl@@UAGJPAPAUIDropTarget@@@Z @ 3509 NONAME
 ?GetDSCCursor@CWnd@@QAEPAUIUnknown@@XZ @ 3510 NONAME
 ?GetEditControl@CListCtrl@@QBEPAVCEdit@@XZ @ 3511 NONAME
 ?GetEditControl@CTreeCtrl@@QBEPAVCEdit@@XZ @ 3512 NONAME
 ?GetEditCtrl@CComboBoxEx@@QAEPAVCEdit@@XZ @ 3513 NONAME
 ?GetEditCtrl@CEditView@@QBEAAVCEdit@@XZ @ 3514 NONAME
 ?GetEditSel@CComboBox@@QBEKXZ @ 3515 NONAME
 ?GetElement@CDHtmlDialog@@QAEJPBGPAPAUIDispatch@@PAH@Z @ 3516 NONAME
 ?GetElement@CDHtmlDialog@@QAEJPBGPAPAUIHTMLElement@@@Z @ 3517 NONAME
 ?GetElement@COleSafeArray@@QAEXPAJPAX@Z @ 3518 NONAME
 ?GetElementHtml@CDHtmlDialog@@QAEPAGPBG@Z @ 3519 NONAME
 ?GetElementInterface@CDHtmlDialog@@QAEJPBGABU_GUID@@PAPAX@Z @ 3520 NONAME
 ?GetElementProperty@CDHtmlDialog@@QAE?AUtagVARIANT@@PBGJ@Z @ 3521 NONAME
 ?GetElementText@CDHtmlDialog@@QAEPAGPBG@Z @ 3522 NONAME
 ?GetElemSize@COleSafeArray@@QAEKXZ @ 3523 NONAME
 ?GetEmbeddedItem@COleServerDoc@@QAEPAVCOleServerItem@@XZ @ 3524 NONAME
 ?GetEmbeddedItemData@COleClientItem@@IAEXPAUtagSTGMEDIUM@@@Z @ 3525 NONAME
 ?GetEmbedSourceData@COleServerItem@@QAEXPAUtagSTGMEDIUM@@@Z @ 3526 NONAME
 ?GetEnabled@COleControl@@QAEHXZ @ 3527 NONAME
 ?GetEnhMetaFileW@CStatic@@QBEPAUHENHMETAFILE__@@XZ @ 3528 NONAME
 ?GetEntryCount@CCmdTarget@@KGIPBUAFX_DISPMAP@@@Z @ 3529 NONAME
 ?GetEntryCount@CPalette@@QAEHXZ @ 3530 NONAME
 ?GetEnumVariant@XAccessibleServer@CWnd@@UAGJPAPAUIEnumVARIANT@@@Z @ 3531 NONAME
 ?GetErrorMessage@CArchiveException@@UAEHPAGIPAI@Z @ 3532 NONAME
 ?GetErrorMessage@CDBException@@UAEHPAGIPAI@Z @ 3533 NONAME
 ?GetErrorMessage@CException@@UAEHPAGIPAI@Z @ 3534 NONAME
 ?GetErrorMessage@CFileException@@UAEHPAGIPAI@Z @ 3535 NONAME
 ?GetErrorMessage@CInternetException@@UAEHPAGIPAI@Z @ 3536 NONAME
 ?GetErrorMessage@COleDispatchException@@UAEHPAGIPAI@Z @ 3537 NONAME
 ?GetErrorMessage@COleException@@UAEHPAGIPAI@Z @ 3538 NONAME
 ?GetErrorMessage@CSimpleException@@UAEHPAGIPAI@Z @ 3539 NONAME
 ?GetEvent@CDHtmlDialog@@QAEJPAPAUIHTMLEventObj@@@Z @ 3540 NONAME
 ?GetEventIID@COleControlSite@@QAEHPAU_GUID@@@Z @ 3541 NONAME
 ?GetEventMap@COleControl@@MBEPBUAFX_EVENTMAP@@XZ @ 3542 NONAME
 ?GetEventMapEntry@COleControl@@IBEPBUAFX_EVENTMAP_ENTRY@@PBGPAJ@Z @ 3543 NONAME
 ?GetEventMapForUrl@CMultiPageDHtmlDialog@@MAEPBUDHtmlEventMapEntry@@PBG@Z @ 3544 NONAME
 ?GetEventMask@CRichEditCtrl@@QBEJXZ @ 3545 NONAME
 ?GetEventSinkEntry@CCmdTarget@@IAGPBUAFX_EVENTSINKMAP_ENTRY@@IPAUAFX_EVENT@@@Z @ 3546 NONAME
 ?GetEventSinkMap@CCmdTarget@@MBEPBUAFX_EVENTSINKMAP@@XZ @ 3547 NONAME
 ?GetEventSinkMap@CDHtmlDialog@@MBEPBUAFX_EVENTSINKMAP@@XZ @ 3548 NONAME
 ?GetEventSinkMap@CHtmlEditView@@MBEPBUAFX_EVENTSINKMAP@@XZ @ 3549 NONAME
 ?GetEventSinkMap@CHtmlView@@MBEPBUAFX_EVENTSINKMAP@@XZ @ 3550 NONAME
 ?GetExStyle@COleControlSite@@UBEKXZ @ 3551 NONAME
 ?GetExStyle@CWnd@@QBEKXZ @ 3552 NONAME
 ?GetExtendedControl@COleControl@@QAEPAUIDispatch@@XZ @ 3553 NONAME
 ?GetExtendedControl@XOleControlSite@COleControlSite@@UAGJPAPAUIDispatch@@@Z @ 3554 NONAME
 ?GetExtendedStyle@CComboBoxEx@@QBEKXZ @ 3555 NONAME
 ?GetExtendedStyle@CListCtrl@@QAEKXZ @ 3556 NONAME
 ?GetExtendedStyle@CTabCtrl@@QAEKXZ @ 3557 NONAME
 ?GetExtendedStyle@CToolBarCtrl@@QBEKXZ @ 3558 NONAME
 ?GetExtendedUI@CComboBox@@QBEHXZ @ 3559 NONAME
 ?GetExtent@COleClientItem@@QAEHPAUtagSIZE@@W4tagDVASPECT@@@Z @ 3560 NONAME
 ?GetExtent@XOleObject@CDocObjectServer@@UAGJKPAUtagSIZE@@@Z @ 3561 NONAME
 ?GetExtent@XOleObject@COleControl@@UAGJKPAUtagSIZE@@@Z @ 3562 NONAME
 ?GetExtent@XOleObject@COleServerDoc@@UAGJKPAUtagSIZE@@@Z @ 3563 NONAME
 ?GetExtent@XOleObject@COleServerItem@@UAGJKPAUtagSIZE@@@Z @ 3564 NONAME
 ?GetExtent@XViewObject@COleControl@@UAGJKJPAUtagDVTARGETDEVICE@@PAUtagSIZE@@@Z @ 3565 NONAME
 ?GetExternal@CBrowserControlSite@@MAGJPAPAUIDispatch@@@Z @ 3566 NONAME
 ?GetExternal@CDHtmlDialog@@UAGJPAPAUIDispatch@@@Z @ 3567 NONAME
 ?GetExternal@XDocHostUIHandler@CHtmlControlSite@@UAGJPAPAUIDispatch@@@Z @ 3568 NONAME
 ?GetExtLogPen@CPen@@QAEHPAUtagEXTLOGPEN@@@Z @ 3569 NONAME
 ?GetExtraConnectionPoints@CCmdTarget@@MAEHPAVCPtrArray@@@Z @ 3570 NONAME
 ?GetExtraConnectionPoints@COleControl@@MAEHPAVCPtrArray@@@Z @ 3571 NONAME
 ?GetFaceName@CFontDialog@@QBE?AV?$CStringT@GV?$StrTraitMFC@GV?$ChTraitsCRT@G@@@@@@XZ @ 3572 NONAME
 ?GetFieldIndexByName@CRecordset@@QAEFPBG@Z @ 3573 NONAME
 ?GetFieldLengthBuffer@CRecordset@@QAEPAJKH@Z @ 3574 NONAME
 ?GetFieldStatus@CRecordset@@QAEEK@Z @ 3575 NONAME
 ?GetFieldValue@CRecordset@@QAEXFAAV?$CStringT@DV?$StrTraitMFC@DV?$ChTraitsCRT@D@@@@@@@Z @ 3576 NONAME
 ?GetFieldValue@CRecordset@@QAEXFAAV?$CStringT@GV?$StrTraitMFC@GV?$ChTraitsCRT@G@@@@@@@Z @ 3577 NONAME
 ?GetFieldValue@CRecordset@@QAEXFAAVCDBVariant@@F@Z @ 3578 NONAME
 ?GetFieldValue@CRecordset@@QAEXPBGAAVCDBVariant@@F@Z @ 3579 NONAME
 ?GetFile@CArchive@@QBEPAVCFile@@XZ @ 3580 NONAME
 ?GetFile@CDocument@@UAEPAVCFile@@PBGIPAVCFileException@@@Z @ 3581 NONAME
 ?GetFile@CFtpConnection@@QAEHPBG0HKKK@Z @ 3582 NONAME
 ?GetFileData@COleDataObject@@QAEPAVCFile@@GPAUtagFORMATETC@@@Z @ 3583 NONAME
 ?GetFileExt@CFileDialog@@QBE?AV?$CStringT@GV?$StrTraitMFC@GV?$ChTraitsCRT@G@@@@@@XZ @ 3584 NONAME
 ?GetFileName@CFile@@UBE?AV?$CStringT@GV?$StrTraitMFC@GV?$ChTraitsCRT@G@@@@@@XZ @ 3585 NONAME
 ?GetFileName@CFileDialog@@QBE?AV?$CStringT@GV?$StrTraitMFC@GV?$ChTraitsCRT@G@@@@@@XZ @ 3586 NONAME
 ?GetFileName@CFileFind@@UBE?AV?$CStringT@GV?$StrTraitMFC@GV?$ChTraitsCRT@G@@@@@@XZ @ 3587 NONAME
 ?GetFileName@CGopherFileFind@@UBE?AV?$CStringT@GV?$StrTraitMFC@GV?$ChTraitsCRT@G@@@@@@XZ @ 3588 NONAME
 ?GetFileName@COleChangeSourceDialog@@QAE?AV?$CStringT@GV?$StrTraitMFC@GV?$ChTraitsCRT@G@@@@@@XZ @ 3589 NONAME
 ?GetFilePath@CFile@@UBE?AV?$CStringT@GV?$StrTraitMFC@GV?$ChTraitsCRT@G@@@@@@XZ @ 3590 NONAME
 ?GetFilePath@CFileFind@@UBE?AV?$CStringT@GV?$StrTraitMFC@GV?$ChTraitsCRT@G@@@@@@XZ @ 3591 NONAME
 ?GetFilePath@CGopherFileFind@@UBE?AV?$CStringT@GV?$StrTraitMFC@GV?$ChTraitsCRT@G@@@@@@XZ @ 3592 NONAME
 ?GetFileTitle@CFile@@UBE?AV?$CStringT@GV?$StrTraitMFC@GV?$ChTraitsCRT@G@@@@@@XZ @ 3593 NONAME
 ?GetFileTitle@CFileDialog@@QBE?AV?$CStringT@GV?$StrTraitMFC@GV?$ChTraitsCRT@G@@@@@@XZ @ 3594 NONAME
 ?GetFileTitle@CFileFind@@UBE?AV?$CStringT@GV?$StrTraitMFC@GV?$ChTraitsCRT@G@@@@@@XZ @ 3595 NONAME
 ?GetFileTitle@CGopherFileFind@@UBE?AV?$CStringT@GV?$StrTraitMFC@GV?$ChTraitsCRT@G@@@@@@XZ @ 3596 NONAME
 ?GetFileTypeString@COleServerDoc@@MAEHAAV?$CStringT@GV?$StrTraitMFC@GV?$ChTraitsCRT@G@@@@@@@Z @ 3597 NONAME
 ?GetFileURL@CFileFind@@UBE?AV?$CStringT@GV?$StrTraitMFC@GV?$ChTraitsCRT@G@@@@@@XZ @ 3598 NONAME
 ?GetFileURL@CFtpFileFind@@UBE?AV?$CStringT@GV?$StrTraitMFC@GV?$ChTraitsCRT@G@@@@@@XZ @ 3599 NONAME
 ?GetFileURL@CGopherFileFind@@UBE?AV?$CStringT@GV?$StrTraitMFC@GV?$ChTraitsCRT@G@@@@@@XZ @ 3600 NONAME
 ?GetFileURL@CHttpFile@@UBE?AV?$CStringT@GV?$StrTraitMFC@GV?$ChTraitsCRT@G@@@@@@XZ @ 3601 NONAME
 ?GetFindString@CFindReplaceDialog@@QBE?AV?$CStringT@GV?$StrTraitMFC@GV?$ChTraitsCRT@G@@@@@@XZ @ 3602 NONAME
 ?GetFirstDayOfWeek@CMonthCalCtrl@@QBEHPAH@Z @ 3603 NONAME
 ?GetFirstDocPosition@CMultiDocTemplate@@UBEPAU__POSITION@@XZ @ 3604 NONAME
 ?GetFirstDocPosition@CSingleDocTemplate@@UBEPAU__POSITION@@XZ @ 3605 NONAME
 ?GetFirstDocTemplatePosition@CDocManager@@UBEPAU__POSITION@@XZ @ 3606 NONAME
 ?GetFirstDocTemplatePosition@CWinApp@@QBEPAU__POSITION@@XZ @ 3607 NONAME
 ?GetFirstFrame@COleDocument@@QAEPAVCFrameWnd@@XZ @ 3608 NONAME
 ?GetFirstSelectedItemPosition@CListCtrl@@QBEPAU__POSITION@@XZ @ 3609 NONAME
 ?GetFirstViewPosition@CDocument@@UBEPAU__POSITION@@XZ @ 3610 NONAME
 ?GetFirstVisibleItem@CTreeCtrl@@QBEPAU_TREEITEM@@XZ @ 3611 NONAME
 ?GetFirstVisibleLine@CEdit@@QBEHXZ @ 3612 NONAME
 ?GetFirstVisibleLine@CRichEditCtrl@@QBEHXZ @ 3613 NONAME
 ?GetFocus@COleControl@@QAEPAVCWnd@@XZ @ 3614 NONAME
 ?GetFocus@CWnd@@SGPAV1@XZ @ 3615 NONAME
 ?GetFocus@XOleIPSite@COleControlSite@@UAGJXZ @ 3616 NONAME
 ?GetFolderPath@CFileDialog@@QBE?AV?$CStringT@GV?$StrTraitMFC@GV?$ChTraitsCRT@G@@@@@@XZ @ 3617 NONAME
 ?GetFont@CDialogTemplate@@QBEHAAV?$CStringT@GV?$StrTraitMFC@GV?$ChTraitsCRT@G@@@@@@AAG@Z @ 3618 NONAME
 ?GetFont@CDialogTemplate@@SAHPBUDLGTEMPLATE@@AAV?$CStringT@GV?$StrTraitMFC@GV?$ChTraitsCRT@G@@@@@@AAG@Z @ 3619 NONAME
 ?GetFont@COleControl@@QAEPAUIFontDisp@@XZ @ 3620 NONAME
 ?GetFont@CWnd@@QBEPAVCFont@@XZ @ 3621 NONAME
 ?GetFontData@CDC@@QBEKKKPAXK@Z @ 3622 NONAME
 ?GetFontDispatch@CFontHolder@@QAEPAUIFontDisp@@XZ @ 3623 NONAME
 ?GetFontHandle@CFontHolder@@QAEPAUHFONT__@@JJ@Z @ 3624 NONAME
 ?GetFontHandle@CFontHolder@@QAEPAUHFONT__@@XZ @ 3625 NONAME
 ?GetFontSizeField@CDialogTemplate@@KAPAEPBUDLGTEMPLATE@@@Z @ 3626 NONAME
 ?GetFontTextMetrics@COleControl@@QAEXPAUtagTEXTMETRICW@@AAVCFontHolder@@@Z @ 3627 NONAME
 ?GetForeColor@COleControl@@QAEKXZ @ 3628 NONAME
 ?GetForegroundWindow@CWnd@@SGPAV1@XZ @ 3629 NONAME
 ?GetFormatEtc@CAsyncMonikerFile@@QBEPAUtagFORMATETC@@XZ @ 3630 NONAME
 ?GetFormatID@CPropertySection@@QAE?AU_GUID@@XZ @ 3631 NONAME
 ?GetFormatVersion@CPropertySet@@QAEGXZ @ 3632 NONAME
 ?GetFromPage@CPrintDialog@@QBEHXZ @ 3633 NONAME
 ?GetFromPage@CPrintInfo@@QBEIXZ @ 3634 NONAME
 ?GetFromPrefix@COleChangeSourceDialog@@QAE?AV?$CStringT@GV?$StrTraitMFC@GV?$ChTraitsCRT@G@@@@@@XZ @ 3635 NONAME
 ?GetFtpConnection@CInternetSession@@QAEPAVCFtpConnection@@PBG00GH@Z @ 3636 NONAME
 ?GetFullName@CHtmlView@@QBE?AV?$CStringT@GV?$StrTraitMFC@GV?$ChTraitsCRT@G@@@@@@XZ @ 3637 NONAME
 ?GetFullScreen@CHtmlView@@QBEHXZ @ 3638 NONAME
 ?GetFuncInfoFromId@CDHtmlControlSink@@QAEJABU_GUID@@JKAAU_ATL_FUNC_INFO@ATL@@@Z @ 3639 NONAME
 ?GetGlobalData@COleDataObject@@QAEPAXGPAUtagFORMATETC@@@Z @ 3640 NONAME
 ?GetGlyphOutlineW@CDC@@QBEKIIPAU_GLYPHMETRICS@@KPAXPBU_MAT2@@@Z @ 3641 NONAME
 ?GetGopherConnection@CInternetSession@@QAEPAVCGopherConnection@@PBG00G@Z @ 3642 NONAME
 ?GetGUID@XProvideClassInfo@COleControl@@UAGJKPAU_GUID@@@Z @ 3643 NONAME
 ?GetHalftoneBrush@CDC@@SGPAVCBrush@@XZ @ 3644 NONAME
 ?GetHandle@CEdit@@QBEPAXXZ @ 3645 NONAME
 ?GetHandleMask@CRectTracker@@UBEIXZ @ 3646 NONAME
 ?GetHandleRect@CRectTracker@@IBEXHPAVCRect@@@Z @ 3647 NONAME
 ?GetHandleSize@CRectTracker@@MBEHPBUtagRECT@@@Z @ 3648 NONAME
 ?GetHashTableSize@CMapPtrToPtr@@QBEIXZ @ 3649 NONAME
 ?GetHashTableSize@CMapPtrToWord@@QBEIXZ @ 3650 NONAME
 ?GetHashTableSize@CMapStringToOb@@QBEIXZ @ 3651 NONAME
 ?GetHashTableSize@CMapStringToPtr@@QBEIXZ @ 3652 NONAME
 ?GetHashTableSize@CMapStringToString@@QBEIXZ @ 3653 NONAME
 ?GetHashTableSize@CMapWordToOb@@QBEIXZ @ 3654 NONAME
 ?GetHashTableSize@CMapWordToPtr@@QBEIXZ @ 3655 NONAME
 ?GetHead@CObList@@QAEAAPAVCObject@@XZ @ 3656 NONAME
 ?GetHead@CObList@@QBEAAPBVCObject@@XZ @ 3657 NONAME
 ?GetHead@CPtrList@@QAEAAPAXXZ @ 3658 NONAME
 ?GetHead@CPtrList@@QBEAAPBXXZ @ 3659 NONAME
 ?GetHead@CStringList@@QAEAAV?$CStringT@GV?$StrTraitMFC@GV?$ChTraitsCRT@G@@@@@@XZ @ 3660 NONAME
 ?GetHead@CStringList@@QBEABV?$CStringT@GV?$StrTraitMFC@GV?$ChTraitsCRT@G@@@@@@XZ @ 3661 NONAME
 ?GetHeaderCtrl@CListCtrl@@QAEPAVCHeaderCtrl@@XZ @ 3662 NONAME
 ?GetHeadPosition@CObList@@QBEPAU__POSITION@@XZ @ 3663 NONAME
 ?GetHeadPosition@CPtrList@@QBEPAU__POSITION@@XZ @ 3664 NONAME
 ?GetHeadPosition@CStringList@@QBEPAU__POSITION@@XZ @ 3665 NONAME
 ?GetHeight@CHtmlView@@QBEJXZ @ 3666 NONAME
 ?GetHelpMenu@COleDocObjectItem@@MAEPAVCMenu@@AAI@Z @ 3667 NONAME
 ?GetHitRect@CSplitterWnd@@MAEXHAAVCRect@@@Z @ 3668 NONAME
 ?GetHorizontalExtent@CComboBox@@QBEIXZ @ 3669 NONAME
 ?GetHorizontalExtent@CListBox@@QBEHXZ @ 3670 NONAME
 ?GetHostInfo@CBrowserControlSite@@MAGJPAU_DOCHOSTUIINFO@@@Z @ 3671 NONAME
 ?GetHostInfo@CDHtmlDialog@@UAGJPAU_DOCHOSTUIINFO@@@Z @ 3672 NONAME
 ?GetHostInfo@XDocHostUIHandler@CHtmlControlSite@@UAGJPAU_DOCHOSTUIINFO@@@Z @ 3673 NONAME
 ?GetHotCursor@CListCtrl@@QAEPAUHICON__@@XZ @ 3674 NONAME
 ?GetHotImageList@CToolBarCtrl@@QBEPAVCImageList@@XZ @ 3675 NONAME
 ?GetHotItem@CListCtrl@@QAEHXZ @ 3676 NONAME
 ?GetHotItem@CToolBarCtrl@@QBEHXZ @ 3677 NONAME
 ?GetHotKey@CHotKeyCtrl@@QBEKXZ @ 3678 NONAME
 ?GetHotKey@CHotKeyCtrl@@QBEXAAG0@Z @ 3679 NONAME
 ?GetHotKeyName@CHotKeyCtrl@@QBE?AV?$CStringT@GV?$StrTraitMFC@GV?$ChTraitsCRT@G@@@@@@XZ @ 3680 NONAME
 ?GetHoverTime@CListCtrl@@QBEKXZ @ 3681 NONAME
 ?GetHtmlDocument@CHtmlView@@QBEPAUIDispatch@@XZ @ 3682 NONAME
 ?GetHttpConnection@CInternetSession@@QAEPAVCHttpConnection@@PBGG00@Z @ 3683 NONAME
 ?GetHttpConnection@CInternetSession@@QAEPAVCHttpConnection@@PBGKG00@Z @ 3684 NONAME
 ?GetHwnd@COleControl@@QAEIXZ @ 3685 NONAME
 ?GetHWND@XAccessibleServer@CWnd@@UAGJPAPAUHWND__@@@Z @ 3686 NONAME
 ?GetIcon@CButton@@QBEPAUHICON__@@XZ @ 3687 NONAME
 ?GetIcon@CStatic@@QBEPAUHICON__@@XZ @ 3688 NONAME
 ?GetIcon@CWnd@@QBEPAUHICON__@@H@Z @ 3689 NONAME
 ?GetIconFromRegistry@COleClientItem@@QBEPAUHICON__@@XZ @ 3690 NONAME
 ?GetIconFromRegistry@COleClientItem@@SAPAUHICON__@@AAU_GUID@@@Z @ 3691 NONAME
 ?GetIconicMetafile@COleChangeIconDialog@@QBEPAXXZ @ 3692 NONAME
 ?GetIconicMetafile@COleClientItem@@QAEPAXXZ @ 3693 NONAME
 ?GetIconicMetafile@COleConvertDialog@@QBEPAXXZ @ 3694 NONAME
 ?GetIconicMetafile@COleInsertDialog@@QBEPAXXZ @ 3695 NONAME
 ?GetIconicMetafile@COlePasteSpecialDialog@@QBEPAXXZ @ 3696 NONAME
 ?GetIconWndClass@CFrameWnd@@IAEPBGKI@Z @ 3697 NONAME
 ?GetID@CProperty@@QAEKXZ @ 3698 NONAME
 ?GetID@CPropertySection@@QAEHPBGPAK@Z @ 3699 NONAME
 ?GetIDataObject@COleDataObject@@QAEPAUIDataObject@@H@Z @ 3700 NONAME
 ?GetIDispatch@CCmdTarget@@QAEPAUIDispatch@@H@Z @ 3701 NONAME
 ?GetIDsOfNames@CDHtmlControlSink@@UAGJABU_GUID@@PAPAGIKPAJ@Z @ 3702 NONAME
 ?GetIDsOfNames@CDHtmlElementEventSink@@UAGJABU_GUID@@PAPAGIKPAJ@Z @ 3703 NONAME
 ?GetIDsOfNames@CDHtmlEventSink@@UAGJABU_GUID@@PAPAGIKPAJ@Z @ 3704 NONAME
 ?GetIDsOfNames@COleDispatchImpl@@UAGJABU_GUID@@PAPAGIKPAJ@Z @ 3705 NONAME
 ?GetIDsOfNames@XAccessible@CWnd@@UAGJABU_GUID@@PAPAGIKPAJ@Z @ 3706 NONAME
 ?GetIDsOfNames@XAmbientProps@COleControlSite@@UAGJABU_GUID@@PAPAGIKPAJ@Z @ 3707 NONAME
 ?GetIDsOfNames@XEventSink@COleControlSite@@UAGJABU_GUID@@PAPAGIKPAJ@Z @ 3708 NONAME
 ?GetIID@XEventConnPt@COleControl@@UAEABU_GUID@@XZ @ 3709 NONAME
 ?GetImageCount@CImageList@@QBEHXZ @ 3710 NONAME
 ?GetImageInfo@CImageList@@QBEHHPAU_IMAGEINFO@@@Z @ 3711 NONAME
 ?GetImageList@CComboBoxEx@@QBEPAVCImageList@@XZ @ 3712 NONAME
 ?GetImageList@CHeaderCtrl@@QBEPAVCImageList@@XZ @ 3713 NONAME
 ?GetImageList@CListCtrl@@QBEPAVCImageList@@H@Z @ 3714 NONAME
 ?GetImageList@CReBarCtrl@@QBEPAVCImageList@@XZ @ 3715 NONAME
 ?GetImageList@CTabCtrl@@QBEPAVCImageList@@XZ @ 3716 NONAME
 ?GetImageList@CToolBarCtrl@@QBEPAVCImageList@@XZ @ 3717 NONAME
 ?GetImageList@CTreeCtrl@@QBEPAVCImageList@@I@Z @ 3718 NONAME
 ?GetIndent@CTreeCtrl@@QBEIXZ @ 3719 NONAME
 ?GetInPlaceActiveItem@COleDocument@@UAEPAVCOleClientItem@@PAVCWnd@@@Z @ 3720 NONAME
 ?GetInPlaceActiveItem@CRichEditDoc@@UAEPAVCOleClientItem@@PAVCWnd@@@Z @ 3721 NONAME
 ?GetInPlaceActiveItem@CRichEditView@@QBEPAVCRichEditCntrItem@@XZ @ 3722 NONAME
 ?GetInPlaceContext@XRichEditOleCallback@CRichEditView@@UAGJPAPAUIOleInPlaceFrame@@PAPAUIOleInPlaceUIWindow@@PAUtagOIFI@@@Z @ 3723 NONAME
 ?GetInPlaceDocFrame@COleIPFrameWnd@@QAEJPAPAUIOleInPlaceUIWindow@@@Z @ 3724 NONAME
 ?GetInPlaceFrame@COleIPFrameWnd@@QAEJPAPAUIOleInPlaceUIWindow@@@Z @ 3725 NONAME
 ?GetInPlaceMenu@COleIPFrameWnd@@MAEPAUHMENU__@@XZ @ 3726 NONAME
 ?GetInPlaceSite@XOleDocumentView@CDocObjectServer@@UAGJPAPAUIOleInPlaceSite@@@Z @ 3727 NONAME
 ?GetInPlaceWindow@COleClientItem@@QAEPAVCWnd@@XZ @ 3728 NONAME
 ?GetInsertMark@CToolBarCtrl@@QBEXPAUTBINSERTMARK@@@Z @ 3729 NONAME
 ?GetInsertMarkColor@CToolBarCtrl@@QBEKXZ @ 3730 NONAME
 ?GetInsertMarkColor@CTreeCtrl@@QBEKXZ @ 3731 NONAME
 ?GetInsideRect@CSplitterWnd@@MBEXAAVCRect@@@Z @ 3732 NONAME
 ?GetInterface@CCmdTarget@@QAEPAUIUnknown@@PBX@Z @ 3733 NONAME
 ?GetInterfaceHook@CBrowserControlSite@@MAEPAUIUnknown@@PBX@Z @ 3734 NONAME
 ?GetInterfaceHook@CCmdTarget@@UAEPAUIUnknown@@PBX@Z @ 3735 NONAME
 ?GetInterfaceHook@COleControl@@MAEPAUIUnknown@@PBX@Z @ 3736 NONAME
 ?GetInterfaceHook@COleServerDoc@@MAEPAUIUnknown@@PBX@Z @ 3737 NONAME
 ?GetInterfaceMap@CCmdTarget@@MBEPBUAFX_INTERFACEMAP@@XZ @ 3738 NONAME
 ?GetInterfaceMap@CDocObjectServer@@MBEPBUAFX_INTERFACEMAP@@XZ @ 3739 NONAME
 ?GetInterfaceMap@CEnumConnections@@MBEPBUAFX_INTERFACEMAP@@XZ @ 3740 NONAME
 ?GetInterfaceMap@CEnumConnPoints@@MBEPBUAFX_INTERFACEMAP@@XZ @ 3741 NONAME
 ?GetInterfaceMap@CEnumFormatEtc@@MBEPBUAFX_INTERFACEMAP@@XZ @ 3742 NONAME
 ?GetInterfaceMap@CEnumOleVerb@@MBEPBUAFX_INTERFACEMAP@@XZ @ 3743 NONAME
 ?GetInterfaceMap@CEnumUnknown@@MBEPBUAFX_INTERFACEMAP@@XZ @ 3744 NONAME
 ?GetInterfaceMap@CHtmlControlSite@@MBEPBUAFX_INTERFACEMAP@@XZ @ 3745 NONAME
 ?GetInterfaceMap@COleClientItem@@MBEPBUAFX_INTERFACEMAP@@XZ @ 3746 NONAME
 ?GetInterfaceMap@COleControl@@MBEPBUAFX_INTERFACEMAP@@XZ @ 3747 NONAME
 ?GetInterfaceMap@COleControlContainer@@MBEPBUAFX_INTERFACEMAP@@XZ @ 3748 NONAME
 ?GetInterfaceMap@COleControlSite@@MBEPBUAFX_INTERFACEMAP@@XZ @ 3749 NONAME
 ?GetInterfaceMap@COleDataSource@@MBEPBUAFX_INTERFACEMAP@@XZ @ 3750 NONAME
 ?GetInterfaceMap@COleDocObjectItem@@MBEPBUAFX_INTERFACEMAP@@XZ @ 3751 NONAME
 ?GetInterfaceMap@COleDropSource@@MBEPBUAFX_INTERFACEMAP@@XZ @ 3752 NONAME
 ?GetInterfaceMap@COleDropTarget@@MBEPBUAFX_INTERFACEMAP@@XZ @ 3753 NONAME
 ?GetInterfaceMap@COleFrameHook@@MBEPBUAFX_INTERFACEMAP@@XZ @ 3754 NONAME
 ?GetInterfaceMap@COleLinkingDoc@@MBEPBUAFX_INTERFACEMAP@@XZ @ 3755 NONAME
 ?GetInterfaceMap@COleMessageFilter@@MBEPBUAFX_INTERFACEMAP@@XZ @ 3756 NONAME
 ?GetInterfaceMap@COleObjectFactory@@MBEPBUAFX_INTERFACEMAP@@XZ @ 3757 NONAME
 ?GetInterfaceMap@COlePropertyPage@@MBEPBUAFX_INTERFACEMAP@@XZ @ 3758 NONAME
 ?GetInterfaceMap@COleServerDoc@@MBEPBUAFX_INTERFACEMAP@@XZ @ 3759 NONAME
 ?GetInterfaceMap@COleServerItem@@MBEPBUAFX_INTERFACEMAP@@XZ @ 3760 NONAME
 ?GetInterfaceMap@CRichEditView@@MBEPBUAFX_INTERFACEMAP@@XZ @ 3761 NONAME
 ?GetInterfaceMap@CWnd@@MBEPBUAFX_INTERFACEMAP@@XZ @ 3762 NONAME
 ?GetIRichEditOle@CRichEditCtrl@@QBEPAUIRichEditOle@@XZ @ 3763 NONAME
 ?GetItem@CComboBoxEx@@QAEHPAUtagCOMBOBOXEXITEMW@@@Z @ 3764 NONAME
 ?GetItem@CHeaderCtrl@@QBEHHPAU_HD_ITEMW@@@Z @ 3765 NONAME
 ?GetItem@CListCtrl@@QBEHPAUtagLVITEMW@@@Z @ 3766 NONAME
 ?GetItem@CTabCtrl@@QBEHHPAUtagTCITEMW@@@Z @ 3767 NONAME
 ?GetItem@CTreeCtrl@@QBEHPAUtagTVITEMW@@@Z @ 3768 NONAME
 ?GetItemClipRect@COleServerDoc@@QBEXPAUtagRECT@@@Z @ 3769 NONAME
 ?GetItemCount@CHeaderCtrl@@QBEHXZ @ 3770 NONAME
 ?GetItemCount@CListCtrl@@QBEHXZ @ 3771 NONAME
 ?GetItemCount@CTabCtrl@@QBEHXZ @ 3772 NONAME
 ?GetItemData@CComboBox@@QBEKH@Z @ 3773 NONAME
 ?GetItemData@CListBox@@QBEKH@Z @ 3774 NONAME
 ?GetItemData@CListCtrl@@QBEKH@Z @ 3775 NONAME
 ?GetItemData@CTreeCtrl@@QBEKPAU_TREEITEM@@@Z @ 3776 NONAME
 ?GetItemDataPtr@CComboBox@@QBEPAXH@Z @ 3777 NONAME
 ?GetItemDataPtr@CListBox@@QBEPAXH@Z @ 3778 NONAME
 ?GetItemHeight@CComboBox@@QBEHH@Z @ 3779 NONAME
 ?GetItemHeight@CListBox@@QBEHH@Z @ 3780 NONAME
 ?GetItemHeight@CTreeCtrl@@QBEFXZ @ 3781 NONAME
 ?GetItemID@CStatusBar@@QBEIH@Z @ 3782 NONAME
 ?GetItemID@CToolBar@@QBEIH@Z @ 3783 NONAME
 ?GetItemImage@CTreeCtrl@@QBEHPAU_TREEITEM@@AAH1@Z @ 3784 NONAME
 ?GetItemName@COleChangeSourceDialog@@QAE?AV?$CStringT@GV?$StrTraitMFC@GV?$ChTraitsCRT@G@@@@@@XZ @ 3785 NONAME
 ?GetItemName@COleClientItem@@QBEXPAG@Z @ 3786 NONAME
 ?GetItemName@COleServerItem@@QBEABV?$CStringT@GV?$StrTraitMFC@GV?$ChTraitsCRT@G@@@@@@XZ @ 3787 NONAME
 ?GetItemPosition@CListCtrl@@QBEHHPAUtagPOINT@@@Z @ 3788 NONAME
 ?GetItemPosition@COleServerDoc@@QBEXPAUtagRECT@@@Z @ 3789 NONAME
 ?GetItemRect@CHeaderCtrl@@QBEHHPAUtagRECT@@@Z @ 3790 NONAME
 ?GetItemRect@CListBox@@QBEHHPAUtagRECT@@@Z @ 3791 NONAME
 ?GetItemRect@CListCtrl@@QBEHHPAUtagRECT@@I@Z @ 3792 NONAME
 ?GetItemRect@CStatusBar@@QBEXHPAUtagRECT@@@Z @ 3793 NONAME
 ?GetItemRect@CTabCtrl@@QBEHHPAUtagRECT@@@Z @ 3794 NONAME
 ?GetItemRect@CToolBar@@UBEXHPAUtagRECT@@@Z @ 3795 NONAME
 ?GetItemRect@CToolBarCtrl@@QBEHHPAUtagRECT@@@Z @ 3796 NONAME
 ?GetItemRect@CTreeCtrl@@QBEHPAU_TREEITEM@@PAUtagRECT@@H@Z @ 3797 NONAME
 ?GetItemState@CListCtrl@@QBEIHI@Z @ 3798 NONAME
 ?GetItemState@COleClientItem@@QBEIXZ @ 3799 NONAME
 ?GetItemState@CTabCtrl@@QBEKHK@Z @ 3800 NONAME
 ?GetItemState@CTreeCtrl@@QBEIPAU_TREEITEM@@I@Z @ 3801 NONAME
 ?GetItemStorage@COleClientItem@@UAEXXZ @ 3802 NONAME
 ?GetItemStorageCompound@COleClientItem@@QAEXXZ @ 3803 NONAME
 ?GetItemStorageFlat@COleClientItem@@QAEXXZ @ 3804 NONAME
 ?GetItemText@CListCtrl@@QBE?AV?$CStringT@GV?$StrTraitMFC@GV?$ChTraitsCRT@G@@@@@@HH@Z @ 3805 NONAME
 ?GetItemText@CListCtrl@@QBEHHHPAGH@Z @ 3806 NONAME
 ?GetItemText@CTreeCtrl@@QBE?AV?$CStringT@GV?$StrTraitMFC@GV?$ChTraitsCRT@G@@@@@@PAU_TREEITEM@@@Z @ 3807 NONAME
 ?GetKerningPairsW@CDC@@QBEHHPAUtagKERNINGPAIR@@@Z @ 3808 NONAME
 ?GetKeyName@CHotKeyCtrl@@SA?AV?$CStringT@GV?$StrTraitMFC@GV?$ChTraitsCRT@G@@@@@@IH@Z @ 3809 NONAME
 ?GetLastAccessTime@CFileFind@@UBEHAAVCTime@ATL@@@Z @ 3810 NONAME
 ?GetLastAccessTime@CFileFind@@UBEHPAU_FILETIME@@@Z @ 3811 NONAME
 ?GetLastAccessTime@CGopherFileFind@@UBEHAAVCTime@ATL@@@Z @ 3812 NONAME
 ?GetLastAccessTime@CGopherFileFind@@UBEHPAU_FILETIME@@@Z @ 3813 NONAME
 ?GetLastActivePopup@CWnd@@QBEPAV1@XZ @ 3814 NONAME
 ?GetLastError@CAsyncSocket@@SGHXZ @ 3815 NONAME
 ?GetLastError@COleDialog@@QBEIXZ @ 3816 NONAME
 ?GetLastStatus@COleClientItem@@QBEJXZ @ 3817 NONAME
 ?GetLastUpdate@COleUILinkInfo@@UAGJKPAU_FILETIME@@@Z @ 3818 NONAME
 ?GetLastWriteTime@CFileFind@@UBEHAAVCTime@ATL@@@Z @ 3819 NONAME
 ?GetLastWriteTime@CFileFind@@UBEHPAU_FILETIME@@@Z @ 3820 NONAME
 ?GetLastWriteTime@CGopherFileFind@@UBEHAAVCTime@ATL@@@Z @ 3821 NONAME
 ?GetLastWriteTime@CGopherFileFind@@UBEHPAU_FILETIME@@@Z @ 3822 NONAME
 ?GetLayout@CDC@@QBEKXZ @ 3823 NONAME
 ?GetLBFetchSize@CRecordset@@MAEJJ@Z @ 3824 NONAME
 ?GetLBound@COleSafeArray@@QAEXKPAJ@Z @ 3825 NONAME
 ?GetLBReallocSize@CRecordset@@MAEJJ@Z @ 3826 NONAME
 ?GetLBText@CComboBox@@QBEHHPAG@Z @ 3827 NONAME
 ?GetLBText@CComboBox@@QBEXHAAV?$CStringT@GV?$StrTraitMFC@GV?$ChTraitsCRT@G@@@@@@@Z @ 3828 NONAME
 ?GetLBTextLen@CComboBox@@QBEHH@Z @ 3829 NONAME
 ?GetLeft@CHtmlView@@QBEJXZ @ 3830 NONAME
 ?GetLength@CFile@@UBE_KXZ @ 3831 NONAME
 ?GetLength@CFileFind@@QBE_KXZ @ 3832 NONAME
 ?GetLength@CGopherFileFind@@UBE_KXZ @ 3833 NONAME
 ?GetLength@CInternetFile@@UBE_KXZ @ 3834 NONAME
 ?GetLength@CMemFile@@UBE_KXZ @ 3835 NONAME
 ?GetLength@COleStreamFile@@UBE_KXZ @ 3836 NONAME
 ?GetLength@CSocketFile@@UBE_KXZ @ 3837 NONAME
 ?GetLength@CStdioFile@@UBE_KXZ @ 3838 NONAME
 ?GetLicenseKey@COleObjectFactory@@MAEHKPAPAG@Z @ 3839 NONAME
 ?GetLicInfo@XClassFactory@COleObjectFactory@@UAGJPAUtagLICINFO@@@Z @ 3840 NONAME
 ?GetLimitText@CEdit@@QBEIXZ @ 3841 NONAME
 ?GetLimitText@CRichEditCtrl@@QBEJXZ @ 3842 NONAME
 ?GetLine@CEdit@@QBEHHPAG@Z @ 3843 NONAME
 ?GetLine@CEdit@@QBEHHPAGH@Z @ 3844 NONAME
 ?GetLine@CRichEditCtrl@@QBEHHPAG@Z @ 3845 NONAME
 ?GetLine@CRichEditCtrl@@QBEHHPAGH@Z @ 3846 NONAME
 ?GetLineColor@CTreeCtrl@@QBEKXZ @ 3847 NONAME
 ?GetLineCount@CEdit@@QBEHXZ @ 3848 NONAME
 ?GetLineCount@CRichEditCtrl@@QBEHXZ @ 3849 NONAME
 ?GetLineSize@CSliderCtrl@@QBEHXZ @ 3850 NONAME
 ?GetLinkSource@COleUILinkInfo@@UAGJKPAPAGPAK00PAH2@Z @ 3851 NONAME
 ?GetLinkSourceData@COleClientItem@@IAEHPAUtagSTGMEDIUM@@@Z @ 3852 NONAME
 ?GetLinkSourceData@COleServerItem@@QAEHPAUtagSTGMEDIUM@@@Z @ 3853 NONAME
 ?GetLinkUpdateOptions@COleClientItem@@QAE?AW4tagOLEUPDATE@@XZ @ 3854 NONAME
 ?GetLinkUpdateOptions@COleUILinkInfo@@UAGJKPAK@Z @ 3855 NONAME
 ?GetList@CPropertySection@@QAEPAVCPtrList@@XZ @ 3856 NONAME
 ?GetList@CPropertySet@@QAEPAVCPtrList@@XZ @ 3857 NONAME
 ?GetListCtrl@CListView@@QBEAAVCListCtrl@@XZ @ 3858 NONAME
 ?GetLocale@CComboBox@@QBEKXZ @ 3859 NONAME
 ?GetLocale@CListBox@@QBEKXZ @ 3860 NONAME
 ?GetLocationName@CHtmlView@@QBE?AV?$CStringT@GV?$StrTraitMFC@GV?$ChTraitsCRT@G@@@@@@XZ @ 3861 NONAME
 ?GetLocationURL@CHtmlView@@QBE?AV?$CStringT@GV?$StrTraitMFC@GV?$ChTraitsCRT@G@@@@@@XZ @ 3862 NONAME
 ?GetLocator@CGopherFileFind@@QBE?AVCGopherLocator@@XZ @ 3863 NONAME
 ?GetLocatorType@CGopherLocator@@QBEHAAK@Z @ 3864 NONAME
 ?GetLogBrush@CBrush@@QAEHPAUtagLOGBRUSH@@@Z @ 3865 NONAME
 ?GetLogFont@CFont@@QAEHPAUtagLOGFONTW@@@Z @ 3866 NONAME
 ?GetLogPen@CPen@@QAEHPAUtagLOGPEN@@@Z @ 3867 NONAME
 ?GetLongBinaryData@CFieldExchange@@QAEXHAAVCLongBinary@@PAJ@Z @ 3868 NONAME
 ?GetLongBinaryDataAndCleanup@CRecordset@@SGXPAVCDatabase@@PAXFJPAPAXHAAVCDBVariant@@F@Z @ 3869 NONAME
 ?GetLongBinarySize@CFieldExchange@@QAEJH@Z @ 3870 NONAME
 ?GetLongCharDataAndCleanup@CRecordset@@SGXPAVCDatabase@@PAXFJPAPAXHAAV?$CStringT@DV?$StrTraitMFC@DV?$ChTraitsCRT@D@@@@@@FF@Z @ 3871 NONAME
 ?GetLongCharDataAndCleanup@CRecordset@@SGXPAVCDatabase@@PAXFJPAPAXHAAV?$CStringT@GV?$StrTraitMFC@GV?$ChTraitsCRT@G@@@@@@FF@Z @ 3872 NONAME
 ?GetMainFrame@COleIPFrameWnd@@QAEPAVCFrameWnd@@XZ @ 3873 NONAME
 ?GetMainWnd@CWinThread@@UAEPAVCWnd@@XZ @ 3874 NONAME
 ?GetMapMode@CDC@@QBEHXZ @ 3875 NONAME
 ?GetMargin@CToolTipCtrl@@QBEXPAUtagRECT@@@Z @ 3876 NONAME
 ?GetMargins@CEdit@@QBEKXZ @ 3877 NONAME
 ?GetMargins@CPageSetupDialog@@QBEXPAUtagRECT@@0@Z @ 3878 NONAME
 ?GetMargins@CRichEditView@@QBE?AVCRect@@XZ @ 3879 NONAME
 ?GetMaxConnections@CConnectionPoint@@UAEHXZ @ 3880 NONAME
 ?GetMaxPage@CPrintInfo@@QBEIXZ @ 3881 NONAME
 ?GetMaxSelCount@CMonthCalCtrl@@QBEHXZ @ 3882 NONAME
 ?GetMaxSize@CToolBarCtrl@@QBEHPAUtagSIZE@@@Z @ 3883 NONAME
 ?GetMaxTextRows@CToolBarCtrl@@QBEHXZ @ 3884 NONAME
 ?GetMaxTipWidth@CToolTipCtrl@@QBEHXZ @ 3885 NONAME
 ?GetMDIFrame@CMDIChildWnd@@QAEPAVCMDIFrameWnd@@XZ @ 3886 NONAME
 ?GetMenu@CWnd@@QBEPAVCMenu@@XZ @ 3887 NONAME
 ?GetMenuBar@CHtmlView@@QBEHXZ @ 3888 NONAME
 ?GetMenuContextHelpId@CMenu@@QBEKXZ @ 3889 NONAME
 ?GetMenuItemCount@CMenu@@QBEIXZ @ 3890 NONAME
 ?GetMenuItemID@CMenu@@QBEIH@Z @ 3891 NONAME
 ?GetMenuItemInfoW@CMenu@@QAEHIPAUtagMENUITEMINFOW@@H@Z @ 3892 NONAME
 ?GetMenuState@CMenu@@QBEIII@Z @ 3893 NONAME
 ?GetMenuStringW@CMenu@@QBEHIAAV?$CStringT@GV?$StrTraitMFC@GV?$ChTraitsCRT@G@@@@@@I@Z @ 3894 NONAME
 ?GetMenuStringW@CMenu@@QBEHIPAGHI@Z @ 3895 NONAME
 ?GetMessageBar@CFrameWnd@@UAEPAVCWnd@@XZ @ 3896 NONAME
 ?GetMessageBar@CMDIChildWnd@@MAEPAVCWnd@@XZ @ 3897 NONAME
 ?GetMessageMap@CCheckListBox@@MBEPBUAFX_MSGMAP@@XZ @ 3898 NONAME
 ?GetMessageMap@CCmdTarget@@MBEPBUAFX_MSGMAP@@XZ @ 3899 NONAME
 ?GetMessageMap@CCommonDialog@@MBEPBUAFX_MSGMAP@@XZ @ 3900 NONAME
 ?GetMessageMap@CControlBar@@MBEPBUAFX_MSGMAP@@XZ @ 3901 NONAME
 ?GetMessageMap@CControlFrameWnd@@MBEPBUAFX_MSGMAP@@XZ @ 3902 NONAME
 ?GetMessageMap@CCtrlView@@MBEPBUAFX_MSGMAP@@XZ @ 3903 NONAME
 ?GetMessageMap@CDHtmlDialog@@MBEPBUAFX_MSGMAP@@XZ @ 3904 NONAME
 ?GetMessageMap@CDialog@@MBEPBUAFX_MSGMAP@@XZ @ 3905 NONAME
 ?GetMessageMap@CDialogBar@@MBEPBUAFX_MSGMAP@@XZ @ 3906 NONAME
 ?GetMessageMap@CDockBar@@MBEPBUAFX_MSGMAP@@XZ @ 3907 NONAME
 ?GetMessageMap@CDocObjectServer@@MBEPBUAFX_MSGMAP@@XZ @ 3908 NONAME
 ?GetMessageMap@CDocument@@MBEPBUAFX_MSGMAP@@XZ @ 3909 NONAME
 ?GetMessageMap@CEditView@@MBEPBUAFX_MSGMAP@@XZ @ 3910 NONAME
 ?GetMessageMap@CFormView@@MBEPBUAFX_MSGMAP@@XZ @ 3911 NONAME
 ?GetMessageMap@CFrameWnd@@MBEPBUAFX_MSGMAP@@XZ @ 3912 NONAME
 ?GetMessageMap@CHtmlEditView@@MBEPBUAFX_MSGMAP@@XZ @ 3913 NONAME
 ?GetMessageMap@CHtmlView@@MBEPBUAFX_MSGMAP@@XZ @ 3914 NONAME
 ?GetMessageMap@CListCtrl@@MBEPBUAFX_MSGMAP@@XZ @ 3915 NONAME
 ?GetMessageMap@CListView@@MBEPBUAFX_MSGMAP@@XZ @ 3916 NONAME
 ?GetMessageMap@CMDIChildWnd@@MBEPBUAFX_MSGMAP@@XZ @ 3917 NONAME
 ?GetMessageMap@CMDIFrameWnd@@MBEPBUAFX_MSGMAP@@XZ @ 3918 NONAME
 ?GetMessageMap@CMiniDockFrameWnd@@MBEPBUAFX_MSGMAP@@XZ @ 3919 NONAME
 ?GetMessageMap@CMiniFrameWnd@@MBEPBUAFX_MSGMAP@@XZ @ 3920 NONAME
 ?GetMessageMap@COleControl@@MBEPBUAFX_MSGMAP@@XZ @ 3921 NONAME
 ?GetMessageMap@COleDBRecordView@@MBEPBUAFX_MSGMAP@@XZ @ 3922 NONAME
 ?GetMessageMap@COleDocIPFrameWnd@@MBEPBUAFX_MSGMAP@@XZ @ 3923 NONAME
 ?GetMessageMap@COleIPFrameWnd@@MBEPBUAFX_MSGMAP@@XZ @ 3924 NONAME
 ?GetMessageMap@COlePropertyPage@@MBEPBUAFX_MSGMAP@@XZ @ 3925 NONAME
 ?GetMessageMap@COleResizeBar@@MBEPBUAFX_MSGMAP@@XZ @ 3926 NONAME
 ?GetMessageMap@COleServerDoc@@MBEPBUAFX_MSGMAP@@XZ @ 3927 NONAME
 ?GetMessageMap@CPreviewView@@MBEPBUAFX_MSGMAP@@XZ @ 3928 NONAME
 ?GetMessageMap@CPrintDialog@@MBEPBUAFX_MSGMAP@@XZ @ 3929 NONAME
 ?GetMessageMap@CPrintDialogEx@@MBEPBUAFX_MSGMAP@@XZ @ 3930 NONAME
 ?GetMessageMap@CPropertyPage@@MBEPBUAFX_MSGMAP@@XZ @ 3931 NONAME
 ?GetMessageMap@CPropertySheet@@MBEPBUAFX_MSGMAP@@XZ @ 3932 NONAME
 ?GetMessageMap@CReBar@@MBEPBUAFX_MSGMAP@@XZ @ 3933 NONAME
 ?GetMessageMap@CRecordView@@MBEPBUAFX_MSGMAP@@XZ @ 3934 NONAME
 ?GetMessageMap@CRichEditView@@MBEPBUAFX_MSGMAP@@XZ @ 3935 NONAME
 ?GetMessageMap@CScrollView@@MBEPBUAFX_MSGMAP@@XZ @ 3936 NONAME
 ?GetMessageMap@CSocketWnd@@MBEPBUAFX_MSGMAP@@XZ @ 3937 NONAME
 ?GetMessageMap@CSplitterWnd@@MBEPBUAFX_MSGMAP@@XZ @ 3938 NONAME
 ?GetMessageMap@CStatusBar@@MBEPBUAFX_MSGMAP@@XZ @ 3939 NONAME
 ?GetMessageMap@CTabCtrl@@MBEPBUAFX_MSGMAP@@XZ @ 3940 NONAME
 ?GetMessageMap@CToolBar@@MBEPBUAFX_MSGMAP@@XZ @ 3941 NONAME
 ?GetMessageMap@CToolBarCtrl@@MBEPBUAFX_MSGMAP@@XZ @ 3942 NONAME
 ?GetMessageMap@CToolTipCtrl@@MBEPBUAFX_MSGMAP@@XZ @ 3943 NONAME
 ?GetMessageMap@CTreeCtrl@@MBEPBUAFX_MSGMAP@@XZ @ 3944 NONAME
 ?GetMessageMap@CTreeView@@MBEPBUAFX_MSGMAP@@XZ @ 3945 NONAME
 ?GetMessageMap@CView@@MBEPBUAFX_MSGMAP@@XZ @ 3946 NONAME
 ?GetMessageMap@CWinApp@@MBEPBUAFX_MSGMAP@@XZ @ 3947 NONAME
 ?GetMessageMap@CWnd@@MBEPBUAFX_MSGMAP@@XZ @ 3948 NONAME
 ?GetMessageString@CFrameWnd@@UBEXIAAV?$CStringT@GV?$StrTraitMFC@GV?$ChTraitsCRT@G@@@@@@@Z @ 3949 NONAME
 ?GetMessageString@COleControl@@UBEXIAAV?$CStringT@GV?$StrTraitMFC@GV?$ChTraitsCRT@G@@@@@@@Z @ 3950 NONAME
 ?GetMetaData@CDataSourceControl@@QAEJXZ @ 3951 NONAME
 ?GetMetafileData@COleControl@@IAEHPAUtagFORMATETC@@PAUtagSTGMEDIUM@@@Z @ 3952 NONAME
 ?GetMetafileData@COleServerItem@@MAEHPAUtagFORMATETC@@PAUtagSTGMEDIUM@@@Z @ 3953 NONAME
 ?GetMinPage@CPrintInfo@@QBEIXZ @ 3954 NONAME
 ?GetMinReqRect@CMonthCalCtrl@@QBEHPAUtagRECT@@@Z @ 3955 NONAME
 ?GetMiscStatus@XOleObject@CDocObjectServer@@UAGJKPAK@Z @ 3956 NONAME
 ?GetMiscStatus@XOleObject@COleControl@@UAGJKPAK@Z @ 3957 NONAME
 ?GetMiscStatus@XOleObject@COleServerDoc@@UAGJKPAK@Z @ 3958 NONAME
 ?GetMiscStatus@XOleObject@COleServerItem@@UAGJKPAK@Z @ 3959 NONAME
 ?GetMiterLimit@CDC@@QBEMXZ @ 3960 NONAME
 ?GetModify@CEdit@@QBEHXZ @ 3961 NONAME
 ?GetModify@CRichEditCtrl@@QBEHXZ @ 3962 NONAME
 ?GetModifyPointers@CRectTracker@@IAEXHPAPAH0PAH1@Z @ 3963 NONAME
 ?GetMoniker@CMonikerFile@@QBEPAUIMoniker@@XZ @ 3964 NONAME
 ?GetMoniker@COleDocument@@UAEPAUIMoniker@@W4tagOLEGETMONIKER@@@Z @ 3965 NONAME
 ?GetMoniker@COleLinkingDoc@@UAEPAUIMoniker@@W4tagOLEGETMONIKER@@@Z @ 3966 NONAME
 ?GetMoniker@COleServerDoc@@UAEPAUIMoniker@@W4tagOLEGETMONIKER@@@Z @ 3967 NONAME
 ?GetMoniker@COleServerItem@@QAEPAUIMoniker@@W4tagOLEGETMONIKER@@@Z @ 3968 NONAME
 ?GetMoniker@XOleClientSite@COleClientItem@@UAGJKKPAPAUIMoniker@@@Z @ 3969 NONAME
 ?GetMoniker@XOleClientSite@COleControlSite@@UAGJKKPAPAUIMoniker@@@Z @ 3970 NONAME
 ?GetMoniker@XOleObject@CDocObjectServer@@UAGJKKPAPAUIMoniker@@@Z @ 3971 NONAME
 ?GetMoniker@XOleObject@COleControl@@UAGJKKPAPAUIMoniker@@@Z @ 3972 NONAME
 ?GetMoniker@XOleObject@COleServerDoc@@UAGJKKPAPAUIMoniker@@@Z @ 3973 NONAME
 ?GetMoniker@XOleObject@COleServerItem@@UAGJKKPAPAUIMoniker@@@Z @ 3974 NONAME
 ?GetMonthCalColor@CDateTimeCtrl@@QBEKH@Z @ 3975 NONAME
 ?GetMonthCalCtrl@CDateTimeCtrl@@QBEPAVCMonthCalCtrl@@XZ @ 3976 NONAME
 ?GetMonthCalFont@CDateTimeCtrl@@QBEPAVCFont@@XZ @ 3977 NONAME
 ?GetMonthDelta@CMonthCalCtrl@@QBEHXZ @ 3978 NONAME
 ?GetMonthRange@CMonthCalCtrl@@QBEHAAVCOleDateTime@ATL@@0K@Z @ 3979 NONAME
 ?GetMonthRange@CMonthCalCtrl@@QBEHAAVCTime@ATL@@0K@Z @ 3980 NONAME
 ?GetMonthRange@CMonthCalCtrl@@QBEHPAU_SYSTEMTIME@@0K@Z @ 3981 NONAME
 ?GetNaturalExtent@XViewObject@COleControl@@UAGJKJPAUtagDVTARGETDEVICE@@PAUHDC__@@PAUtagExtentInfo@@PAUtagSIZE@@@Z @ 3982 NONAME
 ?GetNearestColor@CDC@@QBEKK@Z @ 3983 NONAME
 ?GetNearestPaletteIndex@CPalette@@QBEIK@Z @ 3984 NONAME
 ?GetNewItemNumber@COleClientItem@@QAEKXZ @ 3985 NONAME
 ?GetNewStorage@XRichEditOleCallback@CRichEditView@@UAGJPAPAUIStorage@@@Z @ 3986 NONAME
 ?GetNext@CDataBoundProperty@@QAEPAV1@XZ @ 3987 NONAME
 ?GetNext@CObList@@QAEAAPAVCObject@@AAPAU__POSITION@@@Z @ 3988 NONAME
 ?GetNext@CObList@@QBEAAPBVCObject@@AAPAU__POSITION@@@Z @ 3989 NONAME
 ?GetNext@CPtrList@@QAEAAPAXAAPAU__POSITION@@@Z @ 3990 NONAME
 ?GetNext@CPtrList@@QBEAAPBXAAPAU__POSITION@@@Z @ 3991 NONAME
 ?GetNext@CStringList@@QAEAAV?$CStringT@GV?$StrTraitMFC@GV?$ChTraitsCRT@G@@@@@@AAPAU__POSITION@@@Z @ 3992 NONAME
 ?GetNext@CStringList@@QBEABV?$CStringT@GV?$StrTraitMFC@GV?$ChTraitsCRT@G@@@@@@AAPAU__POSITION@@@Z @ 3993 NONAME
 ?GetNextAssoc@CMapPtrToPtr@@QBEXAAPAU__POSITION@@AAPAX1@Z @ 3994 NONAME
 ?GetNextAssoc@CMapPtrToWord@@QBEXAAPAU__POSITION@@AAPAXAAG@Z @ 3995 NONAME
 ?GetNextAssoc@CMapStringToOb@@QBEXAAPAU__POSITION@@AAV?$CStringT@GV?$StrTraitMFC@GV?$ChTraitsCRT@G@@@@@@AAPAVCObject@@@Z @ 3996 NONAME
 ?GetNextAssoc@CMapStringToPtr@@QBEXAAPAU__POSITION@@AAV?$CStringT@GV?$StrTraitMFC@GV?$ChTraitsCRT@G@@@@@@AAPAX@Z @ 3997 NONAME
 ?GetNextAssoc@CMapStringToString@@QBEXAAPAU__POSITION@@AAV?$CStringT@GV?$StrTraitMFC@GV?$ChTraitsCRT@G@@@@@@1@Z @ 3998 NONAME
 ?GetNextAssoc@CMapWordToOb@@QBEXAAPAU__POSITION@@AAGAAPAVCObject@@@Z @ 3999 NONAME
 ?GetNextAssoc@CMapWordToPtr@@QBEXAAPAU__POSITION@@AAGAAPAX@Z @ 4000 NONAME
 ?GetNextClientItem@COleDocument@@QBEPAVCOleClientItem@@AAPAU__POSITION@@@Z @ 4001 NONAME
 ?GetNextConnection@CConnectionPoint@@QBEPAUIUnknown@@AAPAU__POSITION@@@Z @ 4002 NONAME
 ?GetNextDlgGroupItem@CWnd@@QBEPAV1@PAV1@H@Z @ 4003 NONAME
 ?GetNextDlgTabItem@CWnd@@QBEPAV1@PAV1@H@Z @ 4004 NONAME
 ?GetNextDoc@CMultiDocTemplate@@UBEPAVCDocument@@AAPAU__POSITION@@@Z @ 4005 NONAME
 ?GetNextDoc@CSingleDocTemplate@@UBEPAVCDocument@@AAPAU__POSITION@@@Z @ 4006 NONAME
 ?GetNextDocTemplate@CDocManager@@UBEPAVCDocTemplate@@AAPAU__POSITION@@@Z @ 4007 NONAME
 ?GetNextDocTemplate@CWinApp@@QBEPAVCDocTemplate@@AAPAU__POSITION@@@Z @ 4008 NONAME
 ?GetNextFormat@COleDataObject@@QAEHPAUtagFORMATETC@@@Z @ 4009 NONAME
 ?GetNextItem@CListCtrl@@QBEHHH@Z @ 4010 NONAME
 ?GetNextItem@COleDocument@@UBEPAVCDocItem@@AAPAU__POSITION@@@Z @ 4011 NONAME
 ?GetNextItem@CTreeCtrl@@QBEPAU_TREEITEM@@PAU2@I@Z @ 4012 NONAME
 ?GetNextItemOfKind@COleDocument@@IBEPAVCDocItem@@AAPAU__POSITION@@PAUCRuntimeClass@@@Z @ 4013 NONAME
 ?GetNextLink@COleUILinkInfo@@UAGKK@Z @ 4014 NONAME
 ?GetNextPathName@CFileDialog@@QBE?AV?$CStringT@GV?$StrTraitMFC@GV?$ChTraitsCRT@G@@@@@@AAPAU__POSITION@@@Z @ 4015 NONAME
 ?GetNextSelectedItem@CListCtrl@@QBEHAAPAU__POSITION@@@Z @ 4016 NONAME
 ?GetNextServerItem@COleDocument@@QBEPAVCOleServerItem@@AAPAU__POSITION@@@Z @ 4017 NONAME
 ?GetNextSiblingItem@CTreeCtrl@@QBEPAU_TREEITEM@@PAU2@@Z @ 4018 NONAME
 ?GetNextView@CDocument@@UBEPAVCView@@AAPAU__POSITION@@@Z @ 4019 NONAME
 ?GetNextVisibleItem@CTreeCtrl@@QBEPAU_TREEITEM@@PAU2@@Z @ 4020 NONAME
 ?GetNextWindow@CWnd@@QBEPAV1@I@Z @ 4021 NONAME
 ?GetNilString@CAfxStringMgr@@UAEPAUCStringData@ATL@@XZ @ 4022 NONAME
 ?GetNotifier@CFindReplaceDialog@@SGPAV1@J@Z @ 4023 NONAME
 ?GetNotSupported@CCmdTarget@@QAEXXZ @ 4024 NONAME
 ?GetNotSupported@COleControl@@QAEXXZ @ 4025 NONAME
 ?GetNumberOfWorkAreas@CListCtrl@@QBEIXZ @ 4026 NONAME
 ?GetNumTics@CSliderCtrl@@QBEIXZ @ 4027 NONAME
 ?GetObjectArray@COlePropertyPage@@QAEPAPAUIDispatch@@PAK@Z @ 4028 NONAME
 ?GetObjectDescriptorData@COleClientItem@@IAEXPAUtagPOINT@@PAUtagSIZE@@PAUtagSTGMEDIUM@@@Z @ 4029 NONAME
 ?GetObjectDescriptorData@COleServerItem@@QAEXPAUtagPOINT@@PAUtagSIZE@@PAUtagSTGMEDIUM@@@Z @ 4030 NONAME
 ?GetObjectInfo@XOleUIObjInfo@COlePropertiesDialog@@UAGJKPAKPAPAG111@Z @ 4031 NONAME
 ?GetObjectSchema@CArchive@@QAEIXZ @ 4032 NONAME
 ?GetObjectStorage@XOleItemContainer@COleLinkingDoc@@UAGJPAGPAUIBindCtx@@ABU_GUID@@PAPAX@Z @ 4033 NONAME
 ?GetObjectType@CGdiObject@@QBEIXZ @ 4034 NONAME
 ?GetObjectW@CGdiObject@@QBEHHPAX@Z @ 4035 NONAME
 ?GetObjectW@CHttpFile@@QBE?AV?$CStringT@GV?$StrTraitMFC@GV?$ChTraitsCRT@G@@@@@@XZ @ 4036 NONAME
 ?GetObjectW@XOleItemContainer@COleLinkingDoc@@UAGJPAGKPAUIBindCtx@@ABU_GUID@@PAPAX@Z @ 4037 NONAME
 ?GetODBCFieldCount@CRecordset@@QBEFXZ @ 4038 NONAME
 ?GetODBCFieldInfo@CRecordset@@QAEXFAAUCODBCFieldInfo@@@Z @ 4039 NONAME
 ?GetODBCFieldInfo@CRecordset@@QAEXPBGAAUCODBCFieldInfo@@@Z @ 4040 NONAME
 ?GetOffline@CHtmlView@@QBEHXZ @ 4041 NONAME
 ?GetOFN@CFileDialog@@QAEAAUtagOFNW@@XZ @ 4042 NONAME
 ?GetOFN@CFileDialog@@QBEABUtagOFNW@@XZ @ 4043 NONAME
 ?GetOleControlSite@CWnd@@QBEPAVCOleControlSite@@I@Z @ 4044 NONAME
 ?GetOleObject@COleServerItem@@QAEPAUIOleObject@@XZ @ 4045 NONAME
 ?GetOneDimSize@COleSafeArray@@QAEKXZ @ 4046 NONAME
 ?GetOpenClipboardWindow@CWnd@@SGPAV1@XZ @ 4047 NONAME
 ?GetOpenDocumentCount@CDocManager@@UAEHXZ @ 4048 NONAME
 ?GetOpenDocumentCount@CWinApp@@QAEHXZ @ 4049 NONAME
 ?GetOptionKeyPath@CBrowserControlSite@@MAGJPAPAGK@Z @ 4050 NONAME
 ?GetOptionKeyPath@CDHtmlDialog@@UAGJPAPAGK@Z @ 4051 NONAME
 ?GetOptionKeyPath@XDocHostUIHandler@CHtmlControlSite@@UAGJPAPAGK@Z @ 4052 NONAME
 ?GetOptions@CRichEditCtrl@@QBEIXZ @ 4053 NONAME
 ?GetOrderArray@CHeaderCtrl@@QAEHPAHH@Z @ 4054 NONAME
 ?GetOrigin@CListCtrl@@QBEHPAUtagPOINT@@@Z @ 4055 NONAME
 ?GetOSVersion@CPropertySet@@QAEKXZ @ 4056 NONAME
 ?GetOuterWindow@COleControl@@IBEPAVCWnd@@XZ @ 4057 NONAME
 ?GetOutlineTextMetricsW@CDC@@QBEIIPAU_OUTLINETEXTMETRICW@@@Z @ 4058 NONAME
 ?GetOutputCharWidth@CDC@@QBEHIIPAH@Z @ 4059 NONAME
 ?GetOutputTabbedTextExtent@CDC@@QBE?AVCSize@@ABV?$CStringT@GV?$StrTraitMFC@GV?$ChTraitsCRT@G@@@@@@HPAH@Z @ 4060 NONAME
 ?GetOutputTabbedTextExtent@CDC@@QBE?AVCSize@@PBGHHPAH@Z @ 4061 NONAME
 ?GetOutputTextExtent@CDC@@QBE?AVCSize@@ABV?$CStringT@GV?$StrTraitMFC@GV?$ChTraitsCRT@G@@@@@@@Z @ 4062 NONAME
 ?GetOutputTextExtent@CDC@@QBE?AVCSize@@PBGH@Z @ 4063 NONAME
 ?GetOutputTextMetrics@CDC@@QBEHPAUtagTEXTMETRICW@@@Z @ 4064 NONAME
 ?GetOwner@CWnd@@QBEPAV1@XZ @ 4065 NONAME
 ?GetPage@CPropertySheet@@QBEPAVCPropertyPage@@H@Z @ 4066 NONAME
 ?GetPageCount@COleDocObjectItem@@QAEHPAJ0@Z @ 4067 NONAME
 ?GetPageCount@CPropertySheet@@QBEHXZ @ 4068 NONAME
 ?GetPageIndex@CPropertySheet@@QAEHPAVCPropertyPage@@@Z @ 4069 NONAME
 ?GetPageInfo@XPrint@CDocObjectServer@@UAGJPAJ0@Z @ 4070 NONAME
 ?GetPageInfo@XPropertyPage@COlePropertyPage@@UAGJPAUtagPROPPAGEINFO@@@Z @ 4071 NONAME
 ?GetPageRect@CRichEditView@@QBE?AVCRect@@XZ @ 4072 NONAME
 ?GetPages@XSpecifyPropertyPages@COleControl@@UAGJPAUtagCAUUID@@@Z @ 4073 NONAME
 ?GetPageSite@COlePropertyPage@@QAEPAUIPropertyPageSite@@XZ @ 4074 NONAME
 ?GetPageSize@CSliderCtrl@@QBEHXZ @ 4075 NONAME
 ?GetPalette@CReBarCtrl@@QBEPAVCPalette@@XZ @ 4076 NONAME
 ?GetPaletteEntries@CPalette@@QBEIIIPAUtagPALETTEENTRY@@@Z @ 4077 NONAME
 ?GetPane@CSplitterWnd@@QBEPAVCWnd@@HH@Z @ 4078 NONAME
 ?GetPaneInfo@CStatusBar@@QBEXHAAI0AAH@Z @ 4079 NONAME
 ?GetPaneStyle@CStatusBar@@QBEIH@Z @ 4080 NONAME
 ?GetPaneText@CStatusBar@@QBE?AV?$CStringT@GV?$StrTraitMFC@GV?$ChTraitsCRT@G@@@@@@H@Z @ 4081 NONAME
 ?GetPaneText@CStatusBar@@QBEXHAAV?$CStringT@GV?$StrTraitMFC@GV?$ChTraitsCRT@G@@@@@@@Z @ 4082 NONAME
 ?GetPaperSize@CPageSetupDialog@@QBE?AVCSize@@XZ @ 4083 NONAME
 ?GetPaperSize@CRichEditView@@QBE?AVCSize@@XZ @ 4084 NONAME
 ?GetParaFormat@CRichEditCtrl@@QBEKAAU_paraformat@@@Z @ 4085 NONAME
 ?GetParaFormat@CRichEditCtrl@@QBEKAAUPARAFORMAT2@@@Z @ 4086 NONAME
 ?GetParaFormatSelection@CRichEditView@@QAEAAUPARAFORMAT2@@XZ @ 4087 NONAME
 ?GetParent@CWnd@@QBEPAV1@XZ @ 4088 NONAME
 ?GetParentBrowser@CHtmlView@@QBEPAUIDispatch@@XZ @ 4089 NONAME
 ?GetParentFrame@CWnd@@QBEPAVCFrameWnd@@XZ @ 4090 NONAME
 ?GetParentItem@CTreeCtrl@@QBEPAU_TREEITEM@@PAU2@@Z @ 4091 NONAME
 ?GetParentOwner@CWnd@@QBEPAV1@XZ @ 4092 NONAME
 ?GetParentSplitter@CView@@SGPAVCSplitterWnd@@PBVCWnd@@H@Z @ 4093 NONAME
 ?GetParts@CStatusBarCtrl@@QBEHHPAH@Z @ 4094 NONAME
 ?GetPasswordChar@CEdit@@QBEGXZ @ 4095 NONAME
 ?GetPasteIndex@COlePasteSpecialDialog@@QBEHXZ @ 4096 NONAME
 ?GetPath@CDataPathProperty@@QBE?AV?$CStringT@GV?$StrTraitMFC@GV?$ChTraitsCRT@G@@@@@@XZ @ 4097 NONAME
 ?GetPath@CDC@@QBEHPAUtagPOINT@@PAEH@Z @ 4098 NONAME
 ?GetPathName@CDocument@@QBEABV?$CStringT@GV?$StrTraitMFC@GV?$ChTraitsCRT@G@@@@@@XZ @ 4099 NONAME
 ?GetPathName@CFileDialog@@QBE?AV?$CStringT@GV?$StrTraitMFC@GV?$ChTraitsCRT@G@@@@@@XZ @ 4100 NONAME
 ?GetPathName@COleInsertDialog@@QBE?AV?$CStringT@GV?$StrTraitMFC@GV?$ChTraitsCRT@G@@@@@@XZ @ 4101 NONAME
 ?GetPeerName@CAsyncSocket@@QAEHAAV?$CStringT@GV?$StrTraitMFC@GV?$ChTraitsCRT@G@@@@@@AAI@Z @ 4102 NONAME
 ?GetPeerName@CAsyncSocket@@QAEHPAUsockaddr@@PAH@Z @ 4103 NONAME
 ?GetPictureDispatch@CPictureHolder@@QAEPAUIPictureDisp@@XZ @ 4104 NONAME
 ?GetPixel@CDC@@QBEKHH@Z @ 4105 NONAME
 ?GetPixel@CDC@@QBEKUtagPOINT@@@Z @ 4106 NONAME
 ?GetPolyFillMode@CDC@@QBEHXZ @ 4107 NONAME
 ?GetPortName@CPageSetupDialog@@QBE?AV?$CStringT@GV?$StrTraitMFC@GV?$ChTraitsCRT@G@@@@@@XZ @ 4108 NONAME
 ?GetPortName@CPrintDialog@@QBE?AV?$CStringT@GV?$StrTraitMFC@GV?$ChTraitsCRT@G@@@@@@XZ @ 4109 NONAME
 ?GetPortName@CPrintDialogEx@@QBE?AV?$CStringT@GV?$StrTraitMFC@GV?$ChTraitsCRT@G@@@@@@XZ @ 4110 NONAME
 ?GetPos@CProgressCtrl@@QAEHXZ @ 4111 NONAME
 ?GetPos@CSliderCtrl@@QBEHXZ @ 4112 NONAME
 ?GetPos@CSpinButtonCtrl@@QBEHXZ @ 4113 NONAME
 ?GetPos32@CSpinButtonCtrl@@QBEHPAH@Z @ 4114 NONAME
 ?GetPosition@CFile@@UBE_KXZ @ 4115 NONAME
 ?GetPosition@CMemFile@@UBE_KXZ @ 4116 NONAME
 ?GetPosition@COleStreamFile@@UBE_KXZ @ 4117 NONAME
 ?GetPosition@CSocketFile@@UBE_KXZ @ 4118 NONAME
 ?GetPosition@CStdioFile@@UBE_KXZ @ 4119 NONAME
 ?GetPredefinedStrings@XPerPropertyBrowsing@COleControl@@UAGJJPAUtagCALPOLESTR@@PAUtagCADWORD@@@Z @ 4120 NONAME
 ?GetPredefinedValue@XPerPropertyBrowsing@COleControl@@UAGJJKPAUtagVARIANT@@@Z @ 4121 NONAME
 ?GetPrev@CObList@@QAEAAPAVCObject@@AAPAU__POSITION@@@Z @ 4122 NONAME
 ?GetPrev@CObList@@QBEAAPBVCObject@@AAPAU__POSITION@@@Z @ 4123 NONAME
 ?GetPrev@CPtrList@@QAEAAPAXAAPAU__POSITION@@@Z @ 4124 NONAME
 ?GetPrev@CPtrList@@QBEAAPBXAAPAU__POSITION@@@Z @ 4125 NONAME
 ?GetPrev@CStringList@@QAEAAV?$CStringT@GV?$StrTraitMFC@GV?$ChTraitsCRT@G@@@@@@AAPAU__POSITION@@@Z @ 4126 NONAME
 ?GetPrev@CStringList@@QBEABV?$CStringT@GV?$StrTraitMFC@GV?$ChTraitsCRT@G@@@@@@AAPAU__POSITION@@@Z @ 4127 NONAME
 ?GetPrevSiblingItem@CTreeCtrl@@QBEPAU_TREEITEM@@PAU2@@Z @ 4128 NONAME
 ?GetPrevVisibleItem@CTreeCtrl@@QBEPAU_TREEITEM@@PAU2@@Z @ 4129 NONAME
 ?GetPrimarySelectedItem@COleDocument@@UAEPAVCOleClientItem@@PAVCView@@@Z @ 4130 NONAME
 ?GetPrimarySelectedItem@CRichEditDoc@@UAEPAVCOleClientItem@@PAVCView@@@Z @ 4131 NONAME
 ?GetPrintDeviceInfo@COleClientItem@@IAEHPAPAUIOleCache@@PAPAUtagDVTARGETDEVICE@@PAK@Z @ 4132 NONAME
 ?GetPrinterDC@CPrintDialog@@QBEPAUHDC__@@XZ @ 4133 NONAME
 ?GetPrinterDC@CPrintDialogEx@@QBEPAUHDC__@@XZ @ 4134 NONAME
 ?GetPrinterDeviceDefaults@CWinApp@@QAEHPAUtagPDW@@@Z @ 4135 NONAME
 ?GetPrinterFont@CEditView@@QBEPAVCFont@@XZ @ 4136 NONAME
 ?GetPrintRect@CRichEditView@@QBE?AVCRect@@XZ @ 4137 NONAME
 ?GetPrintWidth@CRichEditView@@QBEHXZ @ 4138 NONAME
 ?GetPriority@CAsyncMonikerFile@@MBEJXZ @ 4139 NONAME
 ?GetProfileBinary@CWinApp@@QAEHPBG0PAPAEPAI@Z @ 4140 NONAME
 ?GetProfileIntW@CWinApp@@QAEIPBG0H@Z @ 4141 NONAME
 ?GetProfileStringW@CWinApp@@QAE?AV?$CStringT@GV?$StrTraitMFC@GV?$ChTraitsCRT@G@@@@@@PBG00@Z @ 4142 NONAME
 ?GetPropCheck@COlePropertyPage@@QAEHPBGPAH@Z @ 4143 NONAME
 ?GetProperty@CHtmlView@@QAE?AVCOleVariant@@PBG@Z @ 4144 NONAME
 ?GetProperty@CHtmlView@@QAEHPBGAAV?$CStringT@GV?$StrTraitMFC@GV?$ChTraitsCRT@G@@@@@@@Z @ 4145 NONAME
 ?GetProperty@COleControlSite@@UBEXJGPAX@Z @ 4146 NONAME
 ?GetProperty@COleDispatchDriver@@QBEXJGPAX@Z @ 4147 NONAME
 ?GetProperty@CPropertySection@@QAEPAVCProperty@@K@Z @ 4148 NONAME
 ?GetProperty@CPropertySet@@QAEPAVCProperty@@U_GUID@@K@Z @ 4149 NONAME
 ?GetProperty@CWnd@@QBEXJGPAX@Z @ 4150 NONAME
 ?GetPropIndex@COlePropertyPage@@QAEHPBGPAH@Z @ 4151 NONAME
 ?GetPropPageIDs@COleControl@@MAEPAU_GUID@@AAK@Z @ 4152 NONAME
 ?GetPropRadio@COlePropertyPage@@QAEHPBGPAH@Z @ 4153 NONAME
 ?GetPropsetData@COleControl@@IAEHPAUtagFORMATETC@@PAUtagSTGMEDIUM@@ABU_GUID@@@Z @ 4154 NONAME
 ?GetPropText@COlePropertyPage@@QAEHPBGPAE@Z @ 4155 NONAME
 ?GetPropText@COlePropertyPage@@QAEHPBGPAF@Z @ 4156 NONAME
 ?GetPropText@COlePropertyPage@@QAEHPBGPAH@Z @ 4157 NONAME
 ?GetPropText@COlePropertyPage@@QAEHPBGPAI@Z @ 4158 NONAME
 ?GetPropText@COlePropertyPage@@QAEHPBGPAJ@Z @ 4159 NONAME
 ?GetPropText@COlePropertyPage@@QAEHPBGPAK@Z @ 4160 NONAME
 ?GetPropText@COlePropertyPage@@QAEHPBGPAM@Z @ 4161 NONAME
 ?GetPropText@COlePropertyPage@@QAEHPBGPAN@Z @ 4162 NONAME
 ?GetPropText@COlePropertyPage@@QAEHPBGPAV?$CStringT@GV?$StrTraitMFC@GV?$ChTraitsCRT@G@@@@@@@Z @ 4163 NONAME
 ?GetPunctuation@CRichEditCtrl@@QBEHIPAU_punctuation@@@Z @ 4164 NONAME
 ?GetRange@CDateTimeCtrl@@QBEKPAVCOleDateTime@ATL@@0@Z @ 4165 NONAME
 ?GetRange@CDateTimeCtrl@@QBEKPAVCTime@ATL@@0@Z @ 4166 NONAME
 ?GetRange@CMonthCalCtrl@@QBEKPAU_SYSTEMTIME@@0@Z @ 4167 NONAME
 ?GetRange@CMonthCalCtrl@@QBEKPAVCOleDateTime@ATL@@0@Z @ 4168 NONAME
 ?GetRange@CMonthCalCtrl@@QBEKPAVCTime@ATL@@0@Z @ 4169 NONAME
 ?GetRange@CProgressCtrl@@QAEXAAH0@Z @ 4170 NONAME
 ?GetRange@CSliderCtrl@@QBEXAAH0@Z @ 4171 NONAME
 ?GetRange@CSpinButtonCtrl@@QBEKXZ @ 4172 NONAME
 ?GetRange@CSpinButtonCtrl@@QBEXAAH0@Z @ 4173 NONAME
 ?GetRange32@CSpinButtonCtrl@@QBEXAAH0@Z @ 4174 NONAME
 ?GetRangeMax@CSliderCtrl@@QBEHXZ @ 4175 NONAME
 ?GetRangeMin@CSliderCtrl@@QBEHXZ @ 4176 NONAME
 ?GetRawValue@CProperty@@QAEPAXXZ @ 4177 NONAME
 ?GetReadOnlyPref@CFileDialog@@QBEHXZ @ 4178 NONAME
 ?GetReadyState@CHtmlView@@QBE?AW4tagREADYSTATE@@XZ @ 4179 NONAME
 ?GetReadyState@COleControl@@QAEJXZ @ 4180 NONAME
 ?GetReBarCtrl@CReBar@@QBEAAVCReBarCtrl@@XZ @ 4181 NONAME
 ?GetRecordCount@CRecordset@@QBEJXZ @ 4182 NONAME
 ?GetRect@CEdit@@QBEXPAUtagRECT@@@Z @ 4183 NONAME
 ?GetRect@CReBarCtrl@@QBEHIPAUtagRECT@@@Z @ 4184 NONAME
 ?GetRect@CRichEditCtrl@@QBEXPAUtagRECT@@@Z @ 4185 NONAME
 ?GetRect@CStatusBarCtrl@@QBEHHPAUtagRECT@@@Z @ 4186 NONAME
 ?GetRect@CToolBarCtrl@@QBEHHPAUtagRECT@@@Z @ 4187 NONAME
 ?GetRect@XOleDocumentView@CDocObjectServer@@UAGJPAUtagRECT@@@Z @ 4188 NONAME
 ?GetRect@XViewObject@COleControl@@UAGJKPAU_RECTL@@@Z @ 4189 NONAME
 ?GetRectInContainer@COleControl@@QAEHPAUtagRECT@@@Z @ 4190 NONAME
 ?GetRedoName@CRichEditCtrl@@QBE?AW4_undonameid@@XZ @ 4191 NONAME
 ?GetRegionData@CRgn@@QBEHPAU_RGNDATA@@H@Z @ 4192 NONAME
 ?GetRegisterAsBrowser@CHtmlView@@QBEHXZ @ 4193 NONAME
 ?GetRegisterAsDropTarget@CHtmlView@@QBEHXZ @ 4194 NONAME
 ?GetReplaceString@CFindReplaceDialog@@QBE?AV?$CStringT@GV?$StrTraitMFC@GV?$ChTraitsCRT@G@@@@@@XZ @ 4195 NONAME
 ?GetRgnBox@CRgn@@QBEHPAUtagRECT@@@Z @ 4196 NONAME
 ?GetRichEditCtrl@CRichEditView@@QBEAAVCRichEditCtrl@@XZ @ 4197 NONAME
 ?GetRoot@CFileFind@@UBE?AV?$CStringT@GV?$StrTraitMFC@GV?$ChTraitsCRT@G@@@@@@XZ @ 4198 NONAME
 ?GetRoot@CGopherFileFind@@UBE?AV?$CStringT@GV?$StrTraitMFC@GV?$ChTraitsCRT@G@@@@@@XZ @ 4199 NONAME
 ?GetRootItem@CTreeCtrl@@QBEPAU_TREEITEM@@XZ @ 4200 NONAME
 ?GetROP2@CDC@@QBEHXZ @ 4201 NONAME
 ?GetRoutingFrame@CCmdTarget@@IAEPAVCFrameWnd@@XZ @ 4202 NONAME
 ?GetRoutingFrame_@CCmdTarget@@KGPAVCFrameWnd@@XZ @ 4203 NONAME
 ?GetRoutingView@CCmdTarget@@IAEPAVCView@@XZ @ 4204 NONAME
 ?GetRoutingView_@CCmdTarget@@KGPAVCView@@XZ @ 4205 NONAME
 ?GetRowCount@CReBarCtrl@@QBEIXZ @ 4206 NONAME
 ?GetRowCount@CSplitterWnd@@QBEHXZ @ 4207 NONAME
 ?GetRowCount@CTabCtrl@@QBEHXZ @ 4208 NONAME
 ?GetRowHeight@CReBarCtrl@@QBEII@Z @ 4209 NONAME
 ?GetRowInfo@CSplitterWnd@@QBEXHAAH0@Z @ 4210 NONAME
 ?GetRows@CToolBarCtrl@@QBEHXZ @ 4211 NONAME
 ?GetRowsetSize@CRecordset@@QBEKXZ @ 4212 NONAME
 ?GetRowsFetched@CRecordset@@QBEKXZ @ 4213 NONAME
 ?GetRowStatus@CRecordset@@QBEGG@Z @ 4214 NONAME
 ?GetRuntimeClass@CAnimateCtrl@@UBEPAUCRuntimeClass@@XZ @ 4215 NONAME
 ?GetRuntimeClass@CArchiveException@@UBEPAUCRuntimeClass@@XZ @ 4216 NONAME
 ?GetRuntimeClass@CAsyncMonikerFile@@UBEPAUCRuntimeClass@@XZ @ 4217 NONAME
 ?GetRuntimeClass@CAsyncSocket@@UBEPAUCRuntimeClass@@XZ @ 4218 NONAME
 ?GetRuntimeClass@CBitmap@@UBEPAUCRuntimeClass@@XZ @ 4219 NONAME
 ?GetRuntimeClass@CBitmapButton@@UBEPAUCRuntimeClass@@XZ @ 4220 NONAME
 ?GetRuntimeClass@CBrush@@UBEPAUCRuntimeClass@@XZ @ 4221 NONAME
 ?GetRuntimeClass@CButton@@UBEPAUCRuntimeClass@@XZ @ 4222 NONAME
 ?GetRuntimeClass@CByteArray@@UBEPAUCRuntimeClass@@XZ @ 4223 NONAME
 ?GetRuntimeClass@CCachedDataPathProperty@@UBEPAUCRuntimeClass@@XZ @ 4224 NONAME
 ?GetRuntimeClass@CCheckListBox@@UBEPAUCRuntimeClass@@XZ @ 4225 NONAME
 ?GetRuntimeClass@CClientDC@@UBEPAUCRuntimeClass@@XZ @ 4226 NONAME
 ?GetRuntimeClass@CCmdTarget@@UBEPAUCRuntimeClass@@XZ @ 4227 NONAME
 ?GetRuntimeClass@CColorDialog@@UBEPAUCRuntimeClass@@XZ @ 4228 NONAME
 ?GetRuntimeClass@CComboBox@@UBEPAUCRuntimeClass@@XZ @ 4229 NONAME
 ?GetRuntimeClass@CComboBoxEx@@UBEPAUCRuntimeClass@@XZ @ 4230 NONAME
 ?GetRuntimeClass@CControlBar@@UBEPAUCRuntimeClass@@XZ @ 4231 NONAME
 ?GetRuntimeClass@CCriticalSection@@UBEPAUCRuntimeClass@@XZ @ 4232 NONAME
 ?GetRuntimeClass@CCtrlView@@UBEPAUCRuntimeClass@@XZ @ 4233 NONAME
 ?GetRuntimeClass@CDatabase@@UBEPAUCRuntimeClass@@XZ @ 4234 NONAME
 ?GetRuntimeClass@CDataPathProperty@@UBEPAUCRuntimeClass@@XZ @ 4235 NONAME
 ?GetRuntimeClass@CDateTimeCtrl@@UBEPAUCRuntimeClass@@XZ @ 4236 NONAME
 ?GetRuntimeClass@CDBException@@UBEPAUCRuntimeClass@@XZ @ 4237 NONAME
 ?GetRuntimeClass@CDC@@UBEPAUCRuntimeClass@@XZ @ 4238 NONAME
 ?GetRuntimeClass@CDHtmlDialog@@UBEPAUCRuntimeClass@@XZ @ 4239 NONAME
 ?GetRuntimeClass@CDialog@@UBEPAUCRuntimeClass@@XZ @ 4240 NONAME
 ?GetRuntimeClass@CDialogBar@@UBEPAUCRuntimeClass@@XZ @ 4241 NONAME
 ?GetRuntimeClass@CDocItem@@UBEPAUCRuntimeClass@@XZ @ 4242 NONAME
 ?GetRuntimeClass@CDockBar@@UBEPAUCRuntimeClass@@XZ @ 4243 NONAME
 ?GetRuntimeClass@CDockState@@UBEPAUCRuntimeClass@@XZ @ 4244 NONAME
 ?GetRuntimeClass@CDocManager@@UBEPAUCRuntimeClass@@XZ @ 4245 NONAME
 ?GetRuntimeClass@CDocObjectServer@@UBEPAUCRuntimeClass@@XZ @ 4246 NONAME
 ?GetRuntimeClass@CDocObjectServerItem@@UBEPAUCRuntimeClass@@XZ @ 4247 NONAME
 ?GetRuntimeClass@CDocTemplate@@UBEPAUCRuntimeClass@@XZ @ 4248 NONAME
 ?GetRuntimeClass@CDocument@@UBEPAUCRuntimeClass@@XZ @ 4249 NONAME
 ?GetRuntimeClass@CDragListBox@@UBEPAUCRuntimeClass@@XZ @ 4250 NONAME
 ?GetRuntimeClass@CDWordArray@@UBEPAUCRuntimeClass@@XZ @ 4251 NONAME
 ?GetRuntimeClass@CDynLinkLibrary@@UBEPAUCRuntimeClass@@XZ @ 4252 NONAME
 ?GetRuntimeClass@CEdit@@UBEPAUCRuntimeClass@@XZ @ 4253 NONAME
 ?GetRuntimeClass@CEditView@@UBEPAUCRuntimeClass@@XZ @ 4254 NONAME
 ?GetRuntimeClass@CEvent@@UBEPAUCRuntimeClass@@XZ @ 4255 NONAME
 ?GetRuntimeClass@CException@@UBEPAUCRuntimeClass@@XZ @ 4256 NONAME
 ?GetRuntimeClass@CFile@@UBEPAUCRuntimeClass@@XZ @ 4257 NONAME
 ?GetRuntimeClass@CFileDialog@@UBEPAUCRuntimeClass@@XZ @ 4258 NONAME
 ?GetRuntimeClass@CFileException@@UBEPAUCRuntimeClass@@XZ @ 4259 NONAME
 ?GetRuntimeClass@CFileFind@@UBEPAUCRuntimeClass@@XZ @ 4260 NONAME
 ?GetRuntimeClass@CFindReplaceDialog@@UBEPAUCRuntimeClass@@XZ @ 4261 NONAME
 ?GetRuntimeClass@CFont@@UBEPAUCRuntimeClass@@XZ @ 4262 NONAME
 ?GetRuntimeClass@CFontDialog@@UBEPAUCRuntimeClass@@XZ @ 4263 NONAME
 ?GetRuntimeClass@CFormView@@UBEPAUCRuntimeClass@@XZ @ 4264 NONAME
 ?GetRuntimeClass@CFrameWnd@@UBEPAUCRuntimeClass@@XZ @ 4265 NONAME
 ?GetRuntimeClass@CFtpConnection@@UBEPAUCRuntimeClass@@XZ @ 4266 NONAME
 ?GetRuntimeClass@CFtpFileFind@@UBEPAUCRuntimeClass@@XZ @ 4267 NONAME
 ?GetRuntimeClass@CGdiObject@@UBEPAUCRuntimeClass@@XZ @ 4268 NONAME
 ?GetRuntimeClass@CGopherConnection@@UBEPAUCRuntimeClass@@XZ @ 4269 NONAME
 ?GetRuntimeClass@CGopherFile@@UBEPAUCRuntimeClass@@XZ @ 4270 NONAME
 ?GetRuntimeClass@CGopherFileFind@@UBEPAUCRuntimeClass@@XZ @ 4271 NONAME
 ?GetRuntimeClass@CHeaderCtrl@@UBEPAUCRuntimeClass@@XZ @ 4272 NONAME
 ?GetRuntimeClass@CHotKeyCtrl@@UBEPAUCRuntimeClass@@XZ @ 4273 NONAME
 ?GetRuntimeClass@CHtmlEditDoc@@UBEPAUCRuntimeClass@@XZ @ 4274 NONAME
 ?GetRuntimeClass@CHtmlEditView@@UBEPAUCRuntimeClass@@XZ @ 4275 NONAME
 ?GetRuntimeClass@CHtmlView@@UBEPAUCRuntimeClass@@XZ @ 4276 NONAME
 ?GetRuntimeClass@CHttpConnection@@UBEPAUCRuntimeClass@@XZ @ 4277 NONAME
 ?GetRuntimeClass@CHttpFile@@UBEPAUCRuntimeClass@@XZ @ 4278 NONAME
 ?GetRuntimeClass@CImageList@@UBEPAUCRuntimeClass@@XZ @ 4279 NONAME
 ?GetRuntimeClass@CInternetConnection@@UBEPAUCRuntimeClass@@XZ @ 4280 NONAME
 ?GetRuntimeClass@CInternetException@@UBEPAUCRuntimeClass@@XZ @ 4281 NONAME
 ?GetRuntimeClass@CInternetFile@@UBEPAUCRuntimeClass@@XZ @ 4282 NONAME
 ?GetRuntimeClass@CInternetSession@@UBEPAUCRuntimeClass@@XZ @ 4283 NONAME
 ?GetRuntimeClass@CIPAddressCtrl@@UBEPAUCRuntimeClass@@XZ @ 4284 NONAME
 ?GetRuntimeClass@CListBox@@UBEPAUCRuntimeClass@@XZ @ 4285 NONAME
 ?GetRuntimeClass@CListCtrl@@UBEPAUCRuntimeClass@@XZ @ 4286 NONAME
 ?GetRuntimeClass@CListView@@UBEPAUCRuntimeClass@@XZ @ 4287 NONAME
 ?GetRuntimeClass@CLongBinary@@UBEPAUCRuntimeClass@@XZ @ 4288 NONAME
 ?GetRuntimeClass@CMapPtrToPtr@@UBEPAUCRuntimeClass@@XZ @ 4289 NONAME
 ?GetRuntimeClass@CMapPtrToWord@@UBEPAUCRuntimeClass@@XZ @ 4290 NONAME
 ?GetRuntimeClass@CMapStringToOb@@UBEPAUCRuntimeClass@@XZ @ 4291 NONAME
 ?GetRuntimeClass@CMapStringToPtr@@UBEPAUCRuntimeClass@@XZ @ 4292 NONAME
 ?GetRuntimeClass@CMapStringToString@@UBEPAUCRuntimeClass@@XZ @ 4293 NONAME
 ?GetRuntimeClass@CMapWordToOb@@UBEPAUCRuntimeClass@@XZ @ 4294 NONAME
 ?GetRuntimeClass@CMapWordToPtr@@UBEPAUCRuntimeClass@@XZ @ 4295 NONAME
 ?GetRuntimeClass@CMDIChildWnd@@UBEPAUCRuntimeClass@@XZ @ 4296 NONAME
 ?GetRuntimeClass@CMDIFrameWnd@@UBEPAUCRuntimeClass@@XZ @ 4297 NONAME
 ?GetRuntimeClass@CMemFile@@UBEPAUCRuntimeClass@@XZ @ 4298 NONAME
 ?GetRuntimeClass@CMemoryException@@UBEPAUCRuntimeClass@@XZ @ 4299 NONAME
 ?GetRuntimeClass@CMenu@@UBEPAUCRuntimeClass@@XZ @ 4300 NONAME
 ?GetRuntimeClass@CMetaFileDC@@UBEPAUCRuntimeClass@@XZ @ 4301 NONAME
 ?GetRuntimeClass@CMiniDockFrameWnd@@UBEPAUCRuntimeClass@@XZ @ 4302 NONAME
 ?GetRuntimeClass@CMiniFrameWnd@@UBEPAUCRuntimeClass@@XZ @ 4303 NONAME
 ?GetRuntimeClass@CMonikerFile@@UBEPAUCRuntimeClass@@XZ @ 4304 NONAME
 ?GetRuntimeClass@CMonthCalCtrl@@UBEPAUCRuntimeClass@@XZ @ 4305 NONAME
 ?GetRuntimeClass@CMultiDocTemplate@@UBEPAUCRuntimeClass@@XZ @ 4306 NONAME
 ?GetRuntimeClass@CMultiPageDHtmlDialog@@UBEPAUCRuntimeClass@@XZ @ 4307 NONAME
 ?GetRuntimeClass@CMutex@@UBEPAUCRuntimeClass@@XZ @ 4308 NONAME
 ?GetRuntimeClass@CNotSupportedException@@UBEPAUCRuntimeClass@@XZ @ 4309 NONAME
 ?GetRuntimeClass@CObArray@@UBEPAUCRuntimeClass@@XZ @ 4310 NONAME
 ?GetRuntimeClass@CObject@@UBEPAUCRuntimeClass@@XZ @ 4311 NONAME
 ?GetRuntimeClass@CObList@@UBEPAUCRuntimeClass@@XZ @ 4312 NONAME
 ?GetRuntimeClass@COleBusyDialog@@UBEPAUCRuntimeClass@@XZ @ 4313 NONAME
 ?GetRuntimeClass@COleChangeIconDialog@@UBEPAUCRuntimeClass@@XZ @ 4314 NONAME
 ?GetRuntimeClass@COleChangeSourceDialog@@UBEPAUCRuntimeClass@@XZ @ 4315 NONAME
 ?GetRuntimeClass@COleClientItem@@UBEPAUCRuntimeClass@@XZ @ 4316 NONAME
 ?GetRuntimeClass@COleControl@@UBEPAUCRuntimeClass@@XZ @ 4317 NONAME
 ?GetRuntimeClass@COleControlModule@@UBEPAUCRuntimeClass@@XZ @ 4318 NONAME
 ?GetRuntimeClass@COleConvertDialog@@UBEPAUCRuntimeClass@@XZ @ 4319 NONAME
 ?GetRuntimeClass@COleDBRecordView@@UBEPAUCRuntimeClass@@XZ @ 4320 NONAME
 ?GetRuntimeClass@COleDialog@@UBEPAUCRuntimeClass@@XZ @ 4321 NONAME
 ?GetRuntimeClass@COleDispatchException@@UBEPAUCRuntimeClass@@XZ @ 4322 NONAME
 ?GetRuntimeClass@COleDocIPFrameWnd@@UBEPAUCRuntimeClass@@XZ @ 4323 NONAME
 ?GetRuntimeClass@COleDocObjectItem@@UBEPAUCRuntimeClass@@XZ @ 4324 NONAME
 ?GetRuntimeClass@COleDocument@@UBEPAUCRuntimeClass@@XZ @ 4325 NONAME
 ?GetRuntimeClass@COleException@@UBEPAUCRuntimeClass@@XZ @ 4326 NONAME
 ?GetRuntimeClass@COleInsertDialog@@UBEPAUCRuntimeClass@@XZ @ 4327 NONAME
 ?GetRuntimeClass@COleIPFrameWnd@@UBEPAUCRuntimeClass@@XZ @ 4328 NONAME
 ?GetRuntimeClass@COleLinkingDoc@@UBEPAUCRuntimeClass@@XZ @ 4329 NONAME
 ?GetRuntimeClass@COleLinksDialog@@UBEPAUCRuntimeClass@@XZ @ 4330 NONAME
 ?GetRuntimeClass@COleObjectFactory@@UBEPAUCRuntimeClass@@XZ @ 4331 NONAME
 ?GetRuntimeClass@COlePasteSpecialDialog@@UBEPAUCRuntimeClass@@XZ @ 4332 NONAME
 ?GetRuntimeClass@COlePropertiesDialog@@UBEPAUCRuntimeClass@@XZ @ 4333 NONAME
 ?GetRuntimeClass@COlePropertyPage@@UBEPAUCRuntimeClass@@XZ @ 4334 NONAME
 ?GetRuntimeClass@COleResizeBar@@UBEPAUCRuntimeClass@@XZ @ 4335 NONAME
 ?GetRuntimeClass@COleServerDoc@@UBEPAUCRuntimeClass@@XZ @ 4336 NONAME
 ?GetRuntimeClass@COleServerItem@@UBEPAUCRuntimeClass@@XZ @ 4337 NONAME
 ?GetRuntimeClass@COleStreamFile@@UBEPAUCRuntimeClass@@XZ @ 4338 NONAME
 ?GetRuntimeClass@COleUpdateDialog@@UBEPAUCRuntimeClass@@XZ @ 4339 NONAME
 ?GetRuntimeClass@CPageSetupDialog@@UBEPAUCRuntimeClass@@XZ @ 4340 NONAME
 ?GetRuntimeClass@CPaintDC@@UBEPAUCRuntimeClass@@XZ @ 4341 NONAME
 ?GetRuntimeClass@CPalette@@UBEPAUCRuntimeClass@@XZ @ 4342 NONAME
 ?GetRuntimeClass@CPen@@UBEPAUCRuntimeClass@@XZ @ 4343 NONAME
 ?GetRuntimeClass@CPreviewDC@@UBEPAUCRuntimeClass@@XZ @ 4344 NONAME
 ?GetRuntimeClass@CPreviewView@@UBEPAUCRuntimeClass@@XZ @ 4345 NONAME
 ?GetRuntimeClass@CPrintDialog@@UBEPAUCRuntimeClass@@XZ @ 4346 NONAME
 ?GetRuntimeClass@CPrintDialogEx@@UBEPAUCRuntimeClass@@XZ @ 4347 NONAME
 ?GetRuntimeClass@CProgressCtrl@@UBEPAUCRuntimeClass@@XZ @ 4348 NONAME
 ?GetRuntimeClass@CPropertyPage@@UBEPAUCRuntimeClass@@XZ @ 4349 NONAME
 ?GetRuntimeClass@CPropertySheet@@UBEPAUCRuntimeClass@@XZ @ 4350 NONAME
 ?GetRuntimeClass@CPtrArray@@UBEPAUCRuntimeClass@@XZ @ 4351 NONAME
 ?GetRuntimeClass@CPtrList@@UBEPAUCRuntimeClass@@XZ @ 4352 NONAME
 ?GetRuntimeClass@CReBar@@UBEPAUCRuntimeClass@@XZ @ 4353 NONAME
 ?GetRuntimeClass@CReBarCtrl@@UBEPAUCRuntimeClass@@XZ @ 4354 NONAME
 ?GetRuntimeClass@CRecordset@@UBEPAUCRuntimeClass@@XZ @ 4355 NONAME
 ?GetRuntimeClass@CRecordView@@UBEPAUCRuntimeClass@@XZ @ 4356 NONAME
 ?GetRuntimeClass@CResourceException@@UBEPAUCRuntimeClass@@XZ @ 4357 NONAME
 ?GetRuntimeClass@CRgn@@UBEPAUCRuntimeClass@@XZ @ 4358 NONAME
 ?GetRuntimeClass@CRichEditCntrItem@@UBEPAUCRuntimeClass@@XZ @ 4359 NONAME
 ?GetRuntimeClass@CRichEditCtrl@@UBEPAUCRuntimeClass@@XZ @ 4360 NONAME
 ?GetRuntimeClass@CRichEditDoc@@UBEPAUCRuntimeClass@@XZ @ 4361 NONAME
 ?GetRuntimeClass@CRichEditView@@UBEPAUCRuntimeClass@@XZ @ 4362 NONAME
 ?GetRuntimeClass@CScrollBar@@UBEPAUCRuntimeClass@@XZ @ 4363 NONAME
 ?GetRuntimeClass@CScrollView@@UBEPAUCRuntimeClass@@XZ @ 4364 NONAME
 ?GetRuntimeClass@CSemaphore@@UBEPAUCRuntimeClass@@XZ @ 4365 NONAME
 ?GetRuntimeClass@CSharedFile@@UBEPAUCRuntimeClass@@XZ @ 4366 NONAME
 ?GetRuntimeClass@CSingleDocTemplate@@UBEPAUCRuntimeClass@@XZ @ 4367 NONAME
 ?GetRuntimeClass@CSliderCtrl@@UBEPAUCRuntimeClass@@XZ @ 4368 NONAME
 ?GetRuntimeClass@CSocket@@UBEPAUCRuntimeClass@@XZ @ 4369 NONAME
 ?GetRuntimeClass@CSocketFile@@UBEPAUCRuntimeClass@@XZ @ 4370 NONAME
 ?GetRuntimeClass@CSpinButtonCtrl@@UBEPAUCRuntimeClass@@XZ @ 4371 NONAME
 ?GetRuntimeClass@CSplitterWnd@@UBEPAUCRuntimeClass@@XZ @ 4372 NONAME
 ?GetRuntimeClass@CStatic@@UBEPAUCRuntimeClass@@XZ @ 4373 NONAME
 ?GetRuntimeClass@CStatusBar@@UBEPAUCRuntimeClass@@XZ @ 4374 NONAME
 ?GetRuntimeClass@CStatusBarCtrl@@UBEPAUCRuntimeClass@@XZ @ 4375 NONAME
 ?GetRuntimeClass@CStdioFile@@UBEPAUCRuntimeClass@@XZ @ 4376 NONAME
 ?GetRuntimeClass@CStringArray@@UBEPAUCRuntimeClass@@XZ @ 4377 NONAME
 ?GetRuntimeClass@CStringList@@UBEPAUCRuntimeClass@@XZ @ 4378 NONAME
 ?GetRuntimeClass@CSyncObject@@UBEPAUCRuntimeClass@@XZ @ 4379 NONAME
 ?GetRuntimeClass@CTabCtrl@@UBEPAUCRuntimeClass@@XZ @ 4380 NONAME
 ?GetRuntimeClass@CToolBar@@UBEPAUCRuntimeClass@@XZ @ 4381 NONAME
 ?GetRuntimeClass@CToolBarCtrl@@UBEPAUCRuntimeClass@@XZ @ 4382 NONAME
 ?GetRuntimeClass@CToolTipCtrl@@UBEPAUCRuntimeClass@@XZ @ 4383 NONAME
 ?GetRuntimeClass@CTreeCtrl@@UBEPAUCRuntimeClass@@XZ @ 4384 NONAME
 ?GetRuntimeClass@CTreeView@@UBEPAUCRuntimeClass@@XZ @ 4385 NONAME
 ?GetRuntimeClass@CUIntArray@@UBEPAUCRuntimeClass@@XZ @ 4386 NONAME
 ?GetRuntimeClass@CUserException@@UBEPAUCRuntimeClass@@XZ @ 4387 NONAME
 ?GetRuntimeClass@CView@@UBEPAUCRuntimeClass@@XZ @ 4388 NONAME
 ?GetRuntimeClass@CWinApp@@UBEPAUCRuntimeClass@@XZ @ 4389 NONAME
 ?GetRuntimeClass@CWindowDC@@UBEPAUCRuntimeClass@@XZ @ 4390 NONAME
 ?GetRuntimeClass@CWindowlessDC@@UBEPAUCRuntimeClass@@XZ @ 4391 NONAME
 ?GetRuntimeClass@CWinThread@@UBEPAUCRuntimeClass@@XZ @ 4392 NONAME
 ?GetRuntimeClass@CWnd@@UBEPAUCRuntimeClass@@XZ @ 4393 NONAME
 ?GetRuntimeClass@CWordArray@@UBEPAUCRuntimeClass@@XZ @ 4394 NONAME
 ?GetSafeHandle@CGdiObject@@QBEPAXXZ @ 4395 NONAME
 ?GetSafeHandle@CImageList@@QBEPAU_IMAGELIST@@XZ @ 4396 NONAME
 ?GetSafeHdc@CDC@@QBEPAUHDC__@@XZ @ 4397 NONAME
 ?GetSafeHmenu@CMenu@@QBEPAUHMENU__@@XZ @ 4398 NONAME
 ?GetSafeHwnd@CWnd@@QBEPAUHWND__@@XZ @ 4399 NONAME
 ?GetSafeOwner@CWnd@@SGPAV1@PAV1@PAPAUHWND__@@@Z @ 4400 NONAME
 ?GetSafeOwner_@CWnd@@SGPAUHWND__@@PAU2@PAPAU2@@Z @ 4401 NONAME
 ?GetSavedCustomColors@CColorDialog@@SGPAKXZ @ 4402 NONAME
 ?GetScreenName@CGopherFileFind@@QBE?AV?$CStringT@GV?$StrTraitMFC@GV?$ChTraitsCRT@G@@@@@@XZ @ 4403 NONAME
 ?GetScreenSize@CDockState@@QAE?AVCSize@@XZ @ 4404 NONAME
 ?GetScrollBarCtrl@CView@@UBEPAVCScrollBar@@H@Z @ 4405 NONAME
 ?GetScrollBarCtrl@CWnd@@UBEPAVCScrollBar@@H@Z @ 4406 NONAME
 ?GetScrollBarSizes@CScrollView@@IAEXAAVCSize@@@Z @ 4407 NONAME
 ?GetScrollBarState@CScrollView@@IAEXVCSize@@AAV2@1AAVCPoint@@H@Z @ 4408 NONAME
 ?GetScrollInfo@CScrollBar@@QAEHPAUtagSCROLLINFO@@I@Z @ 4409 NONAME
 ?GetScrollInfo@CWnd@@QAEHHPAUtagSCROLLINFO@@I@Z @ 4410 NONAME
 ?GetScrollLimit@CScrollBar@@QAEHXZ @ 4411 NONAME
 ?GetScrollLimit@CWnd@@QAEHH@Z @ 4412 NONAME
 ?GetScrollPos@CScrollBar@@QBEHXZ @ 4413 NONAME
 ?GetScrollPos@CWnd@@QBEHH@Z @ 4414 NONAME
 ?GetScrollPosition@CScrollView@@QBE?AVCPoint@@XZ @ 4415 NONAME
 ?GetScrollRange@CScrollBar@@QBEXPAH0@Z @ 4416 NONAME
 ?GetScrollRange@CWnd@@QBEXHPAH0@Z @ 4417 NONAME
 ?GetScrollStyle@CSplitterWnd@@QBEKXZ @ 4418 NONAME
 ?GetScrollTime@CTreeCtrl@@QBEIXZ @ 4419 NONAME
 ?GetSection@CPropertySet@@QAEPAVCPropertySection@@U_GUID@@@Z @ 4420 NONAME
 ?GetSectionKey@CWinApp@@QAEPAUHKEY__@@PBG@Z @ 4421 NONAME
 ?GetSectionName@CPropertySection@@QAEPBGXZ @ 4422 NONAME
 ?GetSel@CEdit@@QBEKXZ @ 4423 NONAME
 ?GetSel@CEdit@@QBEXAAH0@Z @ 4424 NONAME
 ?GetSel@CListBox@@QBEHH@Z @ 4425 NONAME
 ?GetSel@CRichEditCtrl@@QBEXAAJ0@Z @ 4426 NONAME
 ?GetSel@CRichEditCtrl@@QBEXAAU_charrange@@@Z @ 4427 NONAME
 ?GetSelCount@CListBox@@QBEHXZ @ 4428 NONAME
 ?GetSelectedCount@CListCtrl@@QBEIXZ @ 4429 NONAME
 ?GetSelectedItem@CRichEditView@@QBEPAVCRichEditCntrItem@@XZ @ 4430 NONAME
 ?GetSelectedItem@CTreeCtrl@@QBEPAU_TREEITEM@@XZ @ 4431 NONAME
 ?GetSelectedText@CEditView@@QBEXAAV?$CStringT@GV?$StrTraitMFC@GV?$ChTraitsCRT@G@@@@@@@Z @ 4432 NONAME
 ?GetSelection@CSliderCtrl@@QBEXAAH0@Z @ 4433 NONAME
 ?GetSelectionCharFormat@CRichEditCtrl@@QBEKAAU_charformatw@@@Z @ 4434 NONAME
 ?GetSelectionCharFormat@CRichEditCtrl@@QBEKAAUCHARFORMAT2W@@@Z @ 4435 NONAME
 ?GetSelectionMark@CListCtrl@@QAEHXZ @ 4436 NONAME
 ?GetSelectionType@COleBusyDialog@@QBEIXZ @ 4437 NONAME
 ?GetSelectionType@COleConvertDialog@@QBEIXZ @ 4438 NONAME
 ?GetSelectionType@COleInsertDialog@@QBEIXZ @ 4439 NONAME
 ?GetSelectionType@COlePasteSpecialDialog@@QBEIXZ @ 4440 NONAME
 ?GetSelectionType@CRichEditCtrl@@QBEGXZ @ 4441 NONAME
 ?GetSelItems@CListBox@@QBEHHPAH@Z @ 4442 NONAME
 ?GetSelRange@CMonthCalCtrl@@QBEHAAVCOleDateTime@ATL@@0@Z @ 4443 NONAME
 ?GetSelRange@CMonthCalCtrl@@QBEHAAVCTime@ATL@@0@Z @ 4444 NONAME
 ?GetSelRange@CMonthCalCtrl@@QBEHPAU_SYSTEMTIME@@0@Z @ 4445 NONAME
 ?GetSelText@CRichEditCtrl@@QBE?AV?$CStringT@GV?$StrTraitMFC@GV?$ChTraitsCRT@G@@@@@@XZ @ 4446 NONAME
 ?GetSelText@CRichEditCtrl@@QBEJPAD@Z @ 4447 NONAME
 ?GetServerName@CInternetConnection@@QBE?AV?$CStringT@GV?$StrTraitMFC@GV?$ChTraitsCRT@G@@@@@@XZ @ 4448 NONAME
 ?GetSession@CInternetConnection@@QBEPAVCInternetSession@@XZ @ 4449 NONAME
 ?GetSilent@CHtmlView@@QBEHXZ @ 4450 NONAME
 ?GetSite@CPrintDialogEx@@UAGJABU_GUID@@PAPAX@Z @ 4451 NONAME
 ?GetSize@CByteArray@@QBEHXZ @ 4452 NONAME
 ?GetSize@CDWordArray@@QBEHXZ @ 4453 NONAME
 ?GetSize@CFontDialog@@QBEHXZ @ 4454 NONAME
 ?GetSize@CMapPtrToPtr@@QBEHXZ @ 4455 NONAME
 ?GetSize@CMapPtrToWord@@QBEHXZ @ 4456 NONAME
 ?GetSize@CMapStringToOb@@QBEHXZ @ 4457 NONAME
 ?GetSize@CMapStringToPtr@@QBEHXZ @ 4458 NONAME
 ?GetSize@CMapStringToString@@QBEHXZ @ 4459 NONAME
 ?GetSize@CMapWordToOb@@QBEHXZ @ 4460 NONAME
 ?GetSize@CMapWordToPtr@@QBEHXZ @ 4461 NONAME
 ?GetSize@CObArray@@QBEHXZ @ 4462 NONAME
 ?GetSize@CObList@@QBEHXZ @ 4463 NONAME
 ?GetSize@CPropertySection@@QAEKXZ @ 4464 NONAME
 ?GetSize@CPtrArray@@QBEHXZ @ 4465 NONAME
 ?GetSize@CPtrList@@QBEHXZ @ 4466 NONAME
 ?GetSize@CStringArray@@QBEHXZ @ 4467 NONAME
 ?GetSize@CStringList@@QBEHXZ @ 4468 NONAME
 ?GetSize@CUIntArray@@QBEHXZ @ 4469 NONAME
 ?GetSize@CWordArray@@QBEHXZ @ 4470 NONAME
 ?GetSizeInDialogUnits@CDialogTemplate@@QBEXPAUtagSIZE@@@Z @ 4471 NONAME
 ?GetSizeInPixels@CDialogTemplate@@QBEXPAUtagSIZE@@@Z @ 4472 NONAME
 ?GetSizeMax@CBlobProperty@@UAGJPAT_ULARGE_INTEGER@@@Z @ 4473 NONAME
 ?GetSizeMax@XPersistMemory@COleControl@@UAGJPAK@Z @ 4474 NONAME
 ?GetSizeMax@XPersistStreamInit@COleControl@@UAGJPAT_ULARGE_INTEGER@@@Z @ 4475 NONAME
 ?GetSizingParent@CSplitterWnd@@IAEPAVCWnd@@XZ @ 4476 NONAME
 ?GetSockName@CAsyncSocket@@QAEHAAV?$CStringT@GV?$StrTraitMFC@GV?$ChTraitsCRT@G@@@@@@AAI@Z @ 4477 NONAME
 ?GetSockName@CAsyncSocket@@QAEHPAUsockaddr@@PAH@Z @ 4478 NONAME
 ?GetSockOpt@CAsyncSocket@@QAEHHPAXPAHH@Z @ 4479 NONAME
 ?GetSource@CHtmlView@@QAEHAAV?$CStringT@GV?$StrTraitMFC@GV?$ChTraitsCRT@G@@@@@@@Z @ 4480 NONAME
 ?GetSQL@CRecordset@@QBEABV?$CStringT@GV?$StrTraitMFC@GV?$ChTraitsCRT@G@@@@@@XZ @ 4481 NONAME
 ?GetStackSize@CCmdTarget@@KGIPBEG@Z @ 4482 NONAME
 ?GetStandardProp@CCmdTarget@@IAEXPBUAFX_DISPMAP_ENTRY@@PAUtagVARIANT@@PAI@Z @ 4483 NONAME
 ?GetStartPosition@CConnectionPoint@@QBEPAU__POSITION@@XZ @ 4484 NONAME
 ?GetStartPosition@CFileDialog@@QBEPAU__POSITION@@XZ @ 4485 NONAME
 ?GetStartPosition@CMapPtrToPtr@@QBEPAU__POSITION@@XZ @ 4486 NONAME
 ?GetStartPosition@CMapPtrToWord@@QBEPAU__POSITION@@XZ @ 4487 NONAME
 ?GetStartPosition@CMapStringToOb@@QBEPAU__POSITION@@XZ @ 4488 NONAME
 ?GetStartPosition@CMapStringToPtr@@QBEPAU__POSITION@@XZ @ 4489 NONAME
 ?GetStartPosition@CMapStringToString@@QBEPAU__POSITION@@XZ @ 4490 NONAME
 ?GetStartPosition@CMapWordToOb@@QBEPAU__POSITION@@XZ @ 4491 NONAME
 ?GetStartPosition@CMapWordToPtr@@QBEPAU__POSITION@@XZ @ 4492 NONAME
 ?GetStartPosition@COleDocument@@UBEPAU__POSITION@@XZ @ 4493 NONAME
 ?GetStartPosition@CRichEditDoc@@UBEPAU__POSITION@@XZ @ 4494 NONAME
 ?GetState@CButton@@QBEIXZ @ 4495 NONAME
 ?GetState@CToolBarCtrl@@QBEHH@Z @ 4496 NONAME
 ?GetStatus@CFile@@QBEHAAUCFileStatus@@@Z @ 4497 NONAME
 ?GetStatus@CFile@@SGHPBGAAUCFileStatus@@@Z @ 4498 NONAME
 ?GetStatus@CMemFile@@QBEHAAUCFileStatus@@@Z @ 4499 NONAME
 ?GetStatus@COleCurrency@@QBE?AW4CurrencyStatus@1@XZ @ 4500 NONAME
 ?GetStatus@COleStreamFile@@QBEHAAUCFileStatus@@@Z @ 4501 NONAME
 ?GetStatus@CRecordset@@QBEXAAUCRecordsetStatus@@@Z @ 4502 NONAME
 ?GetStatusBar@CHtmlView@@QBEHXZ @ 4503 NONAME
 ?GetStatusBarCtrl@CStatusBar@@QBEAAVCStatusBarCtrl@@XZ @ 4504 NONAME
 ?GetStockEventMask@COleControl@@IBEKXZ @ 4505 NONAME
 ?GetStockPropMask@COleControl@@IBEKXZ @ 4506 NONAME
 ?GetStockTextMetrics@COleControl@@QAEXPAUtagTEXTMETRICW@@@Z @ 4507 NONAME
 ?GetStorageName@COleStreamFile@@UBE?BV?$CStringT@GV?$StrTraitMFC@GV?$ChTraitsCRT@G@@@@@@XZ @ 4508 NONAME
 ?GetStream@COleStreamFile@@QBEPAUIStream@@XZ @ 4509 NONAME
 ?GetStreamFormat@CRichEditDoc@@QBEHXZ @ 4510 NONAME
 ?GetStretchBltMode@CDC@@QBEHXZ @ 4511 NONAME
 ?GetString@CToolBarCtrl@@QBEHHAAV?$CStringT@GV?$StrTraitMFC@GV?$ChTraitsCRT@G@@@@@@@Z @ 4512 NONAME
 ?GetString@CToolBarCtrl@@QBEHHPAGH@Z @ 4513 NONAME
 ?GetStringWidth@CListCtrl@@QBEHPBG@Z @ 4514 NONAME
 ?GetStyle@COleControlSite@@UBEKXZ @ 4515 NONAME
 ?GetStyle@CToolBarCtrl@@QBEKXZ @ 4516 NONAME
 ?GetStyle@CWnd@@QBEKXZ @ 4517 NONAME
 ?GetStyleName@CFontDialog@@QBE?AV?$CStringT@GV?$StrTraitMFC@GV?$ChTraitsCRT@G@@@@@@XZ @ 4518 NONAME
 ?GetSubItemRect@CListCtrl@@QAEHHHHAAVCRect@@@Z @ 4519 NONAME
 ?GetSubMenu@CMenu@@QBEPAV1@H@Z @ 4520 NONAME
 ?GetSuperWndProcAddr@CWnd@@MAEPAP6GJPAUHWND__@@IIJ@ZXZ @ 4521 NONAME
 ?GetSystemMenu@CWnd@@QBEPAVCMenu@@H@Z @ 4522 NONAME
 ?GetTabbedTextExtentW@CDC@@QBE?AVCSize@@ABV?$CStringT@GV?$StrTraitMFC@GV?$ChTraitsCRT@G@@@@@@HPAH@Z @ 4523 NONAME
 ?GetTabbedTextExtentW@CDC@@QBE?AVCSize@@PBGHHPAH@Z @ 4524 NONAME
 ?GetTabControl@CPropertySheet@@QBEPAVCTabCtrl@@XZ @ 4525 NONAME
 ?GetTableName@CRecordset@@QBEABV?$CStringT@GV?$StrTraitMFC@GV?$ChTraitsCRT@G@@@@@@XZ @ 4526 NONAME
 ?GetTail@CObList@@QAEAAPAVCObject@@XZ @ 4527 NONAME
 ?GetTail@CObList@@QBEAAPBVCObject@@XZ @ 4528 NONAME
 ?GetTail@CPtrList@@QAEAAPAXXZ @ 4529 NONAME
 ?GetTail@CPtrList@@QBEAAPBXXZ @ 4530 NONAME
 ?GetTail@CStringList@@QAEAAV?$CStringT@GV?$StrTraitMFC@GV?$ChTraitsCRT@G@@@@@@XZ @ 4531 NONAME
 ?GetTail@CStringList@@QBEABV?$CStringT@GV?$StrTraitMFC@GV?$ChTraitsCRT@G@@@@@@XZ @ 4532 NONAME
 ?GetTailPosition@CObList@@QBEPAU__POSITION@@XZ @ 4533 NONAME
 ?GetTailPosition@CPtrList@@QBEPAU__POSITION@@XZ @ 4534 NONAME
 ?GetTailPosition@CStringList@@QBEPAU__POSITION@@XZ @ 4535 NONAME
 ?GetTemplateSize@CDialogTemplate@@KAIPBUDLGTEMPLATE@@@Z @ 4536 NONAME
 ?GetText@CListBox@@QBEHHPAG@Z @ 4537 NONAME
 ?GetText@CListBox@@QBEXHAAV?$CStringT@GV?$StrTraitMFC@GV?$ChTraitsCRT@G@@@@@@@Z @ 4538 NONAME
 ?GetText@COleControl@@QAEPAGXZ @ 4539 NONAME
 ?GetText@CStatusBarCtrl@@QBE?AV?$CStringT@GV?$StrTraitMFC@GV?$ChTraitsCRT@G@@@@@@HPAH@Z @ 4540 NONAME
 ?GetText@CStatusBarCtrl@@QBEHPBGHPAH@Z @ 4541 NONAME
 ?GetText@CToolTipCtrl@@QBEXAAV?$CStringT@GV?$StrTraitMFC@GV?$ChTraitsCRT@G@@@@@@PAVCWnd@@I@Z @ 4542 NONAME
 ?GetTextAlign@CDC@@QBEIXZ @ 4543 NONAME
 ?GetTextBkColor@CListCtrl@@QBEKXZ @ 4544 NONAME
 ?GetTextCharacterExtra@CDC@@QBEHXZ @ 4545 NONAME
 ?GetTextColor@CDC@@QBEKXZ @ 4546 NONAME
 ?GetTextColor@CListCtrl@@QBEKXZ @ 4547 NONAME
 ?GetTextColor@CReBarCtrl@@QBEKXZ @ 4548 NONAME
 ?GetTextColor@CTreeCtrl@@QBEKXZ @ 4549 NONAME
 ?GetTextExtent@CDC@@QBE?AVCSize@@ABV?$CStringT@GV?$StrTraitMFC@GV?$ChTraitsCRT@G@@@@@@@Z @ 4550 NONAME
 ?GetTextExtent@CDC@@QBE?AVCSize@@PBGH@Z @ 4551 NONAME
 ?GetTextFaceW@CDC@@QBEHAAV?$CStringT@GV?$StrTraitMFC@GV?$ChTraitsCRT@G@@@@@@@Z @ 4552 NONAME
 ?GetTextFaceW@CDC@@QBEHHPAG@Z @ 4553 NONAME
 ?GetTextLen@CListBox@@QBEHH@Z @ 4554 NONAME
 ?GetTextLen@CRecordset@@SGHFK@Z @ 4555 NONAME
 ?GetTextLength@CRichEditCtrl@@QBEJXZ @ 4556 NONAME
 ?GetTextLength@CRichEditView@@QBEJXZ @ 4557 NONAME
 ?GetTextLength@CStatusBarCtrl@@QBEHHPAH@Z @ 4558 NONAME
 ?GetTextLengthEx@CRichEditCtrl@@QBEJKI@Z @ 4559 NONAME
 ?GetTextLengthEx@CRichEditView@@QBEJKI@Z @ 4560 NONAME
 ?GetTextMetricsW@CDC@@QBEHPAUtagTEXTMETRICW@@@Z @ 4561 NONAME
 ?GetTextMode@CRichEditCtrl@@QBEIXZ @ 4562 NONAME
 ?GetTextRange@CRichEditCtrl@@QBEHHHAAV?$CStringT@GV?$StrTraitMFC@GV?$ChTraitsCRT@G@@@@@@@Z @ 4563 NONAME
 ?GetTheaterMode@CHtmlView@@QBEHXZ @ 4564 NONAME
 ?GetThisClass@CAnimateCtrl@@SGPAUCRuntimeClass@@XZ @ 4565 NONAME
 ?GetThisClass@CArchiveException@@SGPAUCRuntimeClass@@XZ @ 4566 NONAME
 ?GetThisClass@CAsyncMonikerFile@@SGPAUCRuntimeClass@@XZ @ 4567 NONAME
 ?GetThisClass@CAsyncSocket@@SGPAUCRuntimeClass@@XZ @ 4568 NONAME
 ?GetThisClass@CBitmap@@SGPAUCRuntimeClass@@XZ @ 4569 NONAME
 ?GetThisClass@CBitmapButton@@SGPAUCRuntimeClass@@XZ @ 4570 NONAME
 ?GetThisClass@CBrush@@SGPAUCRuntimeClass@@XZ @ 4571 NONAME
 ?GetThisClass@CButton@@SGPAUCRuntimeClass@@XZ @ 4572 NONAME
 ?GetThisClass@CByteArray@@SGPAUCRuntimeClass@@XZ @ 4573 NONAME
 ?GetThisClass@CCachedDataPathProperty@@SGPAUCRuntimeClass@@XZ @ 4574 NONAME
 ?GetThisClass@CCheckListBox@@SGPAUCRuntimeClass@@XZ @ 4575 NONAME
 ?GetThisClass@CClientDC@@SGPAUCRuntimeClass@@XZ @ 4576 NONAME
 ?GetThisClass@CCmdTarget@@SGPAUCRuntimeClass@@XZ @ 4577 NONAME
 ?GetThisClass@CColorDialog@@SGPAUCRuntimeClass@@XZ @ 4578 NONAME
 ?GetThisClass@CComboBox@@SGPAUCRuntimeClass@@XZ @ 4579 NONAME
 ?GetThisClass@CComboBoxEx@@SGPAUCRuntimeClass@@XZ @ 4580 NONAME
 ?GetThisClass@CControlBar@@SGPAUCRuntimeClass@@XZ @ 4581 NONAME
 ?GetThisClass@CCriticalSection@@SGPAUCRuntimeClass@@XZ @ 4582 NONAME
 ?GetThisClass@CCtrlView@@SGPAUCRuntimeClass@@XZ @ 4583 NONAME
 ?GetThisClass@CDatabase@@SGPAUCRuntimeClass@@XZ @ 4584 NONAME
 ?GetThisClass@CDataPathProperty@@SGPAUCRuntimeClass@@XZ @ 4585 NONAME
 ?GetThisClass@CDateTimeCtrl@@SGPAUCRuntimeClass@@XZ @ 4586 NONAME
 ?GetThisClass@CDBException@@SGPAUCRuntimeClass@@XZ @ 4587 NONAME
 ?GetThisClass@CDC@@SGPAUCRuntimeClass@@XZ @ 4588 NONAME
 ?GetThisClass@CDHtmlDialog@@SGPAUCRuntimeClass@@XZ @ 4589 NONAME
 ?GetThisClass@CDialog@@SGPAUCRuntimeClass@@XZ @ 4590 NONAME
 ?GetThisClass@CDialogBar@@SGPAUCRuntimeClass@@XZ @ 4591 NONAME
 ?GetThisClass@CDocItem@@SGPAUCRuntimeClass@@XZ @ 4592 NONAME
 ?GetThisClass@CDockBar@@SGPAUCRuntimeClass@@XZ @ 4593 NONAME
 ?GetThisClass@CDockState@@SGPAUCRuntimeClass@@XZ @ 4594 NONAME
 ?GetThisClass@CDocManager@@SGPAUCRuntimeClass@@XZ @ 4595 NONAME
 ?GetThisClass@CDocObjectServer@@SGPAUCRuntimeClass@@XZ @ 4596 NONAME
 ?GetThisClass@CDocObjectServerItem@@SGPAUCRuntimeClass@@XZ @ 4597 NONAME
 ?GetThisClass@CDocTemplate@@SGPAUCRuntimeClass@@XZ @ 4598 NONAME
 ?GetThisClass@CDocument@@SGPAUCRuntimeClass@@XZ @ 4599 NONAME
 ?GetThisClass@CDragListBox@@SGPAUCRuntimeClass@@XZ @ 4600 NONAME
 ?GetThisClass@CDWordArray@@SGPAUCRuntimeClass@@XZ @ 4601 NONAME
 ?GetThisClass@CDynLinkLibrary@@SGPAUCRuntimeClass@@XZ @ 4602 NONAME
 ?GetThisClass@CEdit@@SGPAUCRuntimeClass@@XZ @ 4603 NONAME
 ?GetThisClass@CEditView@@SGPAUCRuntimeClass@@XZ @ 4604 NONAME
 ?GetThisClass@CEvent@@SGPAUCRuntimeClass@@XZ @ 4605 NONAME
 ?GetThisClass@CException@@SGPAUCRuntimeClass@@XZ @ 4606 NONAME
 ?GetThisClass@CFile@@SGPAUCRuntimeClass@@XZ @ 4607 NONAME
 ?GetThisClass@CFileDialog@@SGPAUCRuntimeClass@@XZ @ 4608 NONAME
 ?GetThisClass@CFileException@@SGPAUCRuntimeClass@@XZ @ 4609 NONAME
 ?GetThisClass@CFileFind@@SGPAUCRuntimeClass@@XZ @ 4610 NONAME
 ?GetThisClass@CFindReplaceDialog@@SGPAUCRuntimeClass@@XZ @ 4611 NONAME
 ?GetThisClass@CFont@@SGPAUCRuntimeClass@@XZ @ 4612 NONAME
 ?GetThisClass@CFontDialog@@SGPAUCRuntimeClass@@XZ @ 4613 NONAME
 ?GetThisClass@CFormView@@SGPAUCRuntimeClass@@XZ @ 4614 NONAME
 ?GetThisClass@CFrameWnd@@SGPAUCRuntimeClass@@XZ @ 4615 NONAME
 ?GetThisClass@CFtpConnection@@SGPAUCRuntimeClass@@XZ @ 4616 NONAME
 ?GetThisClass@CFtpFileFind@@SGPAUCRuntimeClass@@XZ @ 4617 NONAME
 ?GetThisClass@CGdiObject@@SGPAUCRuntimeClass@@XZ @ 4618 NONAME
 ?GetThisClass@CGopherConnection@@SGPAUCRuntimeClass@@XZ @ 4619 NONAME
 ?GetThisClass@CGopherFile@@SGPAUCRuntimeClass@@XZ @ 4620 NONAME
 ?GetThisClass@CGopherFileFind@@SGPAUCRuntimeClass@@XZ @ 4621 NONAME
 ?GetThisClass@CHeaderCtrl@@SGPAUCRuntimeClass@@XZ @ 4622 NONAME
 ?GetThisClass@CHotKeyCtrl@@SGPAUCRuntimeClass@@XZ @ 4623 NONAME
 ?GetThisClass@CHtmlEditDoc@@SGPAUCRuntimeClass@@XZ @ 4624 NONAME
 ?GetThisClass@CHtmlEditView@@SGPAUCRuntimeClass@@XZ @ 4625 NONAME
 ?GetThisClass@CHtmlView@@SGPAUCRuntimeClass@@XZ @ 4626 NONAME
 ?GetThisClass@CHttpConnection@@SGPAUCRuntimeClass@@XZ @ 4627 NONAME
 ?GetThisClass@CHttpFile@@SGPAUCRuntimeClass@@XZ @ 4628 NONAME
 ?GetThisClass@CImageList@@SGPAUCRuntimeClass@@XZ @ 4629 NONAME
 ?GetThisClass@CInternetConnection@@SGPAUCRuntimeClass@@XZ @ 4630 NONAME
 ?GetThisClass@CInternetException@@SGPAUCRuntimeClass@@XZ @ 4631 NONAME
 ?GetThisClass@CInternetFile@@SGPAUCRuntimeClass@@XZ @ 4632 NONAME
 ?GetThisClass@CInternetSession@@SGPAUCRuntimeClass@@XZ @ 4633 NONAME
 ?GetThisClass@CIPAddressCtrl@@SGPAUCRuntimeClass@@XZ @ 4634 NONAME
 ?GetThisClass@CListBox@@SGPAUCRuntimeClass@@XZ @ 4635 NONAME
 ?GetThisClass@CListCtrl@@SGPAUCRuntimeClass@@XZ @ 4636 NONAME
 ?GetThisClass@CListView@@SGPAUCRuntimeClass@@XZ @ 4637 NONAME
 ?GetThisClass@CLongBinary@@SGPAUCRuntimeClass@@XZ @ 4638 NONAME
 ?GetThisClass@CMapPtrToPtr@@SGPAUCRuntimeClass@@XZ @ 4639 NONAME
 ?GetThisClass@CMapPtrToWord@@SGPAUCRuntimeClass@@XZ @ 4640 NONAME
 ?GetThisClass@CMapStringToOb@@SGPAUCRuntimeClass@@XZ @ 4641 NONAME
 ?GetThisClass@CMapStringToPtr@@SGPAUCRuntimeClass@@XZ @ 4642 NONAME
 ?GetThisClass@CMapStringToString@@SGPAUCRuntimeClass@@XZ @ 4643 NONAME
 ?GetThisClass@CMapWordToOb@@SGPAUCRuntimeClass@@XZ @ 4644 NONAME
 ?GetThisClass@CMapWordToPtr@@SGPAUCRuntimeClass@@XZ @ 4645 NONAME
 ?GetThisClass@CMDIChildWnd@@SGPAUCRuntimeClass@@XZ @ 4646 NONAME
 ?GetThisClass@CMDIFrameWnd@@SGPAUCRuntimeClass@@XZ @ 4647 NONAME
 ?GetThisClass@CMemFile@@SGPAUCRuntimeClass@@XZ @ 4648 NONAME
 ?GetThisClass@CMemoryException@@SGPAUCRuntimeClass@@XZ @ 4649 NONAME
 ?GetThisClass@CMenu@@SGPAUCRuntimeClass@@XZ @ 4650 NONAME
 ?GetThisClass@CMetaFileDC@@SGPAUCRuntimeClass@@XZ @ 4651 NONAME
 ?GetThisClass@CMiniDockFrameWnd@@SGPAUCRuntimeClass@@XZ @ 4652 NONAME
 ?GetThisClass@CMiniFrameWnd@@SGPAUCRuntimeClass@@XZ @ 4653 NONAME
 ?GetThisClass@CMonikerFile@@SGPAUCRuntimeClass@@XZ @ 4654 NONAME
 ?GetThisClass@CMonthCalCtrl@@SGPAUCRuntimeClass@@XZ @ 4655 NONAME
 ?GetThisClass@CMultiDocTemplate@@SGPAUCRuntimeClass@@XZ @ 4656 NONAME
 ?GetThisClass@CMultiPageDHtmlDialog@@SGPAUCRuntimeClass@@XZ @ 4657 NONAME
 ?GetThisClass@CMutex@@SGPAUCRuntimeClass@@XZ @ 4658 NONAME
 ?GetThisClass@CNotSupportedException@@SGPAUCRuntimeClass@@XZ @ 4659 NONAME
 ?GetThisClass@CObArray@@SGPAUCRuntimeClass@@XZ @ 4660 NONAME
 ?GetThisClass@CObject@@SGPAUCRuntimeClass@@XZ @ 4661 NONAME
 ?GetThisClass@CObList@@SGPAUCRuntimeClass@@XZ @ 4662 NONAME
 ?GetThisClass@COleBusyDialog@@SGPAUCRuntimeClass@@XZ @ 4663 NONAME
 ?GetThisClass@COleChangeIconDialog@@SGPAUCRuntimeClass@@XZ @ 4664 NONAME
 ?GetThisClass@COleChangeSourceDialog@@SGPAUCRuntimeClass@@XZ @ 4665 NONAME
 ?GetThisClass@COleClientItem@@SGPAUCRuntimeClass@@XZ @ 4666 NONAME
 ?GetThisClass@COleControl@@SGPAUCRuntimeClass@@XZ @ 4667 NONAME
 ?GetThisClass@COleControlModule@@SGPAUCRuntimeClass@@XZ @ 4668 NONAME
 ?GetThisClass@COleConvertDialog@@SGPAUCRuntimeClass@@XZ @ 4669 NONAME
 ?GetThisClass@COleDBRecordView@@SGPAUCRuntimeClass@@XZ @ 4670 NONAME
 ?GetThisClass@COleDialog@@SGPAUCRuntimeClass@@XZ @ 4671 NONAME
 ?GetThisClass@COleDispatchException@@SGPAUCRuntimeClass@@XZ @ 4672 NONAME
 ?GetThisClass@COleDocIPFrameWnd@@SGPAUCRuntimeClass@@XZ @ 4673 NONAME
 ?GetThisClass@COleDocObjectItem@@SGPAUCRuntimeClass@@XZ @ 4674 NONAME
 ?GetThisClass@COleDocument@@SGPAUCRuntimeClass@@XZ @ 4675 NONAME
 ?GetThisClass@COleException@@SGPAUCRuntimeClass@@XZ @ 4676 NONAME
 ?GetThisClass@COleInsertDialog@@SGPAUCRuntimeClass@@XZ @ 4677 NONAME
 ?GetThisClass@COleIPFrameWnd@@SGPAUCRuntimeClass@@XZ @ 4678 NONAME
 ?GetThisClass@COleLinkingDoc@@SGPAUCRuntimeClass@@XZ @ 4679 NONAME
 ?GetThisClass@COleLinksDialog@@SGPAUCRuntimeClass@@XZ @ 4680 NONAME
 ?GetThisClass@COleObjectFactory@@SGPAUCRuntimeClass@@XZ @ 4681 NONAME
 ?GetThisClass@COlePasteSpecialDialog@@SGPAUCRuntimeClass@@XZ @ 4682 NONAME
 ?GetThisClass@COlePropertiesDialog@@SGPAUCRuntimeClass@@XZ @ 4683 NONAME
 ?GetThisClass@COlePropertyPage@@SGPAUCRuntimeClass@@XZ @ 4684 NONAME
 ?GetThisClass@COleResizeBar@@SGPAUCRuntimeClass@@XZ @ 4685 NONAME
 ?GetThisClass@COleServerDoc@@SGPAUCRuntimeClass@@XZ @ 4686 NONAME
 ?GetThisClass@COleServerItem@@SGPAUCRuntimeClass@@XZ @ 4687 NONAME
 ?GetThisClass@COleStreamFile@@SGPAUCRuntimeClass@@XZ @ 4688 NONAME
 ?GetThisClass@COleUpdateDialog@@SGPAUCRuntimeClass@@XZ @ 4689 NONAME
 ?GetThisClass@CPageSetupDialog@@SGPAUCRuntimeClass@@XZ @ 4690 NONAME
 ?GetThisClass@CPaintDC@@SGPAUCRuntimeClass@@XZ @ 4691 NONAME
 ?GetThisClass@CPalette@@SGPAUCRuntimeClass@@XZ @ 4692 NONAME
 ?GetThisClass@CPen@@SGPAUCRuntimeClass@@XZ @ 4693 NONAME
 ?GetThisClass@CPreviewDC@@SGPAUCRuntimeClass@@XZ @ 4694 NONAME
 ?GetThisClass@CPreviewView@@SGPAUCRuntimeClass@@XZ @ 4695 NONAME
 ?GetThisClass@CPrintDialog@@SGPAUCRuntimeClass@@XZ @ 4696 NONAME
 ?GetThisClass@CPrintDialogEx@@SGPAUCRuntimeClass@@XZ @ 4697 NONAME
 ?GetThisClass@CProgressCtrl@@SGPAUCRuntimeClass@@XZ @ 4698 NONAME
 ?GetThisClass@CPropertyPage@@SGPAUCRuntimeClass@@XZ @ 4699 NONAME
 ?GetThisClass@CPropertySheet@@SGPAUCRuntimeClass@@XZ @ 4700 NONAME
 ?GetThisClass@CPtrArray@@SGPAUCRuntimeClass@@XZ @ 4701 NONAME
 ?GetThisClass@CPtrList@@SGPAUCRuntimeClass@@XZ @ 4702 NONAME
 ?GetThisClass@CReBar@@SGPAUCRuntimeClass@@XZ @ 4703 NONAME
 ?GetThisClass@CReBarCtrl@@SGPAUCRuntimeClass@@XZ @ 4704 NONAME
 ?GetThisClass@CRecordset@@SGPAUCRuntimeClass@@XZ @ 4705 NONAME
 ?GetThisClass@CRecordView@@SGPAUCRuntimeClass@@XZ @ 4706 NONAME
 ?GetThisClass@CResourceException@@SGPAUCRuntimeClass@@XZ @ 4707 NONAME
 ?GetThisClass@CRgn@@SGPAUCRuntimeClass@@XZ @ 4708 NONAME
 ?GetThisClass@CRichEditCntrItem@@SGPAUCRuntimeClass@@XZ @ 4709 NONAME
 ?GetThisClass@CRichEditCtrl@@SGPAUCRuntimeClass@@XZ @ 4710 NONAME
 ?GetThisClass@CRichEditDoc@@SGPAUCRuntimeClass@@XZ @ 4711 NONAME
 ?GetThisClass@CRichEditView@@SGPAUCRuntimeClass@@XZ @ 4712 NONAME
 ?GetThisClass@CScrollBar@@SGPAUCRuntimeClass@@XZ @ 4713 NONAME
 ?GetThisClass@CScrollView@@SGPAUCRuntimeClass@@XZ @ 4714 NONAME
 ?GetThisClass@CSemaphore@@SGPAUCRuntimeClass@@XZ @ 4715 NONAME
 ?GetThisClass@CSharedFile@@SGPAUCRuntimeClass@@XZ @ 4716 NONAME
 ?GetThisClass@CSingleDocTemplate@@SGPAUCRuntimeClass@@XZ @ 4717 NONAME
 ?GetThisClass@CSliderCtrl@@SGPAUCRuntimeClass@@XZ @ 4718 NONAME
 ?GetThisClass@CSocket@@SGPAUCRuntimeClass@@XZ @ 4719 NONAME
 ?GetThisClass@CSocketFile@@SGPAUCRuntimeClass@@XZ @ 4720 NONAME
 ?GetThisClass@CSpinButtonCtrl@@SGPAUCRuntimeClass@@XZ @ 4721 NONAME
 ?GetThisClass@CSplitterWnd@@SGPAUCRuntimeClass@@XZ @ 4722 NONAME
 ?GetThisClass@CStatic@@SGPAUCRuntimeClass@@XZ @ 4723 NONAME
 ?GetThisClass@CStatusBar@@SGPAUCRuntimeClass@@XZ @ 4724 NONAME
 ?GetThisClass@CStatusBarCtrl@@SGPAUCRuntimeClass@@XZ @ 4725 NONAME
 ?GetThisClass@CStdioFile@@SGPAUCRuntimeClass@@XZ @ 4726 NONAME
 ?GetThisClass@CStringArray@@SGPAUCRuntimeClass@@XZ @ 4727 NONAME
 ?GetThisClass@CStringList@@SGPAUCRuntimeClass@@XZ @ 4728 NONAME
 ?GetThisClass@CSyncObject@@SGPAUCRuntimeClass@@XZ @ 4729 NONAME
 ?GetThisClass@CTabCtrl@@SGPAUCRuntimeClass@@XZ @ 4730 NONAME
 ?GetThisClass@CToolBar@@SGPAUCRuntimeClass@@XZ @ 4731 NONAME
 ?GetThisClass@CToolBarCtrl@@SGPAUCRuntimeClass@@XZ @ 4732 NONAME
 ?GetThisClass@CToolTipCtrl@@SGPAUCRuntimeClass@@XZ @ 4733 NONAME
 ?GetThisClass@CTreeCtrl@@SGPAUCRuntimeClass@@XZ @ 4734 NONAME
 ?GetThisClass@CTreeView@@SGPAUCRuntimeClass@@XZ @ 4735 NONAME
 ?GetThisClass@CUIntArray@@SGPAUCRuntimeClass@@XZ @ 4736 NONAME
 ?GetThisClass@CUserException@@SGPAUCRuntimeClass@@XZ @ 4737 NONAME
 ?GetThisClass@CView@@SGPAUCRuntimeClass@@XZ @ 4738 NONAME
 ?GetThisClass@CWinApp@@SGPAUCRuntimeClass@@XZ @ 4739 NONAME
 ?GetThisClass@CWindowDC@@SGPAUCRuntimeClass@@XZ @ 4740 NONAME
 ?GetThisClass@CWindowlessDC@@SGPAUCRuntimeClass@@XZ @ 4741 NONAME
 ?GetThisClass@CWinThread@@SGPAUCRuntimeClass@@XZ @ 4742 NONAME
 ?GetThisClass@CWnd@@SGPAUCRuntimeClass@@XZ @ 4743 NONAME
 ?GetThisClass@CWordArray@@SGPAUCRuntimeClass@@XZ @ 4744 NONAME
 ?GetThisCommandMap@CCmdTarget@@KGPBUAFX_OLECMDMAP@@XZ @ 4745 NONAME
 ?GetThisCommandMap@COleDocObjectItem@@KGPBUAFX_OLECMDMAP@@XZ @ 4746 NONAME
 ?GetThisConnectionMap@CCmdTarget@@KGPBUAFX_CONNECTIONMAP@@XZ @ 4747 NONAME
 ?GetThisConnectionMap@COleControl@@KGPBUAFX_CONNECTIONMAP@@XZ @ 4748 NONAME
 ?GetThisDispatchMap@CCmdTarget@@KGPBUAFX_DISPMAP@@XZ @ 4749 NONAME
 ?GetThisDispatchMap@COleControlContainer@@KGPBUAFX_DISPMAP@@XZ @ 4750 NONAME
 ?GetThisEventMap@COleControl@@KGPBUAFX_EVENTMAP@@XZ @ 4751 NONAME
 ?GetThisEventSinkMap@CCmdTarget@@KGPBUAFX_EVENTSINKMAP@@XZ @ 4752 NONAME
 ?GetThisEventSinkMap@CDHtmlDialog@@KGPBUAFX_EVENTSINKMAP@@XZ @ 4753 NONAME
 ?GetThisEventSinkMap@CHtmlEditView@@KGPBUAFX_EVENTSINKMAP@@XZ @ 4754 NONAME
 ?GetThisEventSinkMap@CHtmlView@@KGPBUAFX_EVENTSINKMAP@@XZ @ 4755 NONAME
 ?GetThisInterfaceMap@CCmdTarget@@KGPBUAFX_INTERFACEMAP@@XZ @ 4756 NONAME
 ?GetThisInterfaceMap@CDocObjectServer@@KGPBUAFX_INTERFACEMAP@@XZ @ 4757 NONAME
 ?GetThisInterfaceMap@CEnumConnections@@KGPBUAFX_INTERFACEMAP@@XZ @ 4758 NONAME
 ?GetThisInterfaceMap@CEnumConnPoints@@KGPBUAFX_INTERFACEMAP@@XZ @ 4759 NONAME
 ?GetThisInterfaceMap@CEnumFormatEtc@@KGPBUAFX_INTERFACEMAP@@XZ @ 4760 NONAME
 ?GetThisInterfaceMap@CEnumOleVerb@@KGPBUAFX_INTERFACEMAP@@XZ @ 4761 NONAME
 ?GetThisInterfaceMap@CEnumUnknown@@KGPBUAFX_INTERFACEMAP@@XZ @ 4762 NONAME
 ?GetThisInterfaceMap@CHtmlControlSite@@KGPBUAFX_INTERFACEMAP@@XZ @ 4763 NONAME
 ?GetThisInterfaceMap@COleClientItem@@KGPBUAFX_INTERFACEMAP@@XZ @ 4764 NONAME
 ?GetThisInterfaceMap@COleControl@@KGPBUAFX_INTERFACEMAP@@XZ @ 4765 NONAME
 ?GetThisInterfaceMap@COleControlContainer@@KGPBUAFX_INTERFACEMAP@@XZ @ 4766 NONAME
 ?GetThisInterfaceMap@COleControlSite@@KGPBUAFX_INTERFACEMAP@@XZ @ 4767 NONAME
 ?GetThisInterfaceMap@COleDataSource@@KGPBUAFX_INTERFACEMAP@@XZ @ 4768 NONAME
 ?GetThisInterfaceMap@COleDocObjectItem@@KGPBUAFX_INTERFACEMAP@@XZ @ 4769 NONAME
 ?GetThisInterfaceMap@COleDropSource@@KGPBUAFX_INTERFACEMAP@@XZ @ 4770 NONAME
 ?GetThisInterfaceMap@COleDropTarget@@KGPBUAFX_INTERFACEMAP@@XZ @ 4771 NONAME
 ?GetThisInterfaceMap@COleFrameHook@@KGPBUAFX_INTERFACEMAP@@XZ @ 4772 NONAME
 ?GetThisInterfaceMap@COleLinkingDoc@@KGPBUAFX_INTERFACEMAP@@XZ @ 4773 NONAME
 ?GetThisInterfaceMap@COleMessageFilter@@KGPBUAFX_INTERFACEMAP@@XZ @ 4774 NONAME
 ?GetThisInterfaceMap@COleObjectFactory@@KGPBUAFX_INTERFACEMAP@@XZ @ 4775 NONAME
 ?GetThisInterfaceMap@COlePropertyPage@@KGPBUAFX_INTERFACEMAP@@XZ @ 4776 NONAME
 ?GetThisInterfaceMap@COleServerDoc@@KGPBUAFX_INTERFACEMAP@@XZ @ 4777 NONAME
 ?GetThisInterfaceMap@COleServerItem@@KGPBUAFX_INTERFACEMAP@@XZ @ 4778 NONAME
 ?GetThisInterfaceMap@CRichEditView@@KGPBUAFX_INTERFACEMAP@@XZ @ 4779 NONAME
 ?GetThisInterfaceMap@CWnd@@KGPBUAFX_INTERFACEMAP@@XZ @ 4780 NONAME
 ?GetThisMessageMap@CCheckListBox@@KGPBUAFX_MSGMAP@@XZ @ 4781 NONAME
 ?GetThisMessageMap@CCmdTarget@@KGPBUAFX_MSGMAP@@XZ @ 4782 NONAME
 ?GetThisMessageMap@CCommonDialog@@KGPBUAFX_MSGMAP@@XZ @ 4783 NONAME
 ?GetThisMessageMap@CControlBar@@KGPBUAFX_MSGMAP@@XZ @ 4784 NONAME
 ?GetThisMessageMap@CControlFrameWnd@@KGPBUAFX_MSGMAP@@XZ @ 4785 NONAME
 ?GetThisMessageMap@CCtrlView@@KGPBUAFX_MSGMAP@@XZ @ 4786 NONAME
 ?GetThisMessageMap@CDHtmlDialog@@KGPBUAFX_MSGMAP@@XZ @ 4787 NONAME
 ?GetThisMessageMap@CDialog@@KGPBUAFX_MSGMAP@@XZ @ 4788 NONAME
 ?GetThisMessageMap@CDialogBar@@KGPBUAFX_MSGMAP@@XZ @ 4789 NONAME
 ?GetThisMessageMap@CDockBar@@KGPBUAFX_MSGMAP@@XZ @ 4790 NONAME
 ?GetThisMessageMap@CDocObjectServer@@KGPBUAFX_MSGMAP@@XZ @ 4791 NONAME
 ?GetThisMessageMap@CDocument@@KGPBUAFX_MSGMAP@@XZ @ 4792 NONAME
 ?GetThisMessageMap@CEditView@@KGPBUAFX_MSGMAP@@XZ @ 4793 NONAME
 ?GetThisMessageMap@CFormView@@KGPBUAFX_MSGMAP@@XZ @ 4794 NONAME
 ?GetThisMessageMap@CFrameWnd@@KGPBUAFX_MSGMAP@@XZ @ 4795 NONAME
 ?GetThisMessageMap@CHtmlEditView@@KGPBUAFX_MSGMAP@@XZ @ 4796 NONAME
 ?GetThisMessageMap@CHtmlView@@KGPBUAFX_MSGMAP@@XZ @ 4797 NONAME
 ?GetThisMessageMap@CListCtrl@@KGPBUAFX_MSGMAP@@XZ @ 4798 NONAME
 ?GetThisMessageMap@CListView@@KGPBUAFX_MSGMAP@@XZ @ 4799 NONAME
 ?GetThisMessageMap@CMDIChildWnd@@KGPBUAFX_MSGMAP@@XZ @ 4800 NONAME
 ?GetThisMessageMap@CMDIFrameWnd@@KGPBUAFX_MSGMAP@@XZ @ 4801 NONAME
 ?GetThisMessageMap@CMiniDockFrameWnd@@KGPBUAFX_MSGMAP@@XZ @ 4802 NONAME
 ?GetThisMessageMap@CMiniFrameWnd@@KGPBUAFX_MSGMAP@@XZ @ 4803 NONAME
 ?GetThisMessageMap@COleControl@@KGPBUAFX_MSGMAP@@XZ @ 4804 NONAME
 ?GetThisMessageMap@COleDBRecordView@@KGPBUAFX_MSGMAP@@XZ @ 4805 NONAME
 ?GetThisMessageMap@COleDocIPFrameWnd@@KGPBUAFX_MSGMAP@@XZ @ 4806 NONAME
 ?GetThisMessageMap@COleIPFrameWnd@@KGPBUAFX_MSGMAP@@XZ @ 4807 NONAME
 ?GetThisMessageMap@COlePropertyPage@@KGPBUAFX_MSGMAP@@XZ @ 4808 NONAME
 ?GetThisMessageMap@COleResizeBar@@KGPBUAFX_MSGMAP@@XZ @ 4809 NONAME
 ?GetThisMessageMap@COleServerDoc@@KGPBUAFX_MSGMAP@@XZ @ 4810 NONAME
 ?GetThisMessageMap@CPreviewView@@KGPBUAFX_MSGMAP@@XZ @ 4811 NONAME
 ?GetThisMessageMap@CPrintDialog@@KGPBUAFX_MSGMAP@@XZ @ 4812 NONAME
 ?GetThisMessageMap@CPrintDialogEx@@KGPBUAFX_MSGMAP@@XZ @ 4813 NONAME
 ?GetThisMessageMap@CPropertyPage@@KGPBUAFX_MSGMAP@@XZ @ 4814 NONAME
 ?GetThisMessageMap@CPropertySheet@@KGPBUAFX_MSGMAP@@XZ @ 4815 NONAME
 ?GetThisMessageMap@CReBar@@KGPBUAFX_MSGMAP@@XZ @ 4816 NONAME
 ?GetThisMessageMap@CRecordView@@KGPBUAFX_MSGMAP@@XZ @ 4817 NONAME
 ?GetThisMessageMap@CRichEditView@@KGPBUAFX_MSGMAP@@XZ @ 4818 NONAME
 ?GetThisMessageMap@CScrollView@@KGPBUAFX_MSGMAP@@XZ @ 4819 NONAME
 ?GetThisMessageMap@CSocketWnd@@KGPBUAFX_MSGMAP@@XZ @ 4820 NONAME
 ?GetThisMessageMap@CSplitterWnd@@KGPBUAFX_MSGMAP@@XZ @ 4821 NONAME
 ?GetThisMessageMap@CStatusBar@@KGPBUAFX_MSGMAP@@XZ @ 4822 NONAME
 ?GetThisMessageMap@CTabCtrl@@KGPBUAFX_MSGMAP@@XZ @ 4823 NONAME
 ?GetThisMessageMap@CToolBar@@KGPBUAFX_MSGMAP@@XZ @ 4824 NONAME
 ?GetThisMessageMap@CToolBarCtrl@@KGPBUAFX_MSGMAP@@XZ @ 4825 NONAME
 ?GetThisMessageMap@CToolTipCtrl@@KGPBUAFX_MSGMAP@@XZ @ 4826 NONAME
 ?GetThisMessageMap@CTreeCtrl@@KGPBUAFX_MSGMAP@@XZ @ 4827 NONAME
 ?GetThisMessageMap@CTreeView@@KGPBUAFX_MSGMAP@@XZ @ 4828 NONAME
 ?GetThisMessageMap@CView@@KGPBUAFX_MSGMAP@@XZ @ 4829 NONAME
 ?GetThisMessageMap@CWinApp@@KGPBUAFX_MSGMAP@@XZ @ 4830 NONAME
 ?GetThisMessageMap@CWnd@@KGPBUAFX_MSGMAP@@XZ @ 4831 NONAME
 ?GetThreadPriority@CWinThread@@QAEHXZ @ 4832 NONAME
 ?GetThumbRect@CSliderCtrl@@QBEXPAUtagRECT@@@Z @ 4833 NONAME
 ?GetTic@CSliderCtrl@@QBEHH@Z @ 4834 NONAME
 ?GetTicArray@CSliderCtrl@@QBEPAKXZ @ 4835 NONAME
 ?GetTicPos@CSliderCtrl@@QBEHH@Z @ 4836 NONAME
 ?GetTime@CDateTimeCtrl@@QBEHAAVCOleDateTime@ATL@@@Z @ 4837 NONAME
 ?GetTime@CDateTimeCtrl@@QBEKAAVCTime@ATL@@@Z @ 4838 NONAME
 ?GetTime@CDateTimeCtrl@@QBEKPAU_SYSTEMTIME@@@Z @ 4839 NONAME
 ?GetTipBkColor@CToolTipCtrl@@QBEKXZ @ 4840 NONAME
 ?GetTipText@CStatusBarCtrl@@QBE?AV?$CStringT@GV?$StrTraitMFC@GV?$ChTraitsCRT@G@@@@@@H@Z @ 4841 NONAME
 ?GetTipTextColor@CToolTipCtrl@@QBEKXZ @ 4842 NONAME
 ?GetTitle@CDocument@@QBEABV?$CStringT@GV?$StrTraitMFC@GV?$ChTraitsCRT@G@@@@@@XZ @ 4843 NONAME
 ?GetTitle@CFrameWnd@@QBE?AV?$CStringT@GV?$StrTraitMFC@GV?$ChTraitsCRT@G@@@@@@XZ @ 4844 NONAME
 ?GetToday@CMonthCalCtrl@@QBEHAAVCOleDateTime@ATL@@@Z @ 4845 NONAME
 ?GetToday@CMonthCalCtrl@@QBEHAAVCTime@ATL@@@Z @ 4846 NONAME
 ?GetToday@CMonthCalCtrl@@QBEHPAU_SYSTEMTIME@@@Z @ 4847 NONAME
 ?GetToolBar@CHtmlView@@QBEHXZ @ 4848 NONAME
 ?GetToolBarCtrl@CToolBar@@QBEAAVCToolBarCtrl@@XZ @ 4849 NONAME
 ?GetToolCount@CToolTipCtrl@@QBEHXZ @ 4850 NONAME
 ?GetToolInfo@CToolTipCtrl@@QBEHAAVCToolInfo@@PAVCWnd@@I@Z @ 4851 NONAME
 ?GetToolTips@CListCtrl@@QBEPAVCToolTipCtrl@@XZ @ 4852 NONAME
 ?GetToolTips@CReBarCtrl@@QBEPAVCToolTipCtrl@@XZ @ 4853 NONAME
 ?GetToolTips@CSliderCtrl@@QBEPAVCToolTipCtrl@@XZ @ 4854 NONAME
 ?GetToolTips@CTabCtrl@@QBEPAVCToolTipCtrl@@XZ @ 4855 NONAME
 ?GetToolTips@CToolBarCtrl@@QBEPAVCToolTipCtrl@@XZ @ 4856 NONAME
 ?GetToolTips@CTreeCtrl@@QBEPAVCToolTipCtrl@@XZ @ 4857 NONAME
 ?GetTop@CHtmlView@@QBEJXZ @ 4858 NONAME
 ?GetToPage@CPrintDialog@@QBEHXZ @ 4859 NONAME
 ?GetToPage@CPrintInfo@@QBEIXZ @ 4860 NONAME
 ?GetTopIndex@CComboBox@@QBEHXZ @ 4861 NONAME
 ?GetTopIndex@CListBox@@QBEHXZ @ 4862 NONAME
 ?GetTopIndex@CListCtrl@@QBEHXZ @ 4863 NONAME
 ?GetTopLevelContainer@CHtmlView@@QBEHXZ @ 4864 NONAME
 ?GetTopLevelFrame@CWnd@@QBEPAVCFrameWnd@@XZ @ 4865 NONAME
 ?GetTopLevelOwner@CWnd@@QBEPAV1@XZ @ 4866 NONAME
 ?GetTopLevelParent@CWnd@@QBEPAV1@XZ @ 4867 NONAME
 ?GetToPrefix@COleChangeSourceDialog@@QAE?AV?$CStringT@GV?$StrTraitMFC@GV?$ChTraitsCRT@G@@@@@@XZ @ 4868 NONAME
 ?GetTopWindow@CWnd@@QBEPAV1@XZ @ 4869 NONAME
 ?GetTotalSize@CScrollView@@QBE?AVCSize@@XZ @ 4870 NONAME
 ?GetTreeCtrl@CTreeView@@QBEAAVCTreeCtrl@@XZ @ 4871 NONAME
 ?GetTrueClientSize@CScrollView@@IAEHAAVCSize@@0@Z @ 4872 NONAME
 ?GetTrueRect@CRectTracker@@QBEXPAUtagRECT@@@Z @ 4873 NONAME
 ?GetType@CHtmlView@@QBE?AV?$CStringT@GV?$StrTraitMFC@GV?$ChTraitsCRT@G@@@@@@XZ @ 4874 NONAME
 ?GetType@COleClientItem@@QBE?AW4OLE_OBJTYPE@@XZ @ 4875 NONAME
 ?GetType@CPictureHolder@@QAEFXZ @ 4876 NONAME
 ?GetType@CProperty@@QAEKXZ @ 4877 NONAME
 ?GetTypeInfo@CDHtmlControlSink@@UAGJIKPAPAUITypeInfo@@@Z @ 4878 NONAME
 ?GetTypeInfo@CDHtmlElementEventSink@@UAGJIKPAPAUITypeInfo@@@Z @ 4879 NONAME
 ?GetTypeInfo@CDHtmlEventSink@@UAGJIKPAPAUITypeInfo@@@Z @ 4880 NONAME
 ?GetTypeInfo@COleDispatchImpl@@UAGJIKPAPAUITypeInfo@@@Z @ 4881 NONAME
 ?GetTypeInfo@XAccessible@CWnd@@UAGJIKPAPAUITypeInfo@@@Z @ 4882 NONAME
 ?GetTypeInfo@XAmbientProps@COleControlSite@@UAGJIKPAPAUITypeInfo@@@Z @ 4883 NONAME
 ?GetTypeInfo@XEventSink@COleControlSite@@UAGJIKPAPAUITypeInfo@@@Z @ 4884 NONAME
 ?GetTypeInfoCount@CCmdTarget@@UAEIXZ @ 4885 NONAME
 ?GetTypeInfoCount@CDHtmlControlSink@@UAGJPAI@Z @ 4886 NONAME
 ?GetTypeInfoCount@CDHtmlElementEventSink@@UAGJPAI@Z @ 4887 NONAME
 ?GetTypeInfoCount@CDHtmlEventSink@@UAGJPAI@Z @ 4888 NONAME
 ?GetTypeInfoCount@COleDispatchImpl@@UAGJPAI@Z @ 4889 NONAME
 ?GetTypeInfoCount@XAccessible@CWnd@@UAGJPAI@Z @ 4890 NONAME
 ?GetTypeInfoCount@XAmbientProps@COleControlSite@@UAGJPAI@Z @ 4891 NONAME
 ?GetTypeInfoCount@XEventSink@COleControlSite@@UAGJPAI@Z @ 4892 NONAME
 ?GetTypeInfoOfGuid@CCmdTarget@@QAEJKABU_GUID@@PAPAUITypeInfo@@@Z @ 4893 NONAME
 ?GetTypeLib@CCmdTarget@@UAEJKPAPAUITypeLib@@@Z @ 4894 NONAME
 ?GetTypeLibCache@CCmdTarget@@UAEPAVCTypeLibCache@@XZ @ 4895 NONAME
 ?GetUBound@COleSafeArray@@QAEXKPAJ@Z @ 4896 NONAME
 ?GetUndoName@CRichEditCtrl@@QBE?AW4_undonameid@@XZ @ 4897 NONAME
 ?GetUpdateRect@CWnd@@QAEHPAUtagRECT@@H@Z @ 4898 NONAME
 ?GetUpdateRgn@CWnd@@QAEHPAVCRgn@@H@Z @ 4899 NONAME
 ?GetUpperBound@CByteArray@@QBEHXZ @ 4900 NONAME
 ?GetUpperBound@CDWordArray@@QBEHXZ @ 4901 NONAME
 ?GetUpperBound@CObArray@@QBEHXZ @ 4902 NONAME
 ?GetUpperBound@CPtrArray@@QBEHXZ @ 4903 NONAME
 ?GetUpperBound@CStringArray@@QBEHXZ @ 4904 NONAME
 ?GetUpperBound@CUIntArray@@QBEHXZ @ 4905 NONAME
 ?GetUpperBound@CWordArray@@QBEHXZ @ 4906 NONAME
 ?GetUserClassID@XOleObject@CDocObjectServer@@UAGJPAU_GUID@@@Z @ 4907 NONAME
 ?GetUserClassID@XOleObject@COleControl@@UAGJPAU_GUID@@@Z @ 4908 NONAME
 ?GetUserClassID@XOleObject@COleServerDoc@@UAGJPAU_GUID@@@Z @ 4909 NONAME
 ?GetUserClassID@XOleObject@COleServerItem@@UAGJPAU_GUID@@@Z @ 4910 NONAME
 ?GetUserDefinedType@CDHtmlControlSink@@QAEGPAUITypeInfo@@K@Z @ 4911 NONAME
 ?GetUserType@COleClientItem@@QAEXW4tagUSERCLASSTYPE@@AAV?$CStringT@GV?$StrTraitMFC@GV?$ChTraitsCRT@G@@@@@@@Z @ 4912 NONAME
 ?GetUserType@COleControl@@IAEXPAG@Z @ 4913 NONAME
 ?GetUserType@XOleObject@CDocObjectServer@@UAGJKPAPAG@Z @ 4914 NONAME
 ?GetUserType@XOleObject@COleControl@@UAGJKPAPAG@Z @ 4915 NONAME
 ?GetUserType@XOleObject@COleServerDoc@@UAGJKPAPAG@Z @ 4916 NONAME
 ?GetUserType@XOleObject@COleServerItem@@UAGJKPAPAG@Z @ 4917 NONAME
 ?GetValueAt@CMapPtrToPtr@@QBEPAXPAX@Z @ 4918 NONAME
 ?GetVerb@CHttpFile@@QBE?AV?$CStringT@GV?$StrTraitMFC@GV?$ChTraitsCRT@G@@@@@@XZ @ 4919 NONAME
 ?GetVersion@CDockState@@QAEKXZ @ 4920 NONAME
 ?GetVersion@CPropExchange@@QAEKXZ @ 4921 NONAME
 ?GetView@CHtmlEditDoc@@UBEPAVCHtmlEditView@@XZ @ 4922 NONAME
 ?GetView@CRichEditDoc@@UBEPAVCRichEditView@@XZ @ 4923 NONAME
 ?GetViewInfo@XOleUIObjInfo@COlePropertiesDialog@@UAGJKPAPAXPAKPAH@Z @ 4924 NONAME
 ?GetViewportExt@CDC@@QBE?AVCSize@@XZ @ 4925 NONAME
 ?GetViewportOrg@CDC@@QBE?AVCPoint@@XZ @ 4926 NONAME
 ?GetViewRect@CListCtrl@@QBEHPAUtagRECT@@@Z @ 4927 NONAME
 ?GetViewStatus@XViewObject@COleControl@@UAGJPAK@Z @ 4928 NONAME
 ?GetVisible@CHtmlView@@QBEHXZ @ 4929 NONAME
 ?GetVisibleCount@CTreeCtrl@@QBEIXZ @ 4930 NONAME
 ?GetWeight@CFontDialog@@QBEHXZ @ 4931 NONAME
 ?GetWheelScrollDistance@CScrollView@@UAE?AVCSize@@V2@HH@Z @ 4932 NONAME
 ?GetWidth@CHtmlView@@QBEJXZ @ 4933 NONAME
 ?GetWindow@CDC@@QBEPAVCWnd@@XZ @ 4934 NONAME
 ?GetWindow@CWnd@@QBEPAV1@I@Z @ 4935 NONAME
 ?GetWindow@XOleInPlaceActiveObject@COleControl@@UAGJPAPAUHWND__@@@Z @ 4936 NONAME
 ?GetWindow@XOleInPlaceActiveObject@COleServerDoc@@UAGJPAPAUHWND__@@@Z @ 4937 NONAME
 ?GetWindow@XOleInPlaceFrame@COleFrameHook@@UAGJPAPAUHWND__@@@Z @ 4938 NONAME
 ?GetWindow@XOleInPlaceObject@COleControl@@UAGJPAPAUHWND__@@@Z @ 4939 NONAME
 ?GetWindow@XOleInPlaceObject@COleServerDoc@@UAGJPAPAUHWND__@@@Z @ 4940 NONAME
 ?GetWindow@XOleIPFrame@COleControlContainer@@UAGJPAPAUHWND__@@@Z @ 4941 NONAME
 ?GetWindow@XOleIPSite@COleClientItem@@UAGJPAPAUHWND__@@@Z @ 4942 NONAME
 ?GetWindow@XOleIPSite@COleControlSite@@UAGJPAPAUHWND__@@@Z @ 4943 NONAME
 ?GetWindowContext@CRichEditCntrItem@@QAEJPAPAUIOleInPlaceFrame@@PAPAUIOleInPlaceUIWindow@@PAUtagOIFI@@@Z @ 4944 NONAME
 ?GetWindowContext@CRichEditView@@QAEJPAPAUIOleInPlaceFrame@@PAPAUIOleInPlaceUIWindow@@PAUtagOIFI@@@Z @ 4945 NONAME
 ?GetWindowContext@XOleIPSite@COleClientItem@@UAGJPAPAUIOleInPlaceFrame@@PAPAUIOleInPlaceUIWindow@@PAUtagRECT@@2PAUtagOIFI@@@Z @ 4946 NONAME
 ?GetWindowContext@XOleIPSite@COleControlSite@@UAGJPAPAUIOleInPlaceFrame@@PAPAUIOleInPlaceUIWindow@@PAUtagRECT@@2PAUtagOIFI@@@Z @ 4947 NONAME
 ?GetWindowContextHelpId@CWnd@@QBEKXZ @ 4948 NONAME
 ?GetWindowDC@CWnd@@QAEPAVCDC@@XZ @ 4949 NONAME
 ?GetWindowedChildCount@CWnd@@QAEJXZ @ 4950 NONAME
 ?GetWindowExt@CDC@@QBE?AVCSize@@XZ @ 4951 NONAME
 ?GetWindowLessChildCount@CWnd@@QAEJXZ @ 4952 NONAME
 ?GetWindowlessDropTarget@COleControl@@UAEPAUIDropTarget@@XZ @ 4953 NONAME
 ?GetWindowMenuPopup@CMDIFrameWnd@@UAEPAUHMENU__@@PAU2@@Z @ 4954 NONAME
 ?GetWindowOrg@CDC@@QBE?AVCPoint@@XZ @ 4955 NONAME
 ?GetWindowPlacement@CWnd@@QBEHPAUtagWINDOWPLACEMENT@@@Z @ 4956 NONAME
 ?GetWindowRect@CWnd@@QBEXPAUtagRECT@@@Z @ 4957 NONAME
 ?GetWindowRgn@CWnd@@QBEHPAUHRGN__@@@Z @ 4958 NONAME
 ?GetWindowTextLengthW@CWnd@@QBEHXZ @ 4959 NONAME
 ?GetWindowTextW@COleControlSite@@UBEXAAV?$CStringT@GV?$StrTraitMFC@GV?$ChTraitsCRT@G@@@@@@@Z @ 4960 NONAME
 ?GetWindowTextW@CWnd@@QBEHPAGH@Z @ 4961 NONAME
 ?GetWindowTextW@CWnd@@QBEXAAV?$CStringT@GV?$StrTraitMFC@GV?$ChTraitsCRT@G@@@@@@@Z @ 4962 NONAME
 ?GetWordWrapMode@CRichEditCtrl@@QBEIXZ @ 4963 NONAME
 ?GetWorkAreas@CListCtrl@@QBEXHPAUtagRECT@@@Z @ 4964 NONAME
 ?GetZoomFactor@COleServerDoc@@QBEHPAUtagSIZE@@0PBUtagRECT@@@Z @ 4965 NONAME
 ?GiveFeedback@COleDropSource@@UAEJK@Z @ 4966 NONAME
 ?GiveFeedback@XDropSource@COleDropSource@@UAGJK@Z @ 4967 NONAME
 ?GoBack@CHtmlView@@QAEXXZ @ 4968 NONAME
 ?GoForward@CHtmlView@@QAEXXZ @ 4969 NONAME
 ?GoHome@CHtmlView@@QAEXXZ @ 4970 NONAME
 ?GoSearch@CHtmlView@@QAEXXZ @ 4971 NONAME
 ?GotoDlgCtrl@CDialog@@QAEXPAVCWnd@@@Z @ 4972 NONAME
 ?GradientFill@CDC@@QAEHPAU_TRIVERTEX@@KPAXKK@Z @ 4973 NONAME
 ?GrayCtlColor@CWnd@@SGHPAUHDC__@@PAUHWND__@@IPAUHBRUSH__@@K@Z @ 4974 NONAME
 ?GrayStringW@CDC@@UAEHPAVCBrush@@P6GHPAUHDC__@@JH@ZJHHHHH@Z @ 4975 NONAME
 ?GrayStringW@CPreviewDC@@UAEHPAVCBrush@@P6GHPAUHDC__@@JH@ZJHHHHH@Z @ 4976 NONAME
 ?GrowFile@CMemFile@@MAEXK@Z @ 4977 NONAME
 ?HandleFloatingSysCommand@CWnd@@QAEHIJ@Z @ 4978 NONAME
 ?HandleInComingCall@XMessageFilter@COleMessageFilter@@UAGKKPAUHTASK__@@KPAUtagINTERFACEINFO@@@Z @ 4979 NONAME
 ?HandleInitDialog@CDialog@@IAEJIJ@Z @ 4980 NONAME
 ?HandleInitDialog@CDialogBar@@IAEJIJ@Z @ 4981 NONAME
 ?HandleInitDialog@CFormView@@IAEJIJ@Z @ 4982 NONAME
 ?HandleInitDialog@CPrintDialogEx@@QAEJIJ@Z @ 4983 NONAME
 ?HandleInitDialog@CPropertySheet@@IAEJIJ@Z @ 4984 NONAME
 ?HandleMButtonDown@CScrollView@@QAEJIJ@Z @ 4985 NONAME
 ?HandleMessage@CPrintDialogEx@@UAGJPAUHWND__@@IIJPAJ@Z @ 4986 NONAME
 ?HandleSetFocus@COleControlContainer@@UAEHXZ @ 4987 NONAME
 ?HandleSetFont@CDialog@@IAEJIJ@Z @ 4988 NONAME
 ?HandleWindowlessMessage@COleControlContainer@@UAEHIIJPAJ@Z @ 4989 NONAME
 ?HandsOffStorage@XPersistStorage@COleControl@@UAGJXZ @ 4990 NONAME
 ?HandsOffStorage@XPersistStorage@COleServerDoc@@UAGJXZ @ 4991 NONAME
 ?HasBlankItems@COleDocument@@QBEHXZ @ 4992 NONAME
 ?HasEditChanged@CComboBoxEx@@QAEHXZ @ 4993 NONAME
 ?HasFont@CDialogTemplate@@QBEHXZ @ 4994 NONAME
 ?HashKey@@YGIABUtagVARIANT@@@Z @ 4995 NONAME
 ?HashKey@@YGIPBD@Z @ 4996 NONAME
 ?HashKey@@YGIPBG@Z @ 4997 NONAME
 ?HashKey@@YGIVCComBSTR@ATL@@@Z @ 4998 NONAME
 ?Help@XPropertyPage@COlePropertyPage@@UAGJPBG@Z @ 4999 NONAME
 ?HexDump@CDumpContext@@QAEXPBGPAEHH@Z @ 5000 NONAME
 ?hFileNull@CFile@@2QAXA @ 5001 NONAME DATA
 ?HideApplication@CWinApp@@QAEXXZ @ 5002 NONAME
 ?HideButton@CToolBarCtrl@@QAEHHH@Z @ 5003 NONAME
 ?HideCaret@CWnd@@QAEXXZ @ 5004 NONAME
 ?HideControl@CFileDialog@@QAEXH@Z @ 5005 NONAME
 ?HideSelection@CRichEditCtrl@@QAEXHH@Z @ 5006 NONAME
 ?HideUI@CBrowserControlSite@@MAGJXZ @ 5007 NONAME
 ?HideUI@CDHtmlDialog@@UAGJXZ @ 5008 NONAME
 ?HideUI@XDocHostUIHandler@CHtmlControlSite@@UAGJXZ @ 5009 NONAME
 ?HighlightItem@CTabCtrl@@QAEHHH@Z @ 5010 NONAME
 ?HiliteMenuItem@CWnd@@QAEHPAVCMenu@@II@Z @ 5011 NONAME
 ?HIMETRICtoDP@CDC@@QBEXPAUtagSIZE@@@Z @ 5012 NONAME
 ?HIMETRICtoLP@CDC@@QBEXPAUtagSIZE@@@Z @ 5013 NONAME
 ?HitTest@CListCtrl@@QBEHPAUtagLVHITTESTINFO@@@Z @ 5014 NONAME
 ?HitTest@CListCtrl@@QBEHVCPoint@@PAI@Z @ 5015 NONAME
 ?HitTest@CMonthCalCtrl@@QAEKPAUMCHITTESTINFO@@@Z @ 5016 NONAME
 ?HitTest@CReBarCtrl@@QAEHPAU_RB_HITTESTINFO@@@Z @ 5017 NONAME
 ?HitTest@CRectTracker@@QBEHVCPoint@@@Z @ 5018 NONAME
 ?HitTest@CSplitterWnd@@MBEHVCPoint@@@Z @ 5019 NONAME
 ?HitTest@CTabCtrl@@QBEHPAUtagTCHITTESTINFO@@@Z @ 5020 NONAME
 ?HitTest@CToolBarCtrl@@QBEHPAUtagPOINT@@@Z @ 5021 NONAME
 ?HitTest@CToolTipCtrl@@QBEHPAVCWnd@@VCPoint@@PAUtagTOOLINFOW@@@Z @ 5022 NONAME
 ?HitTest@CTreeCtrl@@QBEPAU_TREEITEM@@PAUtagTVHITTESTINFO@@@Z @ 5023 NONAME
 ?HitTest@CTreeCtrl@@QBEPAU_TREEITEM@@VCPoint@@PAI@Z @ 5024 NONAME
 ?HitTestHandles@CRectTracker@@IBEHVCPoint@@@Z @ 5025 NONAME
 ?HtmlHelpW@CWinApp@@UAEXKI@Z @ 5026 NONAME
 ?HtmlHelpW@CWnd@@UAEXKI@Z @ 5027 NONAME
 ?IdFromRowCol@CSplitterWnd@@QBEHHH@Z @ 5028 NONAME
 ?IDToIndex@CReBarCtrl@@QBEHI@Z @ 5029 NONAME
 ?IgnoreApply@COlePropertyPage@@QAEXI@Z @ 5030 NONAME
 ?IgnoreWindowMessage@COleControl@@IAEHIIJPAJ@Z @ 5031 NONAME
 ?Indeterminate@CToolBarCtrl@@QAEHHH@Z @ 5032 NONAME
 ?Init@CCriticalSection@@AAEHXZ @ 5033 NONAME
 ?InitApplication@CWinApp@@UAEHXZ @ 5034 NONAME
 ?InitCache@XOleCache@COleControl@@UAGJPAUIDataObject@@@Z @ 5035 NONAME
 ?InitControlContainer@CWnd@@IAEHXZ @ 5036 NONAME
 ?InitDialogInfo@CPropertyPage@@IAEPBUDLGTEMPLATE@@PBU2@@Z @ 5037 NONAME
 ?InitDone@CPrintDialogEx@@UAGJXZ @ 5038 NONAME
 ?InitFromData@XOleObject@CDocObjectServer@@UAGJPAUIDataObject@@HK@Z @ 5039 NONAME
 ?InitFromData@XOleObject@COleControl@@UAGJPAUIDataObject@@HK@Z @ 5040 NONAME
 ?InitFromData@XOleObject@COleServerDoc@@UAGJPAUIDataObject@@HK@Z @ 5041 NONAME
 ?InitFromData@XOleObject@COleServerItem@@UAGJPAUIDataObject@@HK@Z @ 5042 NONAME
 ?InitHashTable@CMapPtrToPtr@@QAEXIH@Z @ 5043 NONAME
 ?InitHashTable@CMapPtrToWord@@QAEXIH@Z @ 5044 NONAME
 ?InitHashTable@CMapStringToOb@@QAEXIH@Z @ 5045 NONAME
 ?InitHashTable@CMapStringToPtr@@QAEXIH@Z @ 5046 NONAME
 ?InitHashTable@CMapStringToString@@QAEXIH@Z @ 5047 NONAME
 ?InitHashTable@CMapWordToOb@@QAEXIH@Z @ 5048 NONAME
 ?InitHashTable@CMapWordToPtr@@QAEXIH@Z @ 5049 NONAME
 ?Initialize@CDataSourceControl@@QAEJXZ @ 5050 NONAME
 ?Initialize@CDHtmlDialog@@IAEXXZ @ 5051 NONAME
 ?InitializeFont@CFontHolder@@QAEXPBUtagFONTDESC@@PAUIDispatch@@@Z @ 5052 NONAME
 ?InitializeIIDs@COleControl@@QAEXPBU_GUID@@0@Z @ 5053 NONAME
 ?InitializeReplace@CEditView@@IAEHXZ @ 5054 NONAME
 ?InitialUpdateFrame@CDocTemplate@@UAEXPAVCFrameWnd@@PAVCDocument@@H@Z @ 5055 NONAME
 ?InitialUpdateFrame@CFrameWnd@@QAEXPAVCDocument@@H@Z @ 5056 NONAME
 ?InitInstance@COleControlModule@@UAEHXZ @ 5057 NONAME
 ?InitInstance@CWinApp@@UAEHXZ @ 5058 NONAME
 ?InitInstance@CWinThread@@UAEHXZ @ 5059 NONAME
 ?InitLibId@CWinApp@@UAEXXZ @ 5060 NONAME
 ?InitLoop@CDockContext@@QAEXXZ @ 5061 NONAME
 ?InitModalIndirect@CDialog@@QAEHPAXPAVCWnd@@@Z @ 5062 NONAME
 ?InitModalIndirect@CDialog@@QAEHPBUDLGTEMPLATE@@PAVCWnd@@PAX@Z @ 5063 NONAME
 ?InitNew@XPersistMemory@COleControl@@UAGJXZ @ 5064 NONAME
 ?InitNew@XPersistPropertyBag@COleControl@@UAGJXZ @ 5065 NONAME
 ?InitNew@XPersistStorage@COleControl@@UAGJPAUIStorage@@@Z @ 5066 NONAME
 ?InitNew@XPersistStorage@COleServerDoc@@UAGJPAUIStorage@@@Z @ 5067 NONAME
 ?InitNew@XPersistStreamInit@COleControl@@UAGJXZ @ 5068 NONAME
 ?InitRecord@CRecordset@@QAEXXZ @ 5069 NONAME
 ?InitStockEventMask@COleControl@@IAEXXZ @ 5070 NONAME
 ?InitStockPropMask@COleControl@@IAEXXZ @ 5071 NONAME
 ?InitStorage@CComboBox@@QAEHHI@Z @ 5072 NONAME
 ?InitStorage@CListBox@@QAEHHI@Z @ 5073 NONAME
 ?InitString@CSimpleException@@QAEXXZ @ 5074 NONAME
 ?InModalState@CFrameWnd@@QBEHXZ @ 5075 NONAME
 ?InPlaceDeactivate@XOleInPlaceObject@COleControl@@UAGJXZ @ 5076 NONAME
 ?InPlaceDeactivate@XOleInPlaceObject@COleServerDoc@@UAGJXZ @ 5077 NONAME
 ?Insert@CDockBar@@IAEHPAVCControlBar@@VCRect@@VCPoint@@@Z @ 5078 NONAME
 ?InsertAfter@CObList@@QAEPAU__POSITION@@PAU2@PAVCObject@@@Z @ 5079 NONAME
 ?InsertAfter@CPtrList@@QAEPAU__POSITION@@PAU2@PAX@Z @ 5080 NONAME
 ?InsertAfter@CStringList@@QAEPAU__POSITION@@PAU2@ABV?$CStringT@GV?$StrTraitMFC@GV?$ChTraitsCRT@G@@@@@@@Z @ 5081 NONAME
 ?InsertAfter@CStringList@@QAEPAU__POSITION@@PAU2@PBG@Z @ 5082 NONAME
 ?InsertAt@CByteArray@@QAEXHEH@Z @ 5083 NONAME
 ?InsertAt@CByteArray@@QAEXHPAV1@@Z @ 5084 NONAME
 ?InsertAt@CDWordArray@@QAEXHKH@Z @ 5085 NONAME
 ?InsertAt@CDWordArray@@QAEXHPAV1@@Z @ 5086 NONAME
 ?InsertAt@CObArray@@QAEXHPAV1@@Z @ 5087 NONAME
 ?InsertAt@CObArray@@QAEXHPAVCObject@@H@Z @ 5088 NONAME
 ?InsertAt@CPtrArray@@QAEXHPAV1@@Z @ 5089 NONAME
 ?InsertAt@CPtrArray@@QAEXHPAXH@Z @ 5090 NONAME
 ?InsertAt@CStringArray@@QAEXHABV?$CStringT@GV?$StrTraitMFC@GV?$ChTraitsCRT@G@@@@@@H@Z @ 5091 NONAME
 ?InsertAt@CStringArray@@QAEXHPAV1@@Z @ 5092 NONAME
 ?InsertAt@CStringArray@@QAEXHPBGH@Z @ 5093 NONAME
 ?InsertAt@CUIntArray@@QAEXHIH@Z @ 5094 NONAME
 ?InsertAt@CUIntArray@@QAEXHPAV1@@Z @ 5095 NONAME
 ?InsertAt@CWordArray@@QAEXHGH@Z @ 5096 NONAME
 ?InsertAt@CWordArray@@QAEXHPAV1@@Z @ 5097 NONAME
 ?InsertBand@CReBarCtrl@@QAEHIPAUtagREBARBANDINFOW@@@Z @ 5098 NONAME
 ?InsertBefore@CObList@@QAEPAU__POSITION@@PAU2@PAVCObject@@@Z @ 5099 NONAME
 ?InsertBefore@CPtrList@@QAEPAU__POSITION@@PAU2@PAX@Z @ 5100 NONAME
 ?InsertBefore@CStringList@@QAEPAU__POSITION@@PAU2@ABV?$CStringT@GV?$StrTraitMFC@GV?$ChTraitsCRT@G@@@@@@@Z @ 5101 NONAME
 ?InsertBefore@CStringList@@QAEPAU__POSITION@@PAU2@PBG@Z @ 5102 NONAME
 ?InsertButton@CToolBarCtrl@@QAEHHPAU_TBBUTTON@@@Z @ 5103 NONAME
 ?InsertColumn@CListCtrl@@QAEHHPBGHHH@Z @ 5104 NONAME
 ?InsertColumn@CListCtrl@@QAEHHPBUtagLVCOLUMNW@@@Z @ 5105 NONAME
 ?InsertEmpty@CStringArray@@IAEXHH@Z @ 5106 NONAME
 ?InsertFileAsObject@CRichEditView@@QAEXPBG@Z @ 5107 NONAME
 ?InsertItem@CComboBoxEx@@QAEHPBUtagCOMBOBOXEXITEMW@@@Z @ 5108 NONAME
 ?InsertItem@CHeaderCtrl@@QAEHHPAU_HD_ITEMW@@@Z @ 5109 NONAME
 ?InsertItem@CListCtrl@@QAEHHPBG@Z @ 5110 NONAME
 ?InsertItem@CListCtrl@@QAEHHPBGH@Z @ 5111 NONAME
 ?InsertItem@CListCtrl@@QAEHIHPBGIIHJ@Z @ 5112 NONAME
 ?InsertItem@CListCtrl@@QAEHPBUtagLVITEMW@@@Z @ 5113 NONAME
 ?InsertItem@CRichEditView@@QAEJPAVCRichEditCntrItem@@@Z @ 5114 NONAME
 ?InsertItem@CTabCtrl@@QAEJHPAUtagTCITEMW@@@Z @ 5115 NONAME
 ?InsertItem@CTabCtrl@@QAEJHPBG@Z @ 5116 NONAME
 ?InsertItem@CTabCtrl@@QAEJHPBGH@Z @ 5117 NONAME
 ?InsertItem@CTabCtrl@@QAEJIHPBGHJ@Z @ 5118 NONAME
 ?InsertItem@CTabCtrl@@QAEJIHPBGHJKK@Z @ 5119 NONAME
 ?InsertItem@CTreeCtrl@@QAEPAU_TREEITEM@@IPBGHHIIJPAU2@1@Z @ 5120 NONAME
 ?InsertItem@CTreeCtrl@@QAEPAU_TREEITEM@@PAUtagTVINSERTSTRUCTW@@@Z @ 5121 NONAME
 ?InsertItem@CTreeCtrl@@QAEPAU_TREEITEM@@PBGHHPAU2@1@Z @ 5122 NONAME
 ?InsertItem@CTreeCtrl@@QAEPAU_TREEITEM@@PBGPAU2@1@Z @ 5123 NONAME
 ?InsertMarkHitTest@CToolBarCtrl@@QBEHPAUtagPOINT@@PAUTBINSERTMARK@@@Z @ 5124 NONAME
 ?InsertMenuItemW@CMenu@@QAEHIPAUtagMENUITEMINFOW@@H@Z @ 5125 NONAME
 ?InsertMenus@XOleInPlaceFrame@COleFrameHook@@UAGJPAUHMENU__@@PAUtagOleMenuGroupWidths@@@Z @ 5126 NONAME
 ?InsertMenus@XOleIPFrame@COleControlContainer@@UAGJPAUHMENU__@@PAUtagOleMenuGroupWidths@@@Z @ 5127 NONAME
 ?InsertMenuW@CMenu@@QAEHIIIPBG@Z @ 5128 NONAME
 ?InsertMenuW@CMenu@@QAEHIIIPBVCBitmap@@@Z @ 5129 NONAME
 ?InsertString@CComboBox@@QAEHHPBG@Z @ 5130 NONAME
 ?InsertString@CComboBoxEx@@QAEHHPBG@Z @ 5131 NONAME
 ?InsertString@CListBox@@QAEHHPBG@Z @ 5132 NONAME
 ?InternalAddRef@CCmdTarget@@QAEKXZ @ 5133 NONAME
 ?InternalGetFont@COleControl@@QAEAAVCFontHolder@@XZ @ 5134 NONAME
 ?InternalGetText@COleControl@@QAEABV?$CStringT@GV?$StrTraitMFC@GV?$ChTraitsCRT@G@@@@@@XZ @ 5135 NONAME
 ?InternalQueryInterface@CCmdTarget@@QAEKPBXPAPAX@Z @ 5136 NONAME
 ?InternalRelease@CCmdTarget@@QAEKXZ @ 5137 NONAME
 ?InternalSetReadyState@COleControl@@QAEXJ@Z @ 5138 NONAME
 ?IntersectClipRect@CDC@@QAEHHHHH@Z @ 5139 NONAME
 ?IntersectClipRect@CDC@@QAEHPBUtagRECT@@@Z @ 5140 NONAME
 ?Invalidate@CWnd@@QAEXH@Z @ 5141 NONAME
 ?InvalidateCheck@CCheckListBox@@IAEXH@Z @ 5142 NONAME
 ?InvalidateControl@COleControl@@QAEXPBUtagRECT@@H@Z @ 5143 NONAME
 ?InvalidateItem@CCheckListBox@@IAEXH@Z @ 5144 NONAME
 ?InvalidateObjectCache@CRichEditDoc@@QAEXXZ @ 5145 NONAME
 ?InvalidateRect@CWnd@@QAEXPBUtagRECT@@H@Z @ 5146 NONAME
 ?InvalidateRect@XOleIPSite@COleControlSite@@UAGJPBUtagRECT@@H@Z @ 5147 NONAME
 ?InvalidateRgn@COleControl@@QAEXPAVCRgn@@H@Z @ 5148 NONAME
 ?InvalidateRgn@CWnd@@QAEXPAVCRgn@@H@Z @ 5149 NONAME
 ?InvalidateRgn@XOleIPSite@COleControlSite@@UAGJPAUHRGN__@@H@Z @ 5150 NONAME
 ?InvertRect@CDC@@QAEXPBUtagRECT@@@Z @ 5151 NONAME
 ?InvertRgn@CDC@@QAEHPAVCRgn@@@Z @ 5152 NONAME
 ?Invoke@CDHtmlControlSink@@UAGJJABU_GUID@@KGPAUtagDISPPARAMS@@PAUtagVARIANT@@PAUtagEXCEPINFO@@PAI@Z @ 5153 NONAME
 ?Invoke@CDHtmlElementEventSink@@UAGJJABU_GUID@@KGPAUtagDISPPARAMS@@PAUtagVARIANT@@PAUtagEXCEPINFO@@PAI@Z @ 5154 NONAME
 ?Invoke@CDHtmlEventSink@@UAGJJABU_GUID@@KGPAUtagDISPPARAMS@@PAUtagVARIANT@@PAUtagEXCEPINFO@@PAI@Z @ 5155 NONAME
 ?Invoke@COleDispatchImpl@@UAGJJABU_GUID@@KGPAUtagDISPPARAMS@@PAUtagVARIANT@@PAUtagEXCEPINFO@@PAI@Z @ 5156 NONAME
 ?Invoke@XAccessible@CWnd@@UAGJJABU_GUID@@KGPAUtagDISPPARAMS@@PAUtagVARIANT@@PAUtagEXCEPINFO@@PAI@Z @ 5157 NONAME
 ?Invoke@XAmbientProps@COleControlSite@@UAGJJABU_GUID@@KGPAUtagDISPPARAMS@@PAUtagVARIANT@@PAUtagEXCEPINFO@@PAI@Z @ 5158 NONAME
 ?Invoke@XEventSink@COleControlSite@@UAGJJABU_GUID@@KGPAUtagDISPPARAMS@@PAUtagVARIANT@@PAUtagEXCEPINFO@@PAI@Z @ 5159 NONAME
 ?InvokeFromFuncInfo@CDHtmlControlSink@@QAEJP8CDHtmlSinkHandler@@AGXXZAAU_ATL_FUNC_INFO@ATL@@PAUtagDISPPARAMS@@PAUtagVARIANT@@@Z @ 5160 NONAME
 ?InvokeHelper@COleControlSite@@UAAXJGGPAXPBEZZ @ 5161 NONAME
 ?InvokeHelper@COleDispatchDriver@@QAAXJGGPAXPBEZZ @ 5162 NONAME
 ?InvokeHelper@CWnd@@QAAXJGGPAXPBEZZ @ 5163 NONAME
 ?InvokeHelperV@COleControlSite@@UAEXJGGPAXPBEPAD@Z @ 5164 NONAME
 ?InvokeHelperV@COleDispatchDriver@@QAEXJGGPAXPBEPAD@Z @ 5165 NONAME
 ?IOCtl@CAsyncSocket@@QAEHJPAK@Z @ 5166 NONAME
 ?IsArchived@CFileFind@@QBEHXZ @ 5167 NONAME
 ?IsAsynchronous@CPropExchange@@QAEHXZ @ 5168 NONAME
 ?IsBlank@CDocItem@@UBEHXZ @ 5169 NONAME
 ?IsBlank@CIPAddressCtrl@@QBEHXZ @ 5170 NONAME
 ?IsBlank@COleServerItem@@MBEHXZ @ 5171 NONAME
 ?IsBlocking@CSocket@@QAEHXZ @ 5172 NONAME
 ?IsBOF@CRecordset@@QBEHXZ @ 5173 NONAME
 ?IsBold@CFontDialog@@QBEHXZ @ 5174 NONAME
 ?IsBufferEmpty@CArchive@@QBEHXZ @ 5175 NONAME
 ?IsButtonChecked@CToolBarCtrl@@QBEHH@Z @ 5176 NONAME
 ?IsButtonEnabled@CPropertyPage@@IAEHH@Z @ 5177 NONAME
 ?IsButtonEnabled@CToolBarCtrl@@QBEHH@Z @ 5178 NONAME
 ?IsButtonHidden@CToolBarCtrl@@QBEHH@Z @ 5179 NONAME
 ?IsButtonHighlighted@CToolBarCtrl@@QBEHH@Z @ 5180 NONAME
 ?IsButtonIndeterminate@CToolBarCtrl@@QBEHH@Z @ 5181 NONAME
 ?IsButtonPressed@CToolBarCtrl@@QBEHH@Z @ 5182 NONAME
 ?IsByteSwapping@CArchive@@QBEHXZ @ 5183 NONAME
 ?IsChild@CWnd@@QBEHPBV1@@Z @ 5184 NONAME
 ?IsChildPane@CSplitterWnd@@QAEHPAVCWnd@@AAH1@Z @ 5185 NONAME
 ?IsChildPane@CSplitterWnd@@QAEHPAVCWnd@@PAH1@Z @ 5186 NONAME
 ?IsCompressed@CFileFind@@QBEHXZ @ 5187 NONAME
 ?IsConnected@COleServerItem@@QBEHXZ @ 5188 NONAME
 ?IsConvertingVBX@COleControl@@QAEHXZ @ 5189 NONAME
 ?IsDataAvailable@COleDataObject@@QAEHGPAUtagFORMATETC@@@Z @ 5190 NONAME
 ?IsDefaultButton@COleControlSite@@QAEHXZ @ 5191 NONAME
 ?IsDeleted@CRecordset@@QBEHXZ @ 5192 NONAME
 ?IsDerivedFrom@CRuntimeClass@@QBEHPBU1@@Z @ 5193 NONAME
 ?IsDialogMessageW@COccManager@@UAEHPAVCWnd@@PAUtagMSG@@@Z @ 5194 NONAME
 ?IsDialogMessageW@CWnd@@QAEHPAUtagMSG@@@Z @ 5195 NONAME
 ?IsDirectory@CFileFind@@QBEHXZ @ 5196 NONAME
 ?IsDirty@CBlobProperty@@UAGJXZ @ 5197 NONAME
 ?IsDirty@XPersistFile@COleLinkingDoc@@UAGJXZ @ 5198 NONAME
 ?IsDirty@XPersistMemory@COleControl@@UAGJXZ @ 5199 NONAME
 ?IsDirty@XPersistStorage@COleControl@@UAGJXZ @ 5200 NONAME
 ?IsDirty@XPersistStorage@COleServerDoc@@UAGJXZ @ 5201 NONAME
 ?IsDirty@XPersistStreamInit@COleControl@@UAGJXZ @ 5202 NONAME
 ?IsDlgButtonChecked@COleControlContainer@@UBEIH@Z @ 5203 NONAME
 ?IsDlgButtonChecked@CWnd@@QBEIH@Z @ 5204 NONAME
 ?IsDockBar@CControlBar@@UBEHXZ @ 5205 NONAME
 ?IsDockBar@CDockBar@@UBEHXZ @ 5206 NONAME
 ?IsDocObject@COleServerDoc@@QBEHXZ @ 5207 NONAME
 ?IsDots@CFileFind@@UBEHXZ @ 5208 NONAME
 ?IsDots@CGopherFileFind@@UBEHXZ @ 5209 NONAME
 ?IsEmbedded@COleServerDoc@@QBEHXZ @ 5210 NONAME
 ?IsEmpty@CByteArray@@QBEHXZ @ 5211 NONAME
 ?IsEmpty@CDWordArray@@QBEHXZ @ 5212 NONAME
 ?IsEmpty@CMapPtrToPtr@@QBEHXZ @ 5213 NONAME
 ?IsEmpty@CMapPtrToWord@@QBEHXZ @ 5214 NONAME
 ?IsEmpty@CMapStringToOb@@QBEHXZ @ 5215 NONAME
 ?IsEmpty@CMapStringToPtr@@QBEHXZ @ 5216 NONAME
 ?IsEmpty@CMapStringToString@@QBEHXZ @ 5217 NONAME
 ?IsEmpty@CMapWordToOb@@QBEHXZ @ 5218 NONAME
 ?IsEmpty@CMapWordToPtr@@QBEHXZ @ 5219 NONAME
 ?IsEmpty@CObArray@@QBEHXZ @ 5220 NONAME
 ?IsEmpty@CObList@@QBEHXZ @ 5221 NONAME
 ?IsEmpty@CPtrArray@@QBEHXZ @ 5222 NONAME
 ?IsEmpty@CPtrList@@QBEHXZ @ 5223 NONAME
 ?IsEmpty@CStringArray@@QBEHXZ @ 5224 NONAME
 ?IsEmpty@CStringList@@QBEHXZ @ 5225 NONAME
 ?IsEmpty@CUIntArray@@QBEHXZ @ 5226 NONAME
 ?IsEmpty@CWordArray@@QBEHXZ @ 5227 NONAME
 ?IsEnabled@CCheckListBox@@QAEHH@Z @ 5228 NONAME
 ?IsEOF@CRecordset@@QBEHXZ @ 5229 NONAME
 ?IsExternalDispatchSafe@CDHtmlDialog@@UAEHXZ @ 5230 NONAME
 ?IsFieldDirty@CRecordset@@QAEHPAX@Z @ 5231 NONAME
 ?IsFieldNull@CRecordset@@QAEHPAX@Z @ 5232 NONAME
 ?IsFieldNullable@CRecordset@@QAEHPAX@Z @ 5233 NONAME
 ?IsFieldNullable@CRecordset@@QBEHK@Z @ 5234 NONAME
 ?IsFieldStatusDirty@CRecordset@@QBEHK@Z @ 5235 NONAME
 ?IsFieldStatusNull@CRecordset@@QBEHK@Z @ 5236 NONAME
 ?IsFieldType@CFieldExchange@@QAEHPAI@Z @ 5237 NONAME
 ?IsFloating@CControlBar@@QBEHXZ @ 5238 NONAME
 ?IsFrameWnd@CFrameWnd@@UBEHXZ @ 5239 NONAME
 ?IsFrameWnd@CWnd@@UBEHXZ @ 5240 NONAME
 ?IsHelpKey@@YGHPAUtagMSG@@@Z @ 5241 NONAME
 ?IsHidden@CFileFind@@QBEHXZ @ 5242 NONAME
 ?IsIconic@CWnd@@QBEHXZ @ 5243 NONAME
 ?IsIdleMessage@CWinThread@@UAEHPAUtagMSG@@@Z @ 5244 NONAME
 ?IsInPlaceActive@COleClientItem@@QBEHXZ @ 5245 NONAME
 ?IsInPlaceActive@COleServerDoc@@QBEHXZ @ 5246 NONAME
 ?IsInvokeAllowed@CCmdTarget@@UAEHJ@Z @ 5247 NONAME
 ?IsInvokeAllowed@COleControl@@MAEHJ@Z @ 5248 NONAME
 ?IsItalic@CFontDialog@@QBEHXZ @ 5249 NONAME
 ?IsJoin@CRecordset@@SGHPBG@Z @ 5250 NONAME
 ?IsKindOf@CObject@@QBEHPBUCRuntimeClass@@@Z @ 5251 NONAME
 ?IsLabelControl@COccManager@@SAHPAVCWnd@@@Z @ 5252 NONAME
 ?IsLicenseValid@COleObjectFactory@@QAEHXZ @ 5253 NONAME
 ?IsLinkedItem@COleServerItem@@QBEHXZ @ 5254 NONAME
 ?IsLinkUpToDate@COleClientItem@@QBEHXZ @ 5255 NONAME
 ?IsLoading@CArchive@@QBEHXZ @ 5256 NONAME
 ?IsLoading@CPropExchange@@QAEHXZ @ 5257 NONAME
 ?IsLocked@CMultiLock@@QAEHK@Z @ 5258 NONAME
 ?IsLocked@CSingleLock@@QAEHXZ @ 5259 NONAME
 ?IsMarked@CRichEditCntrItem@@QAEHXZ @ 5260 NONAME
 ?IsMatchingMnemonic@COccManager@@SAHPAVCWnd@@PAUtagMSG@@@Z @ 5261 NONAME
 ?IsMatchingMnemonic@COleControlSite@@QAEHPAUtagMSG@@@Z @ 5262 NONAME
 ?IsModified@CDocument@@UAEHXZ @ 5263 NONAME
 ?IsModified@CHtmlEditDoc@@UAEHXZ @ 5264 NONAME
 ?IsModified@COleClientItem@@QBEHXZ @ 5265 NONAME
 ?IsModified@COleControl@@QAEHXZ @ 5266 NONAME
 ?IsModified@COlePropertyPage@@QAEHXZ @ 5267 NONAME
 ?IsModified@CRichEditDoc@@UAEHXZ @ 5268 NONAME
 ?IsNormal@CFileFind@@QBEHXZ @ 5269 NONAME
 ?IsOnFirstRecord@CRecordView@@QAEHXZ @ 5270 NONAME
 ?IsOnLastRecord@CRecordView@@QAEHXZ @ 5271 NONAME
 ?IsOpen@CDatabase@@QBEHXZ @ 5272 NONAME
 ?IsOpen@COleClientItem@@QBEHXZ @ 5273 NONAME
 ?IsOpen@CRecordset@@QBEHXZ @ 5274 NONAME
 ?IsOptimizedDraw@COleControl@@QAEHXZ @ 5275 NONAME
 ?IsPageDirty@XPropertyPage@COlePropertyPage@@UAGJXZ @ 5276 NONAME
 ?IsParamStatusNull@CRecordset@@QBEHK@Z @ 5277 NONAME
 ?IsPrinting@CDC@@QBEHXZ @ 5278 NONAME
 ?IsReadOnly@CFileFind@@QBEHXZ @ 5279 NONAME
 ?IsRecordsetUpdatable@CRecordset@@IAEHXZ @ 5280 NONAME
 ?IsRegistered@COleObjectFactory@@UBEHXZ @ 5281 NONAME
 ?IsResultExpected@CCmdTarget@@QAEHXZ @ 5282 NONAME
 ?IsRichEditFormat@CRichEditView@@SAHG@Z @ 5283 NONAME
 ?IsRunning@COleClientItem@@QBEHXZ @ 5284 NONAME
 ?IsRunning@XOleItemContainer@COleLinkingDoc@@UAGJPAG@Z @ 5285 NONAME
 ?IsSelected@CRichEditView@@MBEHPBVCObject@@@Z @ 5286 NONAME
 ?IsSelected@CView@@UBEHPBVCObject@@@Z @ 5287 NONAME
 ?IsSelectQueryUpdatable@CRecordset@@QAEHPBG@Z @ 5288 NONAME
 ?IsSerializable@CObject@@QBEHXZ @ 5289 NONAME
 ?IsSignificantMessage@COleMessageFilter@@UAEHPAUtagMSG@@@Z @ 5290 NONAME
 ?IsSimple@CStatusBarCtrl@@QBEHXZ @ 5291 NONAME
 ?IsSinkedElement@CDHtmlDialog@@IAEHPAUIDispatch@@@Z @ 5292 NONAME
 ?IsSQLUpdatable@CRecordset@@QAEHPBG@Z @ 5293 NONAME
 ?IsStoring@CArchive@@QBEHXZ @ 5294 NONAME
 ?IsStrikeOut@CFontDialog@@QBEHXZ @ 5295 NONAME
 ?IsSubclassedControl@COleControl@@UAEHXZ @ 5296 NONAME
 ?IsSystem@CFileFind@@QBEHXZ @ 5297 NONAME
 ?IsTemporary@CFileFind@@QBEHXZ @ 5298 NONAME
 ?IsTerminating@CFindReplaceDialog@@QBEHXZ @ 5299 NONAME
 ?IsTopParentActive@CWnd@@QBEHXZ @ 5300 NONAME
 ?IsTracking@CFrameWnd@@QBEHXZ @ 5301 NONAME
 ?IsTracking@CSplitterWnd@@QAEHXZ @ 5302 NONAME
 ?IsUnderline@CFontDialog@@QBEHXZ @ 5303 NONAME
 ?IsUpToDate@XOleObject@CDocObjectServer@@UAGJXZ @ 5304 NONAME
 ?IsUpToDate@XOleObject@COleControl@@UAGJXZ @ 5305 NONAME
 ?IsUpToDate@XOleObject@COleServerDoc@@UAGJXZ @ 5306 NONAME
 ?IsUpToDate@XOleObject@COleServerItem@@UAGJXZ @ 5307 NONAME
 ?IsValidSource@COleChangeSourceDialog@@QAEHXZ @ 5308 NONAME
 ?IsVisible@CControlBar@@UBEHXZ @ 5309 NONAME
 ?IsWindowEnabled@COleControlSite@@UBEHXZ @ 5310 NONAME
 ?IsWindowEnabled@CWnd@@QBEHXZ @ 5311 NONAME
 ?IsWindowVisible@CWnd@@QBEHXZ @ 5312 NONAME
 ?IsWizard@CPropertySheet@@QBEHXZ @ 5313 NONAME
 ?IsZoomed@CWnd@@QBEHXZ @ 5314 NONAME
 ?ItemFromPoint@CListBox@@QBEIVCPoint@@AAH@Z @ 5315 NONAME
 ?ItemFromPt@CDragListBox@@QBEHVCPoint@@H@Z @ 5316 NONAME
 ?ItemHasChildren@CTreeCtrl@@QBEHPAU_TREEITEM@@@Z @ 5317 NONAME
 ?KeyDown@COleControl@@IAEXPAG@Z @ 5318 NONAME
 ?KeyUp@COleControl@@IAEXPAG@Z @ 5319 NONAME
 ?KillSocket@CAsyncSocket@@SGXIPAV1@@Z @ 5320 NONAME
 ?KillTimer@CWnd@@QAEHI@Z @ 5321 NONAME
 ?Layout@CHeaderCtrl@@QAEHPAU_HD_LAYOUT@@@Z @ 5322 NONAME
 ?Layout@CToolBar@@IAEXXZ @ 5323 NONAME
 ?LimitText@CComboBox@@QAEHH@Z @ 5324 NONAME
 ?LimitText@CEdit@@QAEXH@Z @ 5325 NONAME
 ?LimitText@CRichEditCtrl@@QAEXJ@Z @ 5326 NONAME
 ?LineFromChar@CEdit@@QBEHH@Z @ 5327 NONAME
 ?LineFromChar@CRichEditCtrl@@QBEJJ@Z @ 5328 NONAME
 ?LineIndex@CEdit@@QBEHH@Z @ 5329 NONAME
 ?LineIndex@CRichEditCtrl@@QBEHH@Z @ 5330 NONAME
 ?LineLength@CEdit@@QBEHH@Z @ 5331 NONAME
 ?LineLength@CRichEditCtrl@@QBEHH@Z @ 5332 NONAME
 ?LineScroll@CEdit@@QAEXHH@Z @ 5333 NONAME
 ?LineScroll@CRichEditCtrl@@QAEXHH@Z @ 5334 NONAME
 ?LineTo@CDC@@QAEHHH@Z @ 5335 NONAME
 ?LineTo@CDC@@QAEHUtagPOINT@@@Z @ 5336 NONAME
 ?Listen@CAsyncSocket@@QAEHH@Z @ 5337 NONAME
 ?lMaxSize@CRichEditView@@2KA @ 5338 NONAME DATA
 ?Load@CBlobProperty@@UAGJPAUIStream@@@Z @ 5339 NONAME
 ?Load@CDialogTemplate@@QAEHPBG@Z @ 5340 NONAME
 ?Load@COleControl@@QAEXPBGAAVCDataPathProperty@@@Z @ 5341 NONAME
 ?Load@CRuntimeClass@@SGPAU1@AAVCArchive@@PAI@Z @ 5342 NONAME
 ?Load@XPersistFile@COleLinkingDoc@@UAGJPBGK@Z @ 5343 NONAME
 ?Load@XPersistMemory@COleControl@@UAGJPAXK@Z @ 5344 NONAME
 ?Load@XPersistPropertyBag@COleControl@@UAGJPAUIPropertyBag@@PAUIErrorLog@@@Z @ 5345 NONAME
 ?Load@XPersistStorage@COleControl@@UAGJPAUIStorage@@@Z @ 5346 NONAME
 ?Load@XPersistStorage@COleServerDoc@@UAGJPAUIStorage@@@Z @ 5347 NONAME
 ?Load@XPersistStreamInit@COleControl@@UAGJPAUIStream@@@Z @ 5348 NONAME
 ?LoadAccelTable@CFrameWnd@@QAEHPBG@Z @ 5349 NONAME
 ?LoadAppLangResourceDLL@CWinApp@@UAEPAUHINSTANCE__@@XZ @ 5350 NONAME
 ?LoadBarState@CFrameWnd@@QAEXPBG@Z @ 5351 NONAME
 ?LoadBitmaps@CBitmapButton@@QAEHIIII@Z @ 5352 NONAME
 ?LoadBitmaps@CBitmapButton@@QAEHPBG000@Z @ 5353 NONAME
 ?LoadBitmapW@CBitmap@@QAEHI@Z @ 5354 NONAME
 ?LoadBitmapW@CBitmap@@QAEHPBG@Z @ 5355 NONAME
 ?LoadBitmapW@CToolBar@@QAEHI@Z @ 5356 NONAME
 ?LoadBitmapW@CToolBar@@QAEHPBG@Z @ 5357 NONAME
 ?LoadCursorW@CWinApp@@QBEPAUHICON__@@I@Z @ 5358 NONAME
 ?LoadCursorW@CWinApp@@QBEPAUHICON__@@PBG@Z @ 5359 NONAME
 ?LoadFields@CRecordset@@QAEXXZ @ 5360 NONAME
 ?LoadFrame@CFrameWnd@@UAEHIKPAVCWnd@@PAUCCreateContext@@@Z @ 5361 NONAME
 ?LoadFrame@CMDIChildWnd@@UAEHIKPAVCWnd@@PAUCCreateContext@@@Z @ 5362 NONAME
 ?LoadFrame@CMDIFrameWnd@@UAEHIKPAVCWnd@@PAUCCreateContext@@@Z @ 5363 NONAME
 ?LoadFrame@COleIPFrameWnd@@UAEHIKPAVCWnd@@PAUCCreateContext@@@Z @ 5364 NONAME
 ?LoadFromResource@CDHtmlDialog@@QAEHI@Z @ 5365 NONAME
 ?LoadFromResource@CDHtmlDialog@@QAEHPBG@Z @ 5366 NONAME
 ?LoadFromResource@CHtmlView@@QAEHI@Z @ 5367 NONAME
 ?LoadFromResource@CHtmlView@@QAEHPBG@Z @ 5368 NONAME
 ?LoadFromStorage@COleDocument@@MAEXXZ @ 5369 NONAME
 ?LoadIconW@CWinApp@@QBEPAUHICON__@@I@Z @ 5370 NONAME
 ?LoadIconW@CWinApp@@QBEPAUHICON__@@PBG@Z @ 5371 NONAME
 ?LoadImages@CToolBarCtrl@@QAEXHPAUHINSTANCE__@@@Z @ 5372 NONAME
 ?LoadMappedBitmap@CBitmap@@QAEHIIPAU_COLORMAP@@H@Z @ 5373 NONAME
 ?LoadMenuIndirectW@CMenu@@QAEHPBX@Z @ 5374 NONAME
 ?LoadMenuW@CMenu@@QAEHI@Z @ 5375 NONAME
 ?LoadMenuW@CMenu@@QAEHPBG@Z @ 5376 NONAME
 ?LoadOEMBitmap@CBitmap@@QAEHI@Z @ 5377 NONAME
 ?LoadOEMCursor@CWinApp@@QBEPAUHICON__@@I@Z @ 5378 NONAME
 ?LoadOEMIcon@CWinApp@@QBEPAUHICON__@@I@Z @ 5379 NONAME
 ?LoadStandardCursor@CWinApp@@QBEPAUHICON__@@PBG@Z @ 5380 NONAME
 ?LoadStandardIcon@CWinApp@@QBEPAUHICON__@@PBG@Z @ 5381 NONAME
 ?LoadState@CControlBarInfo@@QAEHPBGHPAVCDockState@@@Z @ 5382 NONAME
 ?LoadState@CDockState@@QAEXPBG@Z @ 5383 NONAME
 ?LoadState@COleControl@@IAEJPAUIStream@@@Z @ 5384 NONAME
 ?LoadStdProfileSettings@CWinApp@@IAEXI@Z @ 5385 NONAME
 ?LoadTemplate@CDocTemplate@@UAEXXZ @ 5386 NONAME
 ?LoadTemplate@CMultiDocTemplate@@UAEXXZ @ 5387 NONAME
 ?LoadToolBar@CToolBar@@QAEHI@Z @ 5388 NONAME
 ?LoadToolBar@CToolBar@@QAEHPBG@Z @ 5389 NONAME
 ?Lock@CCriticalSection@@QAEHXZ @ 5390 NONAME
 ?Lock@CCriticalSection@@UAEHK@Z @ 5391 NONAME
 ?Lock@CMultiLock@@QAEKKHK@Z @ 5392 NONAME
 ?Lock@COleSafeArray@@QAEXXZ @ 5393 NONAME
 ?Lock@CSingleLock@@QAEHK@Z @ 5394 NONAME
 ?Lock@CSyncObject@@UAEHK@Z @ 5395 NONAME
 ?Lock@CTypeLibCache@@QAEXXZ @ 5396 NONAME
 ?LockBuffer@CEditView@@QBEPBGXZ @ 5397 NONAME
 ?LockContainer@XOleContainer@COleControlContainer@@UAGJH@Z @ 5398 NONAME
 ?LockContainer@XOleItemContainer@COleLinkingDoc@@UAGJH@Z @ 5399 NONAME
 ?LockExternal@COleLinkingDoc@@IAEXHH@Z @ 5400 NONAME
 ?LockInPlaceActive@COleControl@@QAEHH@Z @ 5401 NONAME
 ?LockInPlaceActive@XOleControlSite@COleControlSite@@UAGJH@Z @ 5402 NONAME
 ?LockRange@CFile@@UAEX_K0@Z @ 5403 NONAME
 ?LockRange@CInternetFile@@UAEX_K0@Z @ 5404 NONAME
 ?LockRange@CMemFile@@UAEX_K0@Z @ 5405 NONAME
 ?LockRange@COleStreamFile@@UAEX_K0@Z @ 5406 NONAME
 ?LockRange@CSocketFile@@UAEX_K0@Z @ 5407 NONAME
 ?LockRange@CStdioFile@@UAEX_K0@Z @ 5408 NONAME
 ?LockRegion@CArchiveStream@@UAGJT_ULARGE_INTEGER@@0K@Z @ 5409 NONAME
 ?LockServer@XClassFactory@COleObjectFactory@@UAGJH@Z @ 5410 NONAME
 ?LockWindowUpdate@CWnd@@QAEHXZ @ 5411 NONAME
 ?Lookup@CMapPtrToPtr@@QBEHPAXAAPAX@Z @ 5412 NONAME
 ?Lookup@CMapPtrToWord@@QBEHPAXAAG@Z @ 5413 NONAME
 ?Lookup@CMapStringToOb@@QBEHPBGAAPAVCObject@@@Z @ 5414 NONAME
 ?Lookup@CMapStringToPtr@@QBEHPBGAAPAX@Z @ 5415 NONAME
 ?Lookup@CMapStringToString@@QBEHPBGAAV?$CStringT@GV?$StrTraitMFC@GV?$ChTraitsCRT@G@@@@@@@Z @ 5416 NONAME
 ?Lookup@CMapWordToOb@@QBEHGAAPAVCObject@@@Z @ 5417 NONAME
 ?Lookup@CMapWordToPtr@@QBEHGAAPAX@Z @ 5418 NONAME
 ?Lookup@COleDataSource@@IBEPAUAFX_DATACACHE_ENTRY@@PAUtagFORMATETC@@W4tagDATADIR@@@Z @ 5419 NONAME
 ?Lookup@CTypeLibCache@@QAEHKPAPAUITypeLib@@@Z @ 5420 NONAME
 ?LookupHandle@CAsyncSocket@@SGPAV1@IH@Z @ 5421 NONAME
 ?LookupItem@CRichEditDoc@@QBEPAVCRichEditCntrItem@@PAUIOleObject@@@Z @ 5422 NONAME
 ?LookupKey@CMapStringToOb@@QBEHPBGAAPBG@Z @ 5423 NONAME
 ?LookupKey@CMapStringToPtr@@QBEHPBGAAPBG@Z @ 5424 NONAME
 ?LookupKey@CMapStringToString@@QBEHPBGAAPBG@Z @ 5425 NONAME
 ?LookupTypeInfo@CTypeLibCache@@QAEHKABU_GUID@@PAPAUITypeInfo@@@Z @ 5426 NONAME
 ?LPtoDP@CDC@@QBEXPAUtagPOINT@@H@Z @ 5427 NONAME
 ?LPtoDP@CDC@@QBEXPAUtagRECT@@@Z @ 5428 NONAME
 ?LPtoDP@CDC@@QBEXPAUtagSIZE@@@Z @ 5429 NONAME
 ?LPtoHIMETRIC@CDC@@QBEXPAUtagSIZE@@@Z @ 5430 NONAME
 ?MapAccelerator@CToolBarCtrl@@QAEHGPAI@Z @ 5431 NONAME
 ?MapDialogRect@CDialog@@QBEXPAUtagRECT@@@Z @ 5432 NONAME
 ?MapDialogRect@CPropertySheet@@QBEXPAUtagRECT@@@Z @ 5433 NONAME
 ?MapObject@CArchive@@QAEXPBVCObject@@@Z @ 5434 NONAME
 ?MapPropertyToPage@XPerPropertyBrowsing@COleControl@@UAGJJPAU_GUID@@@Z @ 5435 NONAME
 ?MapResult@COleDialog@@QAEHI@Z @ 5436 NONAME
 ?MapWindowPoints@CWnd@@QBEXPAV1@PAUtagPOINT@@I@Z @ 5437 NONAME
 ?MapWindowPoints@CWnd@@QBEXPAV1@PAUtagRECT@@@Z @ 5438 NONAME
 ?MapWizardResult@CPropertyPage@@IAEJJ@Z @ 5439 NONAME
 ?Mark@CRichEditCntrItem@@QAEXH@Z @ 5440 NONAME
 ?MarkButton@CToolBarCtrl@@QAEHHH@Z @ 5441 NONAME
 ?MarkForAddNew@CRecordset@@QAEXXZ @ 5442 NONAME
 ?MarkForUpdate@CRecordset@@QAEXXZ @ 5443 NONAME
 ?MarkItemsClear@CRichEditDoc@@IBEXXZ @ 5444 NONAME
 ?MaskBlt@CDC@@QAEHHHHHPAV1@HHAAVCBitmap@@HHK@Z @ 5445 NONAME
 ?MatchCase@CFindReplaceDialog@@QBEHXZ @ 5446 NONAME
 ?MatchDocType@CDocTemplate@@UAE?AW4Confidence@1@PBGAAPAVCDocument@@@Z @ 5447 NONAME
 ?MatchesMask@CFileFind@@UBEHK@Z @ 5448 NONAME
 ?MatchWholeWord@CFindReplaceDialog@@QBEHXZ @ 5449 NONAME
 ?MaximizeBand@CReBarCtrl@@QAEXI@Z @ 5450 NONAME
 ?MDIActivate@CMDIChildWnd@@QAEXXZ @ 5451 NONAME
 ?MDIActivate@CMDIFrameWnd@@QAEXPAVCWnd@@@Z @ 5452 NONAME
 ?MDICascade@CMDIFrameWnd@@QAEXH@Z @ 5453 NONAME
 ?MDICascade@CMDIFrameWnd@@QAEXXZ @ 5454 NONAME
 ?MDIDestroy@CMDIChildWnd@@QAEXXZ @ 5455 NONAME
 ?MDIGetActive@CMDIFrameWnd@@QBEPAVCMDIChildWnd@@PAH@Z @ 5456 NONAME
 ?MDIIconArrange@CMDIFrameWnd@@QAEXXZ @ 5457 NONAME
 ?MDIMaximize@CMDIChildWnd@@QAEXXZ @ 5458 NONAME
 ?MDIMaximize@CMDIFrameWnd@@QAEXPAVCWnd@@@Z @ 5459 NONAME
 ?MDINext@CMDIFrameWnd@@QAEXXZ @ 5460 NONAME
 ?MDIPrev@CMDIFrameWnd@@QAEXXZ @ 5461 NONAME
 ?MDIRestore@CMDIChildWnd@@QAEXXZ @ 5462 NONAME
 ?MDIRestore@CMDIFrameWnd@@QAEXPAVCWnd@@@Z @ 5463 NONAME
 ?MDISetMenu@CMDIFrameWnd@@QAEPAVCMenu@@PAV2@0@Z @ 5464 NONAME
 ?MDITile@CMDIFrameWnd@@QAEXH@Z @ 5465 NONAME
 ?MDITile@CMDIFrameWnd@@QAEXXZ @ 5466 NONAME
 ?MeasureItem@CCheckListBox@@UAEXPAUtagMEASUREITEMSTRUCT@@@Z @ 5467 NONAME
 ?MeasureItem@CChevronOwnerDrawMenu@@UAEXPAUtagMEASUREITEMSTRUCT@@@Z @ 5468 NONAME
 ?MeasureItem@CComboBox@@UAEXPAUtagMEASUREITEMSTRUCT@@@Z @ 5469 NONAME
 ?MeasureItem@CListBox@@UAEXPAUtagMEASUREITEMSTRUCT@@@Z @ 5470 NONAME
 ?MeasureItem@CMenu@@UAEXPAUtagMEASUREITEMSTRUCT@@@Z @ 5471 NONAME
 ?MemberIDFromName@CCmdTarget@@KGJPBUAFX_DISPMAP@@PBG@Z @ 5472 NONAME
 ?Memcpy@CMemFile@@MAEPAEPAEPBEK@Z @ 5473 NONAME
 ?MessageBoxW@COlePropertyPage@@QAEHPBG0I@Z @ 5474 NONAME
 ?MessageBoxW@CWnd@@QAEHPBG0I@Z @ 5475 NONAME
 ?MessagePending@XMessageFilter@COleMessageFilter@@UAGKPAUHTASK__@@KK@Z @ 5476 NONAME
 ?MinimizeBand@CReBarCtrl@@QAEXI@Z @ 5477 NONAME
 ?MirrorAttributes@CPreviewDC@@IAEXXZ @ 5478 NONAME
 ?MirrorFont@CPreviewDC@@IAEXXZ @ 5479 NONAME
 ?MirrorMappingMode@CPreviewDC@@IAEXH@Z @ 5480 NONAME
 ?MirrorViewportOrg@CPreviewDC@@IAEXXZ @ 5481 NONAME
 ?ModifyMenuW@CMenu@@QAEHIIIPBG@Z @ 5482 NONAME
 ?ModifyMenuW@CMenu@@QAEHIIIPBVCBitmap@@@Z @ 5483 NONAME
 ?ModifyStyle@COleControlSite@@UAEHKKI@Z @ 5484 NONAME
 ?ModifyStyle@CWnd@@QAEHKKI@Z @ 5485 NONAME
 ?ModifyStyle@CWnd@@SGHPAUHWND__@@KKI@Z @ 5486 NONAME
 ?ModifyStyleEx@COleControlSite@@UAEHKKI@Z @ 5487 NONAME
 ?ModifyStyleEx@CWnd@@QAEHKKI@Z @ 5488 NONAME
 ?ModifyStyleEx@CWnd@@SGHPAUHWND__@@KKI@Z @ 5489 NONAME
 ?Move@CDockContext@@QAEXVCPoint@@@Z @ 5490 NONAME
 ?Move@CRecordset@@UAEXJG@Z @ 5491 NONAME
 ?Move@XPropertyPage@COlePropertyPage@@UAGJPBUtagRECT@@@Z @ 5492 NONAME
 ?MoveBand@CReBarCtrl@@QAEHII@Z @ 5493 NONAME
 ?MoveButton@CToolBarCtrl@@QAEHII@Z @ 5494 NONAME
 ?MoveFirst@CRecordset@@QAEXXZ @ 5495 NONAME
 ?MoveLast@CRecordset@@QAEXXZ @ 5496 NONAME
 ?MoveNext@CRecordset@@QAEXXZ @ 5497 NONAME
 ?MovePrev@CRecordset@@QAEXXZ @ 5498 NONAME
 ?MoveTo@CDC@@QAE?AVCPoint@@HH@Z @ 5499 NONAME
 ?MoveTo@CDC@@QAE?AVCPoint@@UtagPOINT@@@Z @ 5500 NONAME
 ?MoveWindow@COleControlSite@@UAEXHHHH@Z @ 5501 NONAME
 ?MoveWindow@CWnd@@QAEXHHHHH@Z @ 5502 NONAME
 ?MoveWindow@CWnd@@QAEXPBUtagRECT@@H@Z @ 5503 NONAME
 ?Navigate@CDHtmlDialog@@QAEXPBGK00PAXK@Z @ 5504 NONAME
 ?Navigate@CHtmlView@@QAEXPBGK00PAXK@Z @ 5505 NONAME
 ?Navigate2@CHtmlView@@QAEXPAU_ITEMIDLIST@@KPBG@Z @ 5506 NONAME
 ?Navigate2@CHtmlView@@QAEXPBGK00PAXK@Z @ 5507 NONAME
 ?Navigate2@CHtmlView@@QAEXPBGKAAVCByteArray@@00@Z @ 5508 NONAME
 ?NavigateComplete2@CHtmlView@@MAEXPAUIDispatch@@PAUtagVARIANT@@@Z @ 5509 NONAME
 ?nDragDelay@COleDropSource@@1IA @ 5510 NONAME DATA
 ?nDragMinDist@COleDropSource@@1IA @ 5511 NONAME DATA
 ?NegotiateBorderSpace@CFrameWnd@@UAEHIPAUtagRECT@@@Z @ 5512 NONAME
 ?NewAssoc@CMapPtrToPtr@@IAEPAUCAssoc@1@XZ @ 5513 NONAME
 ?NewAssoc@CMapPtrToWord@@IAEPAUCAssoc@1@XZ @ 5514 NONAME
 ?NewAssoc@CMapStringToOb@@IAEPAUCAssoc@1@XZ @ 5515 NONAME
 ?NewAssoc@CMapStringToPtr@@IAEPAUCAssoc@1@XZ @ 5516 NONAME
 ?NewAssoc@CMapStringToString@@IAEPAVCAssoc@1@PBG@Z @ 5517 NONAME
 ?NewAssoc@CMapWordToOb@@IAEPAUCAssoc@1@XZ @ 5518 NONAME
 ?NewAssoc@CMapWordToPtr@@IAEPAUCAssoc@1@XZ @ 5519 NONAME
 ?NewNode@CObList@@IAEPAUCNode@1@PAU21@0@Z @ 5520 NONAME
 ?NewNode@CPtrList@@IAEPAUCNode@1@PAU21@0@Z @ 5521 NONAME
 ?NewNode@CStringList@@IAEPAUCNode@1@PAU21@0@Z @ 5522 NONAME
 ?Next@XEnumVOID@CEnumArray@@UAGJKPAXPAK@Z @ 5523 NONAME
 ?NextDlgCtrl@CDialog@@QBEXXZ @ 5524 NONAME
 ?nMaxSize@CEditView@@2IB @ 5525 NONAME DATA
 ?NormalizeHit@CRectTracker@@QBEHH@Z @ 5526 NONAME
 ?Notify@CDataBoundProperty@@QAEXXZ @ 5527 NONAME
 ?NotifyAllInPlace@COleFrameHook@@QAEHHP81@AEHH@Z@Z @ 5528 NONAME
 ?NotifyAllItems@COleServerDoc@@IAEXW4OLE_NOTIFICATION@@K@Z @ 5529 NONAME
 ?NotifyChanged@COleServerDoc@@QAEXXZ @ 5530 NONAME
 ?NotifyChanged@COleServerItem@@QAEXW4tagDVASPECT@@@Z @ 5531 NONAME
 ?NotifyClient@COleServerItem@@QAEXW4OLE_NOTIFICATION@@K@Z @ 5532 NONAME
 ?NotifyClosed@COleServerDoc@@QAEXXZ @ 5533 NONAME
 ?NotifyFloatingWindows@CFrameWnd@@QAEXK@Z @ 5534 NONAME
 ?NotifyRename@COleServerDoc@@QAEXPBG@Z @ 5535 NONAME
 ?NotifySaved@COleServerDoc@@QAEXXZ @ 5536 NONAME
 ?NotifyWinEvent@CWnd@@QAEXKJJ@Z @ 5537 NONAME
 ?nScrollDelay@COleDropTarget@@1IA @ 5538 NONAME DATA
 ?nScrollInset@COleDropTarget@@1HA @ 5539 NONAME DATA
 ?nScrollInterval@COleDropTarget@@1IA @ 5540 NONAME DATA
 ?OffsetClipRgn@CDC@@QAEHHH@Z @ 5541 NONAME
 ?OffsetClipRgn@CDC@@QAEHUtagSIZE@@@Z @ 5542 NONAME
 ?OffsetPos@CProgressCtrl@@QAEHH@Z @ 5543 NONAME
 ?OffsetRgn@CRgn@@QAEHHH@Z @ 5544 NONAME
 ?OffsetRgn@CRgn@@QAEHUtagPOINT@@@Z @ 5545 NONAME
 ?OffsetViewportOrg@CDC@@UAE?AVCPoint@@HH@Z @ 5546 NONAME
 ?OffsetViewportOrg@CMetaFileDC@@UAE?AVCPoint@@HH@Z @ 5547 NONAME
 ?OffsetViewportOrg@CPreviewDC@@UAE?AVCPoint@@HH@Z @ 5548 NONAME
 ?OffsetWindowOrg@CDC@@QAE?AVCPoint@@HH@Z @ 5549 NONAME
 ?OKToDo@XNotifyDBEvents@COleControlSite@@UAGJKKQAUtagDBNOTIFYREASON@@@Z @ 5550 NONAME
 ?OnAccept@CAsyncSocket@@MAEXH@Z @ 5551 NONAME
 ?OnActivate@CControlFrameWnd@@IAEXIPAVCWnd@@H@Z @ 5552 NONAME
 ?OnActivate@CFrameWnd@@IAEXIPAVCWnd@@H@Z @ 5553 NONAME
 ?OnActivate@COleClientItem@@UAEXXZ @ 5554 NONAME
 ?OnActivate@COleFrameHook@@UAEXH@Z @ 5555 NONAME
 ?OnActivate@CWnd@@IAEXIPAV1@H@Z @ 5556 NONAME
 ?OnActivateApp@CWnd@@IAEXHK@Z @ 5557 NONAME
 ?OnActivateFrame@CFormView@@MAEXIPAVCFrameWnd@@@Z @ 5558 NONAME
 ?OnActivateFrame@CView@@MAEXIPAVCFrameWnd@@@Z @ 5559 NONAME
 ?OnActivateInPlace@COleControl@@MAEJHPAUtagMSG@@@Z @ 5560 NONAME
 ?OnActivateTopLevel@CFrameWnd@@IAEJIJ@Z @ 5561 NONAME
 ?OnActivateTopLevel@CWnd@@IAEJIJ@Z @ 5562 NONAME
 ?OnActivateUI@COleClientItem@@UAEXXZ @ 5563 NONAME
 ?OnActivateView@CDocObjectServer@@MAEJXZ @ 5564 NONAME
 ?OnActivateView@CFormView@@MAEXHPAVCView@@0@Z @ 5565 NONAME
 ?OnActivateView@CPreviewView@@MAEXHPAVCView@@0@Z @ 5566 NONAME
 ?OnActivateView@CRichEditView@@MAEXHPAVCView@@0@Z @ 5567 NONAME
 ?OnActivateView@CView@@MAEXHPAV1@0@Z @ 5568 NONAME
 ?OnAddTool@CToolTipCtrl@@IAEJIJ@Z @ 5569 NONAME
 ?OnAdvise@CConnectionPoint@@UAEXH@Z @ 5570 NONAME
 ?OnAdvise@XEventConnPt@COleControl@@UAEXH@Z @ 5571 NONAME
 ?OnAmbientProperty@CWnd@@UAEHPAVCOleControlSite@@JPAUtagVARIANT@@@Z @ 5572 NONAME
 ?OnAmbientPropertyChange@COleControl@@UAEXJ@Z @ 5573 NONAME
 ?OnAmbientPropertyChange@XOleControl@COleControl@@UAGJJ@Z @ 5574 NONAME
 ?OnAppearanceChanged@COleControl@@UAEXXZ @ 5575 NONAME
 ?OnAppExit@CWinApp@@IAEXXZ @ 5576 NONAME
 ?OnApply@CPropertyPage@@UAEHXZ @ 5577 NONAME
 ?OnApplyScale@COlePropertiesDialog@@UAEHPAVCOleClientItem@@HH@Z @ 5578 NONAME
 ?OnApplyViewState@CDocObjectServer@@MAEXAAVCArchive@@@Z @ 5579 NONAME
 ?OnAskCbFormatName@CWnd@@IAEXIPAG@Z @ 5580 NONAME
 ?OnBackColorChanged@COleControl@@UAEXXZ @ 5581 NONAME
 ?OnBarCheck@CFrameWnd@@QAEHI@Z @ 5582 NONAME
 ?OnBarCheck@COleIPFrameWnd@@IAEHI@Z @ 5583 NONAME
 ?OnBarStyleChange@CControlBar@@UAEXKK@Z @ 5584 NONAME
 ?OnBarStyleChange@CStatusBar@@UAEXKK@Z @ 5585 NONAME
 ?OnBarStyleChange@CToolBar@@UAEXKK@Z @ 5586 NONAME
 ?OnBeforeNavigate@CDHtmlDialog@@UAEXPAUIDispatch@@PBG@Z @ 5587 NONAME
 ?OnBeforeNavigate2@CHtmlView@@UAEXPBGK0AAVCByteArray@@0PAH@Z @ 5588 NONAME
 ?OnBeginDrag@COleDropSource@@UAEHPAVCWnd@@@Z @ 5589 NONAME
 ?OnBeginPrinting@CEditView@@MAEXPAVCDC@@PAUCPrintInfo@@@Z @ 5590 NONAME
 ?OnBeginPrinting@CRichEditView@@MAEXPAVCDC@@PAUCPrintInfo@@@Z @ 5591 NONAME
 ?OnBeginPrinting@CView@@MAEXPAVCDC@@PAUCPrintInfo@@@Z @ 5592 NONAME
 ?OnBlur@CHtmlEditView@@UAEXXZ @ 5593 NONAME
 ?OnBorderStyleChanged@COleControl@@UAEXXZ @ 5594 NONAME
 ?OnBullet@CRichEditView@@IAEXXZ @ 5595 NONAME
 ?OnBusyDialog@COleMessageFilter@@UAEHPAUHTASK__@@@Z @ 5596 NONAME
 ?OnButtonDblClk@COleControl@@IAEXGIVCPoint@@@Z @ 5597 NONAME
 ?OnButtonDown@COleControl@@IAEXGIVCPoint@@@Z @ 5598 NONAME
 ?OnButtonUp@COleControl@@IAEXGIVCPoint@@@Z @ 5599 NONAME
 ?OnCancel@CCommonDialog@@MAEXXZ @ 5600 NONAME
 ?OnCancel@CDialog@@MAEXXZ @ 5601 NONAME
 ?OnCancel@CPropertyPage@@UAEXXZ @ 5602 NONAME
 ?OnCancelEditCntr@CRichEditView@@IAEXXZ @ 5603 NONAME
 ?OnCancelMode@COleControl@@IAEXXZ @ 5604 NONAME
 ?OnCancelMode@CSplitterWnd@@IAEXXZ @ 5605 NONAME
 ?OnCancelMode@CWnd@@IAEXXZ @ 5606 NONAME
 ?OnCaptureChanged@CWnd@@IAEXPAV1@@Z @ 5607 NONAME
 ?OnChange@COleClientItem@@UAEXW4OLE_NOTIFICATION@@K@Z @ 5608 NONAME
 ?OnChangeCbChain@CWnd@@IAEXPAUHWND__@@0@Z @ 5609 NONAME
 ?OnChanged@XFontNotification@COleControl@@UAGJJ@Z @ 5610 NONAME
 ?OnChanged@XPropertyNotifySink@COleControlSite@@UAGJJ@Z @ 5611 NONAME
 ?OnChanged@XPropNotifySink@COlePropertyPage@@UAGJJ@Z @ 5612 NONAME
 ?OnChangedRect@CRectTracker@@UAEXABVCRect@@@Z @ 5613 NONAME
 ?OnChangedViewList@CDocument@@UAEXXZ @ 5614 NONAME
 ?OnChangeItemPosition@COleClientItem@@MAEHABVCRect@@@Z @ 5615 NONAME
 ?OnChangeItemPosition@CRichEditCntrItem@@MAEHABVCRect@@@Z @ 5616 NONAME
 ?OnChangeUIState@CWnd@@IAEXII@Z @ 5617 NONAME
 ?OnChar@COleControl@@IAEXIII@Z @ 5618 NONAME
 ?OnChar@CWnd@@IAEXIII@Z @ 5619 NONAME
 ?OnCharBold@CRichEditView@@IAEXXZ @ 5620 NONAME
 ?OnCharEffect@CRichEditView@@QAEXKK@Z @ 5621 NONAME
 ?OnCharItalic@CRichEditView@@IAEXXZ @ 5622 NONAME
 ?OnCharToItem@CWnd@@IAEHIPAVCListBox@@I@Z @ 5623 NONAME
 ?OnCharUnderline@CRichEditView@@IAEXXZ @ 5624 NONAME
 ?OnChevronPushed@CFrameWnd@@IAEHIPAUtagNMHDR@@PAJ@Z @ 5625 NONAME
 ?OnChildActivate@CWnd@@IAEXXZ @ 5626 NONAME
 ?OnChildNotify@CButton@@MAEHIIJPAJ@Z @ 5627 NONAME
 ?OnChildNotify@CCheckListBox@@MAEHIIJPAJ@Z @ 5628 NONAME
 ?OnChildNotify@CComboBox@@MAEHIIJPAJ@Z @ 5629 NONAME
 ?OnChildNotify@CDragListBox@@MAEHIIJPAJ@Z @ 5630 NONAME
 ?OnChildNotify@CHeaderCtrl@@MAEHIIJPAJ@Z @ 5631 NONAME
 ?OnChildNotify@CListBox@@MAEHIIJPAJ@Z @ 5632 NONAME
 ?OnChildNotify@CListCtrl@@MAEHIIJPAJ@Z @ 5633 NONAME
 ?OnChildNotify@CListView@@MAEHIIJPAJ@Z @ 5634 NONAME
 ?OnChildNotify@CStatic@@MAEHIIJPAJ@Z @ 5635 NONAME
 ?OnChildNotify@CStatusBar@@MAEHIIJPAJ@Z @ 5636 NONAME
 ?OnChildNotify@CStatusBarCtrl@@MAEHIIJPAJ@Z @ 5637 NONAME
 ?OnChildNotify@CTabCtrl@@MAEHIIJPAJ@Z @ 5638 NONAME
 ?OnChildNotify@CWnd@@MAEHIIJPAJ@Z @ 5639 NONAME
 ?OnClick@CHtmlEditView@@UAEXXZ @ 5640 NONAME
 ?OnClick@COleControl@@UAEXG@Z @ 5641 NONAME
 ?OnClone@CEnumArray@@MAEPAV1@XZ @ 5642 NONAME
 ?OnClone@CEnumConnections@@MAEPAVCEnumArray@@XZ @ 5643 NONAME
 ?OnClose@CAsyncSocket@@MAEXH@Z @ 5644 NONAME
 ?OnClose@CControlFrameWnd@@IAEXXZ @ 5645 NONAME
 ?OnClose@CFrameWnd@@IAEXXZ @ 5646 NONAME
 ?OnClose@CMiniDockFrameWnd@@QAEXXZ @ 5647 NONAME
 ?OnClose@COleControl@@UAEXK@Z @ 5648 NONAME
 ?OnClose@COleServerDoc@@MAEXW4tagOLECLOSE@@@Z @ 5649 NONAME
 ?OnClose@CPropertySheet@@IAEXXZ @ 5650 NONAME
 ?OnClose@CWnd@@IAEXXZ @ 5651 NONAME
 ?OnClose@XAdviseSink@COleClientItem@@UAGXXZ @ 5652 NONAME
 ?OnCloseDocument@CDocObjectServer@@UAEXXZ @ 5653 NONAME
 ?OnCloseDocument@CDocument@@UAEXXZ @ 5654 NONAME
 ?OnCloseDocument@COleDocument@@UAEXXZ @ 5655 NONAME
 ?OnCloseDocument@COleLinkingDoc@@UAEXXZ @ 5656 NONAME
 ?OnCloseDocument@COleServerDoc@@UAEXXZ @ 5657 NONAME
 ?OnCmdMsg@CCmdTarget@@UAEHIHPAXPAUAFX_CMDHANDLERINFO@@@Z @ 5658 NONAME
 ?OnCmdMsg@CDialog@@UAEHIHPAXPAUAFX_CMDHANDLERINFO@@@Z @ 5659 NONAME
 ?OnCmdMsg@CDocTemplate@@UAEHIHPAXPAUAFX_CMDHANDLERINFO@@@Z @ 5660 NONAME
 ?OnCmdMsg@CDocument@@UAEHIHPAXPAUAFX_CMDHANDLERINFO@@@Z @ 5661 NONAME
 ?OnCmdMsg@CFrameWnd@@UAEHIHPAXPAUAFX_CMDHANDLERINFO@@@Z @ 5662 NONAME
 ?OnCmdMsg@CMDIFrameWnd@@UAEHIHPAXPAUAFX_CMDHANDLERINFO@@@Z @ 5663 NONAME
 ?OnCmdMsg@COleCntrFrameWnd@@UAEHIHPAXPAUAFX_CMDHANDLERINFO@@@Z @ 5664 NONAME
 ?OnCmdMsg@COleDocObjectItem@@MAEHIHPAXPAUAFX_CMDHANDLERINFO@@@Z @ 5665 NONAME
 ?OnCmdMsg@COleDocument@@UAEHIHPAXPAUAFX_CMDHANDLERINFO@@@Z @ 5666 NONAME
 ?OnCmdMsg@COleTemplateServer@@MAEHIHPAXPAUAFX_CMDHANDLERINFO@@@Z @ 5667 NONAME
 ?OnCmdMsg@CPropertySheet@@UAEHIHPAXPAUAFX_CMDHANDLERINFO@@@Z @ 5668 NONAME
 ?OnCmdMsg@CView@@UAEHIHPAXPAUAFX_CMDHANDLERINFO@@@Z @ 5669 NONAME
 ?OnColorDefault@CRichEditView@@IAEXXZ @ 5670 NONAME
 ?OnColorOK@CColorDialog@@MAEHXZ @ 5671 NONAME
 ?OnColorPick@CRichEditView@@IAEXK@Z @ 5672 NONAME
 ?OnCommand@CFrameWnd@@MAEHIJ@Z @ 5673 NONAME
 ?OnCommand@CMDIFrameWnd@@MAEHIJ@Z @ 5674 NONAME
 ?OnCommand@COlePropertyPage@@MAEHIJ@Z @ 5675 NONAME
 ?OnCommand@CPropertySheet@@UAEHIJ@Z @ 5676 NONAME
 ?OnCommand@CSplitterWnd@@MAEHIJ@Z @ 5677 NONAME
 ?OnCommand@CWnd@@MAEHIJ@Z @ 5678 NONAME
 ?OnCommandHelp@CDialog@@IAEJIJ@Z @ 5679 NONAME
 ?OnCommandHelp@CFrameWnd@@IAEJIJ@Z @ 5680 NONAME
 ?OnCommandHelp@CMDIFrameWnd@@IAEJIJ@Z @ 5681 NONAME
 ?OnCommandHelp@CPropertySheet@@IAEJIJ@Z @ 5682 NONAME
 ?OnCommandStateChange@CHtmlView@@UAEXJH@Z @ 5683 NONAME
 ?OnCompacting@CWnd@@IAEXI@Z @ 5684 NONAME
 ?OnCompareItem@CWnd@@IAEHHPAUtagCOMPAREITEMSTRUCT@@@Z @ 5685 NONAME
 ?OnConnect@CAsyncSocket@@MAEXH@Z @ 5686 NONAME
 ?OnContextHelp@CFrameWnd@@QAEXXZ @ 5687 NONAME
 ?OnContextHelp@COleFrameHook@@UAEHH@Z @ 5688 NONAME
 ?OnContextHelp@COleIPFrameWnd@@IAEXXZ @ 5689 NONAME
 ?OnContextHelp@CWinApp@@IAEXXZ @ 5690 NONAME
 ?OnContextMenu@CWnd@@IAEXPAV1@VCPoint@@@Z @ 5691 NONAME
 ?OnContextMenuAction@CHtmlEditView@@UAEXJ@Z @ 5692 NONAME
 ?OnControlInfoChanged@XOleControlSite@COleControlSite@@UAGJXZ @ 5693 NONAME
 ?OnCopy@CHtmlEditView@@QAEXXZ @ 5694 NONAME
 ?OnCopyData@CWnd@@IAEHPAV1@PAUtagCOPYDATASTRUCT@@@Z @ 5695 NONAME
 ?OnCreate@CCheckListBox@@IAEHPAUtagCREATESTRUCTW@@@Z @ 5696 NONAME
 ?OnCreate@CControlBar@@QAEHPAUtagCREATESTRUCTW@@@Z @ 5697 NONAME
 ?OnCreate@CEditView@@IAEHPAUtagCREATESTRUCTW@@@Z @ 5698 NONAME
 ?OnCreate@CFormView@@IAEHPAUtagCREATESTRUCTW@@@Z @ 5699 NONAME
 ?OnCreate@CFrameWnd@@IAEHPAUtagCREATESTRUCTW@@@Z @ 5700 NONAME
 ?OnCreate@CMDIChildWnd@@IAEHPAUtagCREATESTRUCTW@@@Z @ 5701 NONAME
 ?OnCreate@COleControl@@IAEHPAUtagCREATESTRUCTW@@@Z @ 5702 NONAME
 ?OnCreate@COleIPFrameWnd@@IAEHPAUtagCREATESTRUCTW@@@Z @ 5703 NONAME
 ?OnCreate@CPreviewView@@IAEHPAUtagCREATESTRUCTW@@@Z @ 5704 NONAME
 ?OnCreate@CRichEditView@@IAEHPAUtagCREATESTRUCTW@@@Z @ 5705 NONAME
 ?OnCreate@CToolBarCtrl@@IAEHPAUtagCREATESTRUCTW@@@Z @ 5706 NONAME
 ?OnCreate@CView@@IAEHPAUtagCREATESTRUCTW@@@Z @ 5707 NONAME
 ?OnCreate@CWnd@@IAEHPAUtagCREATESTRUCTW@@@Z @ 5708 NONAME
 ?OnCreateAggregates@CCmdTarget@@UAEHXZ @ 5709 NONAME
 ?OnCreateAggregates@COleControl@@MAEHXZ @ 5710 NONAME
 ?OnCreateClient@CFrameWnd@@MAEHPAUtagCREATESTRUCTW@@PAUCCreateContext@@@Z @ 5711 NONAME
 ?OnCreateClient@CMDIFrameWnd@@UAEHPAUtagCREATESTRUCTW@@PAUCCreateContext@@@Z @ 5712 NONAME
 ?OnCreateControlBars@COleIPFrameWnd@@UAEHPAVCFrameWnd@@0@Z @ 5713 NONAME
 ?OnCreateControlBars@COleIPFrameWnd@@UAEHPAVCWnd@@0@Z @ 5714 NONAME
 ?OnCreateHelper@CFrameWnd@@IAEHPAUtagCREATESTRUCTW@@PAUCCreateContext@@@Z @ 5715 NONAME
 ?OnCreateObject@COleObjectFactory@@MAEPAVCCmdTarget@@XZ @ 5716 NONAME
 ?OnCreateObject@COleTemplateServer@@MAEPAVCCmdTarget@@XZ @ 5717 NONAME
 ?OnCtlColor@CControlBar@@QAEPAUHBRUSH__@@PAVCDC@@PAVCWnd@@I@Z @ 5718 NONAME
 ?OnCtlColor@COlePropertyPage@@IAEPAUHBRUSH__@@PAVCDC@@PAVCWnd@@I@Z @ 5719 NONAME
 ?OnCtlColor@CPropertyPage@@IAEPAUHBRUSH__@@PAVCDC@@PAVCWnd@@I@Z @ 5720 NONAME
 ?OnCtlColor@CPropertySheet@@IAEPAUHBRUSH__@@PAVCDC@@PAVCWnd@@I@Z @ 5721 NONAME
 ?OnCtlColor@CWnd@@IAEPAUHBRUSH__@@PAVCDC@@PAV1@I@Z @ 5722 NONAME
 ?OnCut@CHtmlEditView@@QAEXXZ @ 5723 NONAME
 ?OnDataAvailable@CAsyncMonikerFile@@MAEXKK@Z @ 5724 NONAME
 ?OnDataAvailable@CCachedDataPathProperty@@UAEXKK@Z @ 5725 NONAME
 ?OnDataChange@COleClientItem@@MAEXPAUtagFORMATETC@@PAUtagSTGMEDIUM@@@Z @ 5726 NONAME
 ?OnDataChange@XAdviseSink@COleClientItem@@UAGXPAUtagFORMATETC@@PAUtagSTGMEDIUM@@@Z @ 5727 NONAME
 ?OnDblClick@CHtmlEditView@@UAEXXZ @ 5728 NONAME
 ?OnDDECommand@CDocManager@@UAEHPAG@Z @ 5729 NONAME
 ?OnDDECommand@CWinApp@@UAEHPAG@Z @ 5730 NONAME
 ?OnDDEExecute@CFrameWnd@@IAEJIJ@Z @ 5731 NONAME
 ?OnDDEInitiate@CFrameWnd@@IAEJIJ@Z @ 5732 NONAME
 ?OnDDETerminate@CFrameWnd@@IAEJIJ@Z @ 5733 NONAME
 ?OnDDXError@CDHtmlDialog@@IAEXPBGIH@Z @ 5734 NONAME
 ?OnDeactivate@COleClientItem@@UAEXXZ @ 5735 NONAME
 ?OnDeactivate@COleServerDoc@@UAEXXZ @ 5736 NONAME
 ?OnDeactivateAndUndo@COleClientItem@@MAEXXZ @ 5737 NONAME
 ?OnDeactivateUI@COleClientItem@@UAEXH@Z @ 5738 NONAME
 ?OnDeactivateUI@COleServerDoc@@UAEXH@Z @ 5739 NONAME
 ?OnDeactivateUI@CRichEditCntrItem@@UAEXH@Z @ 5740 NONAME
 ?OnDeadChar@CWnd@@IAEXIII@Z @ 5741 NONAME
 ?OnDefWindowMessage@XOleIPSite@COleControlSite@@UAGJIIJPAJ@Z @ 5742 NONAME
 ?OnDeleteItem@CWnd@@IAEXHPAUtagDELETEITEMSTRUCT@@@Z @ 5743 NONAME
 ?OnDestroy@CControlBar@@QAEXXZ @ 5744 NONAME
 ?OnDestroy@CDHtmlDialog@@IAEXXZ @ 5745 NONAME
 ?OnDestroy@CEditView@@IAEXXZ @ 5746 NONAME
 ?OnDestroy@CFrameWnd@@IAEXXZ @ 5747 NONAME
 ?OnDestroy@CHtmlView@@IAEXXZ @ 5748 NONAME
 ?OnDestroy@CMDIChildWnd@@IAEXXZ @ 5749 NONAME
 ?OnDestroy@CMDIFrameWnd@@IAEXXZ @ 5750 NONAME
 ?OnDestroy@COleControl@@IAEXXZ @ 5751 NONAME
 ?OnDestroy@COleIPFrameWnd@@IAEXXZ @ 5752 NONAME
 ?OnDestroy@CRichEditView@@IAEXXZ @ 5753 NONAME
 ?OnDestroy@CTabCtrl@@IAEXXZ @ 5754 NONAME
 ?OnDestroy@CTreeCtrl@@QAEXXZ @ 5755 NONAME
 ?OnDestroy@CTreeView@@QAEXXZ @ 5756 NONAME
 ?OnDestroy@CView@@IAEXXZ @ 5757 NONAME
 ?OnDestroy@CWnd@@IAEXXZ @ 5758 NONAME
 ?OnDestroyClipboard@CWnd@@IAEXXZ @ 5759 NONAME
 ?OnDestroyModeless@CDHtmlDialog@@IAEJIJ@Z @ 5760 NONAME
 ?OnDeviceChange@CWnd@@IAEHIK@Z @ 5761 NONAME
 ?OnDevModeChange@CRichEditView@@IAEXPAG@Z @ 5762 NONAME
 ?OnDevModeChange@CWnd@@IAEXPAG@Z @ 5763 NONAME
 ?OnDisableModal@CToolTipCtrl@@IAEJIJ@Z @ 5764 NONAME
 ?OnDiscardUndoState@COleClientItem@@MAEXXZ @ 5765 NONAME
 ?OnDisplayChange@CSplitterWnd@@IAEXXZ @ 5766 NONAME
 ?OnDisplayChange@CWnd@@IAEJIJ@Z @ 5767 NONAME
 ?OnDisplayChanged@CHtmlEditView@@UAEXXZ @ 5768 NONAME
 ?OnDisplayPageNumber@CPreviewView@@MAEXII@Z @ 5769 NONAME
 ?OnDocActivate@COleFrameHook@@UAEHH@Z @ 5770 NONAME
 ?OnDocumentComplete@CDHtmlDialog@@UAEXPAUIDispatch@@PBG@Z @ 5771 NONAME
 ?OnDocumentComplete@CHtmlEditView@@UAEXXZ @ 5772 NONAME
 ?OnDocumentComplete@CHtmlView@@UAEXPBG@Z @ 5773 NONAME
 ?OnDocumentReadyStateChange@CDHtmlDialog@@QAEJPAUIHTMLElement@@@Z @ 5774 NONAME
 ?OnDocWindowActivate@CBrowserControlSite@@MAGJH@Z @ 5775 NONAME
 ?OnDocWindowActivate@CDHtmlDialog@@UAGJH@Z @ 5776 NONAME
 ?OnDocWindowActivate@CHtmlView@@UAEJH@Z @ 5777 NONAME
 ?OnDocWindowActivate@COleServerDoc@@UAEXH@Z @ 5778 NONAME
 ?OnDocWindowActivate@XDocHostUIHandler@CHtmlControlSite@@UAGJH@Z @ 5779 NONAME
 ?OnDocWindowActivate@XOleInPlaceActiveObject@COleControl@@UAGJH@Z @ 5780 NONAME
 ?OnDocWindowActivate@XOleInPlaceActiveObject@COleServerDoc@@UAGJH@Z @ 5781 NONAME
 ?OnDoVerb@CDocObjectServerItem@@MAEXJ@Z @ 5782 NONAME
 ?OnDoVerb@COleControl@@UAEHJPAUtagMSG@@PAUHWND__@@PBUtagRECT@@@Z @ 5783 NONAME
 ?OnDoVerb@COleServerItem@@UAEXJ@Z @ 5784 NONAME
 ?OnDownloadBegin@CHtmlView@@UAEXXZ @ 5785 NONAME
 ?OnDownloadComplete@CHtmlView@@UAEXXZ @ 5786 NONAME
 ?OnDragEnter@COleDropTarget@@UAEKPAVCWnd@@PAVCOleDataObject@@KVCPoint@@@Z @ 5787 NONAME
 ?OnDragEnter@CView@@UAEKPAVCOleDataObject@@KVCPoint@@@Z @ 5788 NONAME
 ?OnDragLeave@COleDropTarget@@UAEXPAVCWnd@@@Z @ 5789 NONAME
 ?OnDragLeave@CView@@UAEXXZ @ 5790 NONAME
 ?OnDragList@CWnd@@IAEJIJ@Z @ 5791 NONAME
 ?OnDragOver@COleDropTarget@@UAEKPAVCWnd@@PAVCOleDataObject@@KVCPoint@@@Z @ 5792 NONAME
 ?OnDragOver@CView@@UAEKPAVCOleDataObject@@KVCPoint@@@Z @ 5793 NONAME
 ?OnDragScroll@COleDropTarget@@UAEKPAVCWnd@@KVCPoint@@@Z @ 5794 NONAME
 ?OnDragScroll@CView@@UAEKKVCPoint@@@Z @ 5795 NONAME
 ?OnDraw@CCtrlView@@MAEXPAVCDC@@@Z @ 5796 NONAME
 ?OnDraw@CFormView@@MAEXPAVCDC@@@Z @ 5797 NONAME
 ?OnDraw@CHtmlEditView@@MAEXPAVCDC@@@Z @ 5798 NONAME
 ?OnDraw@CHtmlView@@UAEXPAVCDC@@@Z @ 5799 NONAME
 ?OnDraw@COleControl@@UAEXPAVCDC@@ABVCRect@@1@Z @ 5800 NONAME
 ?OnDraw@CPreviewView@@MAEXPAVCDC@@@Z @ 5801 NONAME
 ?OnDraw@CView@@MAEXPAVCDC@@@Z @ 5802 NONAME
 ?OnDrawClipboard@CWnd@@IAEXXZ @ 5803 NONAME
 ?OnDrawEx@COleServerItem@@UAEHPAVCDC@@W4tagDVASPECT@@AAVCSize@@@Z @ 5804 NONAME
 ?OnDrawItem@CWnd@@IAEXHPAUtagDRAWITEMSTRUCT@@@Z @ 5805 NONAME
 ?OnDrawMetafile@COleControl@@UAEXPAVCDC@@ABVCRect@@@Z @ 5806 NONAME
 ?OnDrawPage@CPageSetupDialog@@UAEIPAVCDC@@IPAUtagRECT@@@Z @ 5807 NONAME
 ?OnDrawSplitter@CSplitterWnd@@MAEXPAVCDC@@W4ESplitType@1@ABVCRect@@@Z @ 5808 NONAME
 ?OnDrop@COleDropTarget@@UAEHPAVCWnd@@PAVCOleDataObject@@KVCPoint@@@Z @ 5809 NONAME
 ?OnDrop@CView@@UAEHPAVCOleDataObject@@KVCPoint@@@Z @ 5810 NONAME
 ?OnDropEx@COleDropTarget@@UAEKPAVCWnd@@PAVCOleDataObject@@KKVCPoint@@@Z @ 5811 NONAME
 ?OnDropEx@CView@@UAEKPAVCOleDataObject@@KKVCPoint@@@Z @ 5812 NONAME
 ?OnDropFiles@CFrameWnd@@IAEXPAUHDROP__@@@Z @ 5813 NONAME
 ?OnDropFiles@CRichEditView@@IAEXPAUHDROP__@@@Z @ 5814 NONAME
 ?OnDropFiles@CWnd@@IAEXPAUHDROP__@@@Z @ 5815 NONAME
 ?OnEdit@COleControl@@UAEHPAUtagMSG@@PAUHWND__@@PBUtagRECT@@@Z @ 5816 NONAME
 ?OnEditChange@CEditView@@IAEHXZ @ 5817 NONAME
 ?OnEditChangeIcon@COleDocument@@IAEXXZ @ 5818 NONAME
 ?OnEditClear@CEditView@@IAEXXZ @ 5819 NONAME
 ?OnEditClear@CRichEditView@@IAEXXZ @ 5820 NONAME
 ?OnEditConvert@COleDocument@@IAEXXZ @ 5821 NONAME
 ?OnEditCopy@CEditView@@IAEXXZ @ 5822 NONAME
 ?OnEditCopy@CHtmlView@@IAEXXZ @ 5823 NONAME
 ?OnEditCopy@CRichEditView@@IAEXXZ @ 5824 NONAME
 ?OnEditCut@CEditView@@IAEXXZ @ 5825 NONAME
 ?OnEditCut@CHtmlView@@IAEXXZ @ 5826 NONAME
 ?OnEditCut@CRichEditView@@IAEXXZ @ 5827 NONAME
 ?OnEditFind@CEditView@@IAEXXZ @ 5828 NONAME
 ?OnEditFind@CRichEditView@@IAEXXZ @ 5829 NONAME
 ?OnEditFindReplace@CEditView@@IAEXH@Z @ 5830 NONAME
 ?OnEditFindReplace@CRichEditView@@IAEXH@Z @ 5831 NONAME
 ?OnEditLinks@COleDocument@@IAEXXZ @ 5832 NONAME
 ?OnEditPaste@CEditView@@IAEXXZ @ 5833 NONAME
 ?OnEditPaste@CHtmlView@@IAEXXZ @ 5834 NONAME
 ?OnEditPaste@CRichEditView@@IAEXXZ @ 5835 NONAME
 ?OnEditPasteSpecial@CRichEditView@@IAEXXZ @ 5836 NONAME
 ?OnEditProperties@CRichEditView@@IAEXXZ @ 5837 NONAME
 ?OnEditProperty@COlePropertyPage@@UAEHJ@Z @ 5838 NONAME
 ?OnEditRedo@CRichEditView@@IAEXXZ @ 5839 NONAME
 ?OnEditRepeat@CEditView@@IAEXXZ @ 5840 NONAME
 ?OnEditRepeat@CRichEditView@@IAEXXZ @ 5841 NONAME
 ?OnEditReplace@CEditView@@IAEXXZ @ 5842 NONAME
 ?OnEditReplace@CRichEditView@@IAEXXZ @ 5843 NONAME
 ?OnEditSelectAll@CEditView@@IAEXXZ @ 5844 NONAME
 ?OnEditSelectAll@CRichEditView@@IAEXXZ @ 5845 NONAME
 ?OnEditUndo@CEditView@@IAEXXZ @ 5846 NONAME
 ?OnEditUndo@CRichEditView@@IAEXXZ @ 5847 NONAME
 ?OnEnable@CFrameWnd@@IAEXH@Z @ 5848 NONAME
 ?OnEnable@CToolTipCtrl@@IAEXH@Z @ 5849 NONAME
 ?OnEnable@CWnd@@IAEXH@Z @ 5850 NONAME
 ?OnEnabledChanged@COleControl@@UAEXXZ @ 5851 NONAME
 ?OnEnableModeless@CHtmlView@@UAEJH@Z @ 5852 NONAME
 ?OnEnableModeless@COleFrameHook@@UAEXH@Z @ 5853 NONAME
 ?OnEndPrinting@CEditView@@MAEXPAVCDC@@PAUCPrintInfo@@@Z @ 5854 NONAME
 ?OnEndPrinting@CRichEditView@@MAEXPAVCDC@@PAUCPrintInfo@@@Z @ 5855 NONAME
 ?OnEndPrinting@CView@@MAEXPAVCDC@@PAUCPrintInfo@@@Z @ 5856 NONAME
 ?OnEndPrintPreview@CView@@MAEXPAVCDC@@PAUCPrintInfo@@UtagPOINT@@PAVCPreviewView@@@Z @ 5857 NONAME
 ?OnEndSession@CFrameWnd@@IAEXH@Z @ 5858 NONAME
 ?OnEndSession@CWnd@@IAEXH@Z @ 5859 NONAME
 ?OnEnterIdle@CFrameWnd@@IAEXIPAVCWnd@@@Z @ 5860 NONAME
 ?OnEnterIdle@COleControl@@IAEXIPAVCWnd@@@Z @ 5861 NONAME
 ?OnEnterIdle@CWnd@@IAEXIPAV1@@Z @ 5862 NONAME
 ?OnEnterMenuLoop@CWnd@@IAEXH@Z @ 5863 NONAME
 ?OnEnumVerbs@COleControl@@UAEHPAPAUIEnumOLEVERB@@@Z @ 5864 NONAME
 ?OnEraseBkgnd@CFrameWnd@@IAEHPAVCDC@@@Z @ 5865 NONAME
 ?OnEraseBkgnd@COleControl@@IAEHPAVCDC@@@Z @ 5866 NONAME
 ?OnEraseBkgnd@COleResizeBar@@IAEHPAVCDC@@@Z @ 5867 NONAME
 ?OnEraseBkgnd@CPreviewView@@IAEHPAVCDC@@@Z @ 5868 NONAME
 ?OnEraseBkgnd@CReBar@@IAEHPAVCDC@@@Z @ 5869 NONAME
 ?OnEraseBkgnd@CToolBar@@IAEHPAVCDC@@@Z @ 5870 NONAME
 ?OnEraseBkgnd@CWnd@@IAEHPAVCDC@@@Z @ 5871 NONAME
 ?OnEvent@CCmdTarget@@QAEHIPAUAFX_EVENT@@PAUAFX_CMDHANDLERINFO@@@Z @ 5872 NONAME
 ?OnEvent@COccManager@@UAEHPAVCCmdTarget@@IPAUAFX_EVENT@@PAUAFX_CMDHANDLERINFO@@@Z @ 5873 NONAME
 ?OnEvent@COleControlSite@@IAEHPAUAFX_EVENT@@@Z @ 5874 NONAME
 ?OnEventAdvise@COleControl@@UAEXH@Z @ 5875 NONAME
 ?OnExecOleCmd@CDocObjectServer@@IAGJPBU_GUID@@KKPAUtagVARIANT@@1@Z @ 5876 NONAME
 ?OnExecOleCmd@COleServerDoc@@MAEJPBU_GUID@@KKPAUtagVARIANT@@1@Z @ 5877 NONAME
 ?OnExitMenuLoop@CWnd@@IAEXH@Z @ 5878 NONAME
 ?OnFieldChange@XRowsetNotify@COleControlSite@@UAGJPAUIRowset@@KKQAKKKH@Z @ 5879 NONAME
 ?OnFileClose@CDocument@@IAEXXZ @ 5880 NONAME
 ?OnFileNameChange@CFileDialog@@MAEXXZ @ 5881 NONAME
 ?OnFileNameOK@CFileDialog@@MAEHXZ @ 5882 NONAME
 ?OnFileNew@CDocManager@@UAEXXZ @ 5883 NONAME
 ?OnFileNew@CWinApp@@IAEXXZ @ 5884 NONAME
 ?OnFileOpen@CDocManager@@UAEXXZ @ 5885 NONAME
 ?OnFileOpen@CWinApp@@IAEXXZ @ 5886 NONAME
 ?OnFilePrint@CHtmlEditView@@QAEXXZ @ 5887 NONAME
 ?OnFilePrint@CHtmlView@@QAEXXZ @ 5888 NONAME
 ?OnFilePrint@CView@@IAEXXZ @ 5889 NONAME
 ?OnFilePrintPreview@CView@@IAEXXZ @ 5890 NONAME
 ?OnFilePrintSetup@CWinApp@@IAEXXZ @ 5891 NONAME
 ?OnFileSave@CDocument@@IAEXXZ @ 5892 NONAME
 ?OnFileSaveAs@CDocument@@IAEXXZ @ 5893 NONAME
 ?OnFileSaveCopyAs@COleServerDoc@@IAEXXZ @ 5894 NONAME
 ?OnFileSendMail@CDocument@@IAEXXZ @ 5895 NONAME
 ?OnFileSendMail@COleDocument@@IAEXXZ @ 5896 NONAME
 ?OnFileUpdate@COleServerDoc@@IAEXXZ @ 5897 NONAME
 ?OnFilterDataObject@CHtmlView@@UAEJPAUIDataObject@@PAPAU2@@Z @ 5898 NONAME
 ?OnFinalRelease@CCmdTarget@@UAEXXZ @ 5899 NONAME
 ?OnFinalRelease@CDocument@@UAEXXZ @ 5900 NONAME
 ?OnFinalRelease@COleControl@@MAEXXZ @ 5901 NONAME
 ?OnFinalRelease@COlePropertyPage@@MAEXXZ @ 5902 NONAME
 ?OnFinalRelease@COleServerItem@@UAEXXZ @ 5903 NONAME
 ?OnFinalRelease@CWnd@@UAEXXZ @ 5904 NONAME
 ?OnFindEmbeddedItem@COleLinkingDoc@@MAEPAVCOleClientItem@@PBG@Z @ 5905 NONAME
 ?OnFindNext@CEditView@@MAEXPBGHH@Z @ 5906 NONAME
 ?OnFindNext@CRichEditView@@MAEXPBGHHH@Z @ 5907 NONAME
 ?OnFindReplaceCmd@CEditView@@IAEJIJ@Z @ 5908 NONAME
 ?OnFindReplaceCmd@CRichEditView@@IAEJIJ@Z @ 5909 NONAME
 ?OnFloatStatus@CMiniFrameWnd@@QAEJIJ@Z @ 5910 NONAME
 ?OnFocus@XOleControlSite@COleControlSite@@UAGJH@Z @ 5911 NONAME
 ?OnFolderChange@CFileDialog@@MAEXXZ @ 5912 NONAME
 ?OnFontChange@CWnd@@IAEXXZ @ 5913 NONAME
 ?OnFontChanged@COleControl@@UAEXXZ @ 5914 NONAME
 ?OnForeColorChanged@COleControl@@UAEXXZ @ 5915 NONAME
 ?OnFormatFont@CRichEditView@@IAEXXZ @ 5916 NONAME
 ?OnFrameClose@COleControl@@MAEXXZ @ 5917 NONAME
 ?OnFrameWindowActivate@CBrowserControlSite@@MAGJH@Z @ 5918 NONAME
 ?OnFrameWindowActivate@CDHtmlDialog@@UAGJH@Z @ 5919 NONAME
 ?OnFrameWindowActivate@CHtmlView@@UAEJH@Z @ 5920 NONAME
 ?OnFrameWindowActivate@COleServerDoc@@MAEXH@Z @ 5921 NONAME
 ?OnFrameWindowActivate@XDocHostUIHandler@CHtmlControlSite@@UAGJH@Z @ 5922 NONAME
 ?OnFrameWindowActivate@XOleInPlaceActiveObject@COleControl@@UAGJH@Z @ 5923 NONAME
 ?OnFrameWindowActivate@XOleInPlaceActiveObject@COleServerDoc@@UAGJH@Z @ 5924 NONAME
 ?OnFreezeEvents@COleControl@@UAEXH@Z @ 5925 NONAME
 ?OnFullScreen@CHtmlView@@UAEXH@Z @ 5926 NONAME
 ?OnGetCheckPosition@CCheckListBox@@UAE?AVCRect@@V2@0@Z @ 5927 NONAME
 ?OnGetClipboardData@COleClientItem@@UAEPAVCOleDataSource@@HPAUtagPOINT@@PAUtagSIZE@@@Z @ 5928 NONAME
 ?OnGetClipboardData@COleServerItem@@UAEPAVCOleDataSource@@HPAUtagPOINT@@PAUtagSIZE@@@Z @ 5929 NONAME
 ?OnGetClipRect@COleClientItem@@MAEXAAVCRect@@@Z @ 5930 NONAME
 ?OnGetColorSet@COleControl@@UAEHPAUtagDVTARGETDEVICE@@PAUHDC__@@PAPAUtagLOGPALETTE@@@Z @ 5931 NONAME
 ?OnGetControlInfo@COleControl@@UAEXPAUtagCONTROLINFO@@@Z @ 5932 NONAME
 ?OnGetDisplayString@COleControl@@UAEHJAAV?$CStringT@GV?$StrTraitMFC@GV?$ChTraitsCRT@G@@@@@@@Z @ 5933 NONAME
 ?OnGetDlgCode@COleControl@@IAEIXZ @ 5934 NONAME
 ?OnGetDlgCode@CWnd@@IAEIXZ @ 5935 NONAME
 ?OnGetDropTarget@CHtmlView@@UAEJPAUIDropTarget@@PAPAU2@@Z @ 5936 NONAME
 ?OnGetEmbeddedItem@CRichEditDoc@@MAEPAVCOleServerItem@@XZ @ 5937 NONAME
 ?OnGetExtent@COleServerItem@@UAEHW4tagDVASPECT@@AAVCSize@@@Z @ 5938 NONAME
 ?OnGetExternal@CHtmlView@@UAEJPAPAUIDispatch@@@Z @ 5939 NONAME
 ?OnGetHostInfo@CHtmlView@@UAEJPAU_DOCHOSTUIINFO@@@Z @ 5940 NONAME
 ?OnGetInPlaceMenu@COleControl@@UAEPAUHMENU__@@XZ @ 5941 NONAME
 ?OnGetItemPosition@COleClientItem@@MAEXAAVCRect@@@Z @ 5942 NONAME
 ?OnGetItemPosition@COleDocObjectItem@@MAEXAAVCRect@@@Z @ 5943 NONAME
 ?OnGetLinkedItem@COleLinkingDoc@@MAEPAVCOleServerItem@@PBG@Z @ 5944 NONAME
 ?OnGetLinkedItem@COleServerDoc@@UAEPAVCOleServerItem@@PBG@Z @ 5945 NONAME
 ?OnGetMinMaxInfo@CMiniFrameWnd@@QAEXPAUtagMINMAXINFO@@@Z @ 5946 NONAME
 ?OnGetMinMaxInfo@CWnd@@IAEXPAUtagMINMAXINFO@@@Z @ 5947 NONAME
 ?OnGetNaturalExtent@COleControl@@UAEHKJPAUtagDVTARGETDEVICE@@PAUHDC__@@PAUtagExtentInfo@@PAUtagSIZE@@@Z @ 5948 NONAME
 ?OnGetObject@CWnd@@IAEJIJ@Z @ 5949 NONAME
 ?OnGetOptionKeyPath@CHtmlView@@UAEJPAPAGK@Z @ 5950 NONAME
 ?OnGetPredefinedStrings@COleControl@@UAEHJPAVCStringArray@@PAVCDWordArray@@@Z @ 5951 NONAME
 ?OnGetPredefinedValue@COleControl@@UAEHJKPAUtagVARIANT@@@Z @ 5952 NONAME
 ?OnGetText@CStatusBar@@IAEJIJ@Z @ 5953 NONAME
 ?OnGetTextLength@CStatusBar@@IAEJIJ@Z @ 5954 NONAME
 ?OnGetViewExtent@COleControl@@UAEHKJPAUtagDVTARGETDEVICE@@PAUtagSIZE@@@Z @ 5955 NONAME
 ?OnGetViewRect@COleControl@@UAEHKPAU_RECTL@@@Z @ 5956 NONAME
 ?OnGetViewStatus@COleControl@@UAEKXZ @ 5957 NONAME
 ?OnGetWindowContext@COleClientItem@@MAEHPAPAVCFrameWnd@@0PAUtagOIFI@@@Z @ 5958 NONAME
 ?OnHeightChange@CReBar@@IAEXPAUtagNMHDR@@PAJ@Z @ 5959 NONAME
 ?OnHelp@CFrameWnd@@IAEXXZ @ 5960 NONAME
 ?OnHelp@COlePropertyPage@@UAEHPBG@Z @ 5961 NONAME
 ?OnHelp@CWinApp@@IAEXXZ @ 5962 NONAME
 ?OnHelp@CWnd@@QAEXXZ @ 5963 NONAME
 ?OnHelpFinder@CWinApp@@IAEXXZ @ 5964 NONAME
 ?OnHelpFinder@CWnd@@QAEXXZ @ 5965 NONAME
 ?OnHelpHitTest@CControlBar@@QAEJIJ@Z @ 5966 NONAME
 ?OnHelpHitTest@CDialog@@IAEJIJ@Z @ 5967 NONAME
 ?OnHelpHitTest@CFrameWnd@@IAEJIJ@Z @ 5968 NONAME
 ?OnHelpIndex@CWinApp@@IAEXXZ @ 5969 NONAME
 ?OnHelpIndex@CWnd@@QAEXXZ @ 5970 NONAME
 ?OnHelpInfo@CCommonDialog@@IAEHPAUtagHELPINFO@@@Z @ 5971 NONAME
 ?OnHelpInfo@CWnd@@IAEHPAUtagHELPINFO@@@Z @ 5972 NONAME
 ?OnHelpPromptAddr@CFrameWnd@@IAEJIJ@Z @ 5973 NONAME
 ?OnHelpUsing@CWinApp@@IAEXXZ @ 5974 NONAME
 ?OnHelpUsing@CWnd@@QAEXXZ @ 5975 NONAME
 ?OnHide@CDocObjectServerItem@@MAEXXZ @ 5976 NONAME
 ?OnHide@COleControl@@MAEJXZ @ 5977 NONAME
 ?OnHide@COleServerItem@@MAEXXZ @ 5978 NONAME
 ?OnHideToolBars@COleControl@@UAEXXZ @ 5979 NONAME
 ?OnHideUI@CHtmlView@@UAEJXZ @ 5980 NONAME
 ?OnHScroll@CFrameWnd@@IAEXIIPAVCScrollBar@@@Z @ 5981 NONAME
 ?OnHScroll@CPreviewView@@IAEXIIPAVCScrollBar@@@Z @ 5982 NONAME
 ?OnHScroll@CScrollView@@QAEXIIPAVCScrollBar@@@Z @ 5983 NONAME
 ?OnHScroll@CSplitterWnd@@IAEXIIPAVCScrollBar@@@Z @ 5984 NONAME
 ?OnHScroll@CWnd@@IAEXIIPAVCScrollBar@@@Z @ 5985 NONAME
 ?OnHScrollClipboard@CWnd@@IAEXPAV1@II@Z @ 5986 NONAME
 ?OnIconEraseBkgnd@CWnd@@IAEXPAVCDC@@@Z @ 5987 NONAME
 ?OnIdle@CDocTemplate@@UAEXXZ @ 5988 NONAME
 ?OnIdle@CDocument@@UAEXXZ @ 5989 NONAME
 ?OnIdle@COleDocument@@UAEXXZ @ 5990 NONAME
 ?OnIdle@CWinApp@@UAEHJ@Z @ 5991 NONAME
 ?OnIdle@CWinThread@@UAEHJ@Z @ 5992 NONAME
 ?OnIdleUpdateCmdUI@CControlBar@@QAEJIJ@Z @ 5993 NONAME
 ?OnIdleUpdateCmdUI@CFrameWnd@@IAEXXZ @ 5994 NONAME
 ?OnIdleUpdateCmdUI@CMDIFrameWnd@@IAEXXZ @ 5995 NONAME
 ?OnIdleUpdateCmdUI@COleCntrFrameWnd@@QAEXXZ @ 5996 NONAME
 ?OnIdleUpdateCmdUI@COleIPFrameWnd@@IAEXXZ @ 5997 NONAME
 ?OnInactiveMouseMove@COleControl@@UAEXPBUtagRECT@@JJK@Z @ 5998 NONAME
 ?OnInactiveMouseMove@XPointerInactive@COleControl@@UAGJPBUtagRECT@@JJK@Z @ 5999 NONAME
 ?OnInactiveSetCursor@COleControl@@UAEHPBUtagRECT@@JJKH@Z @ 6000 NONAME
 ?OnInactiveSetCursor@XPointerInactive@COleControl@@UAGJPBUtagRECT@@JJKH@Z @ 6001 NONAME
 ?OnInitDialog@CDHtmlDialog@@UAEHXZ @ 6002 NONAME
 ?OnInitDialog@CDialog@@UAEHXZ @ 6003 NONAME
 ?OnInitDialog@COlePropertiesDialog@@UAEHXZ @ 6004 NONAME
 ?OnInitDialog@COlePropertyPage@@UAEHXZ @ 6005 NONAME
 ?OnInitDialog@CPropertySheet@@UAEHXZ @ 6006 NONAME
 ?OnInitDone@CFileDialog@@MAEXXZ @ 6007 NONAME
 ?OnInitFromData@COleServerItem@@UAEHPAVCOleDataObject@@H@Z @ 6008 NONAME
 ?OnInitialUpdate@CControlBar@@QAEXXZ @ 6009 NONAME
 ?OnInitialUpdate@CFormView@@UAEXXZ @ 6010 NONAME
 ?OnInitialUpdate@COleDBRecordView@@UAEXXZ @ 6011 NONAME
 ?OnInitialUpdate@CRecordView@@UAEXXZ @ 6012 NONAME
 ?OnInitialUpdate@CRichEditView@@MAEXXZ @ 6013 NONAME
 ?OnInitialUpdate@CView@@UAEXXZ @ 6014 NONAME
 ?OnInitMenu@CFrameWnd@@IAEXPAVCMenu@@@Z @ 6015 NONAME
 ?OnInitMenu@COleFrameHook@@UAEXPAVCMenu@@@Z @ 6016 NONAME
 ?OnInitMenu@CWnd@@IAEXPAVCMenu@@@Z @ 6017 NONAME
 ?OnInitMenuPopup@CFrameWnd@@IAEXPAVCMenu@@IH@Z @ 6018 NONAME
 ?OnInitMenuPopup@COleControl@@IAEXPAVCMenu@@IH@Z @ 6019 NONAME
 ?OnInitMenuPopup@COleFrameHook@@UAEHPAVCMenu@@HH@Z @ 6020 NONAME
 ?OnInitMenuPopup@CWnd@@IAEXPAVCMenu@@IH@Z @ 6021 NONAME
 ?OnInPlaceActivate@XOleIPSite@COleClientItem@@UAGJXZ @ 6022 NONAME
 ?OnInPlaceActivate@XOleIPSite@COleControlSite@@UAGJXZ @ 6023 NONAME
 ?OnInPlaceActivateEx@XOleIPSite@COleControlSite@@UAGJPAHK@Z @ 6024 NONAME
 ?OnInPlaceDeactivate@XOleIPSite@COleClientItem@@UAGJXZ @ 6025 NONAME
 ?OnInPlaceDeactivate@XOleIPSite@COleControlSite@@UAGJXZ @ 6026 NONAME
 ?OnInPlaceDeactivateEx@XOleIPSite@COleControlSite@@UAGJH@Z @ 6027 NONAME
 ?OnInsertMenus@COleClientItem@@UAEXPAVCMenu@@PAUtagOleMenuGroupWidths@@@Z @ 6028 NONAME
 ?OnInsertMenus@COleDocObjectItem@@UAEXPAVCMenu@@PAUtagOleMenuGroupWidths@@@Z @ 6029 NONAME
 ?OnInsertObject@CRichEditView@@IAEXXZ @ 6030 NONAME
 ?OnInvertTracker@CSplitterWnd@@MAEXABVCRect@@@Z @ 6031 NONAME
 ?OnKey@CDockContext@@QAEXHH@Z @ 6032 NONAME
 ?OnKeyDown@CCheckListBox@@IAEXIII@Z @ 6033 NONAME
 ?OnKeyDown@CHtmlEditView@@UAEXXZ @ 6034 NONAME
 ?OnKeyDown@COleControl@@IAEXIII@Z @ 6035 NONAME
 ?OnKeyDown@CRichEditView@@IAEXIII@Z @ 6036 NONAME
 ?OnKeyDown@CSplitterWnd@@IAEXIII@Z @ 6037 NONAME
 ?OnKeyDown@CWnd@@IAEXIII@Z @ 6038 NONAME
 ?OnKeyDownEvent@COleControl@@UAEXGG@Z @ 6039 NONAME
 ?OnKeyPress@CHtmlEditView@@UAEXXZ @ 6040 NONAME
 ?OnKeyPressEvent@COleControl@@UAEXG@Z @ 6041 NONAME
 ?OnKeyUp@CHtmlEditView@@UAEXXZ @ 6042 NONAME
 ?OnKeyUp@COleControl@@IAEXIII@Z @ 6043 NONAME
 ?OnKeyUp@CWnd@@IAEXIII@Z @ 6044 NONAME
 ?OnKeyUpEvent@COleControl@@UAEXGG@Z @ 6045 NONAME
 ?OnKickIdle@CPropertySheet@@IAEJIJ@Z @ 6046 NONAME
 ?OnKillActive@CPropertyPage@@UAEHXZ @ 6047 NONAME
 ?OnKillFocus@COleControl@@IAEXPAVCWnd@@@Z @ 6048 NONAME
 ?OnKillFocus@CWnd@@IAEXPAV1@@Z @ 6049 NONAME
 ?OnLBAddString@CCheckListBox@@IAEJIJ@Z @ 6050 NONAME
 ?OnLBFindString@CCheckListBox@@IAEJIJ@Z @ 6051 NONAME
 ?OnLBFindStringExact@CCheckListBox@@IAEJIJ@Z @ 6052 NONAME
 ?OnLBGetItemData@CCheckListBox@@IAEJIJ@Z @ 6053 NONAME
 ?OnLBGetText@CCheckListBox@@IAEJIJ@Z @ 6054 NONAME
 ?OnLBInsertString@CCheckListBox@@IAEJIJ@Z @ 6055 NONAME
 ?OnLBSelChangedNotify@CFileDialog@@MAEXIII@Z @ 6056 NONAME
 ?OnLBSelectString@CCheckListBox@@IAEJIJ@Z @ 6057 NONAME
 ?OnLBSetItemData@CCheckListBox@@IAEJIJ@Z @ 6058 NONAME
 ?OnLBSetItemHeight@CCheckListBox@@IAEJIJ@Z @ 6059 NONAME
 ?OnLButtonDblClk@CCheckListBox@@IAEXIVCPoint@@@Z @ 6060 NONAME
 ?OnLButtonDblClk@CControlBar@@QAEXIVCPoint@@@Z @ 6061 NONAME
 ?OnLButtonDblClk@COleControl@@IAEXIVCPoint@@@Z @ 6062 NONAME
 ?OnLButtonDblClk@CSplitterWnd@@IAEXIVCPoint@@@Z @ 6063 NONAME
 ?OnLButtonDblClk@CWnd@@IAEXIVCPoint@@@Z @ 6064 NONAME
 ?OnLButtonDown@CCheckListBox@@IAEXIVCPoint@@@Z @ 6065 NONAME
 ?OnLButtonDown@CControlBar@@QAEXIVCPoint@@@Z @ 6066 NONAME
 ?OnLButtonDown@COleControl@@IAEXIVCPoint@@@Z @ 6067 NONAME
 ?OnLButtonDown@COleResizeBar@@IAEXIVCPoint@@@Z @ 6068 NONAME
 ?OnLButtonDown@CPreviewView@@IAEXIVCPoint@@@Z @ 6069 NONAME
 ?OnLButtonDown@CSplitterWnd@@IAEXIVCPoint@@@Z @ 6070 NONAME
 ?OnLButtonDown@CWnd@@IAEXIVCPoint@@@Z @ 6071 NONAME
 ?OnLButtonUp@COleControl@@IAEXIVCPoint@@@Z @ 6072 NONAME
 ?OnLButtonUp@CSplitterWnd@@IAEXIVCPoint@@@Z @ 6073 NONAME
 ?OnLButtonUp@CWnd@@IAEXIVCPoint@@@Z @ 6074 NONAME
 ?OnLowResource@CAsyncMonikerFile@@MAEXXZ @ 6075 NONAME
 ?OnMapPropertyToPage@COleControl@@UAEHJPAU_GUID@@PAH@Z @ 6076 NONAME
 ?OnMButtonDblClk@COleControl@@IAEXIVCPoint@@@Z @ 6077 NONAME
 ?OnMButtonDblClk@CWnd@@IAEXIVCPoint@@@Z @ 6078 NONAME
 ?OnMButtonDown@COleControl@@IAEXIVCPoint@@@Z @ 6079 NONAME
 ?OnMButtonDown@CWnd@@IAEXIVCPoint@@@Z @ 6080 NONAME
 ?OnMButtonUp@COleControl@@IAEXIVCPoint@@@Z @ 6081 NONAME
 ?OnMButtonUp@CWnd@@IAEXIVCPoint@@@Z @ 6082 NONAME
 ?OnMDIActivate@CMDIChildWnd@@IAEXHPAVCWnd@@0@Z @ 6083 NONAME
 ?OnMDIActivate@CWnd@@IAEXHPAV1@0@Z @ 6084 NONAME
 ?OnMDIWindowCmd@CMDIFrameWnd@@IAEHI@Z @ 6085 NONAME
 ?OnMeasureItem@CWnd@@IAEXHPAUtagMEASUREITEMSTRUCT@@@Z @ 6086 NONAME
 ?OnMenuBar@CHtmlView@@UAEXH@Z @ 6087 NONAME
 ?OnMenuChar@CMDIFrameWnd@@IAEJIIPAVCMenu@@@Z @ 6088 NONAME
 ?OnMenuChar@CWnd@@IAEJIIPAVCMenu@@@Z @ 6089 NONAME
 ?OnMenuSelect@CFrameWnd@@IAEXIIPAUHMENU__@@@Z @ 6090 NONAME
 ?OnMenuSelect@COleControl@@IAEXIIPAUHMENU__@@@Z @ 6091 NONAME
 ?OnMenuSelect@COleFrameHook@@UAEHIIPAUHMENU__@@@Z @ 6092 NONAME
 ?OnMenuSelect@CWnd@@IAEXIIPAUHMENU__@@@Z @ 6093 NONAME
 ?OnMessagePending@COleMessageFilter@@UAEHPBUtagMSG@@@Z @ 6094 NONAME
 ?OnMessagePending@CSocket@@MAEHXZ @ 6095 NONAME
 ?OnMnemonic@COleControl@@UAEXPAUtagMSG@@@Z @ 6096 NONAME
 ?OnMnemonic@XOleControl@COleControl@@UAGJPAUtagMSG@@@Z @ 6097 NONAME
 ?OnMouseActivate@CControlBar@@QAEHPAVCWnd@@II@Z @ 6098 NONAME
 ?OnMouseActivate@CMDIChildWnd@@IAEHPAVCWnd@@II@Z @ 6099 NONAME
 ?OnMouseActivate@CMiniDockFrameWnd@@QAEHPAVCWnd@@II@Z @ 6100 NONAME
 ?OnMouseActivate@COleControl@@IAEHPAVCWnd@@II@Z @ 6101 NONAME
 ?OnMouseActivate@CView@@IAEHPAVCWnd@@II@Z @ 6102 NONAME
 ?OnMouseActivate@CWnd@@IAEHPAV1@II@Z @ 6103 NONAME
 ?OnMouseDown@CHtmlEditView@@UAEXXZ @ 6104 NONAME
 ?OnMouseMove@CHtmlEditView@@UAEXXZ @ 6105 NONAME
 ?OnMouseMove@COleControl@@IAEXIVCPoint@@@Z @ 6106 NONAME
 ?OnMouseMove@CSplitterWnd@@IAEXIVCPoint@@@Z @ 6107 NONAME
 ?OnMouseMove@CWnd@@IAEXIVCPoint@@@Z @ 6108 NONAME
 ?OnMouseOut@CHtmlEditView@@UAEXXZ @ 6109 NONAME
 ?OnMouseOver@CHtmlEditView@@UAEXXZ @ 6110 NONAME
 ?OnMouseUp@CHtmlEditView@@UAEXXZ @ 6111 NONAME
 ?OnMouseWheel@CScrollView@@QAEHIFVCPoint@@@Z @ 6112 NONAME
 ?OnMouseWheel@CSplitterWnd@@IAEHIFVCPoint@@@Z @ 6113 NONAME
 ?OnMouseWheel@CWnd@@IAEHIFVCPoint@@@Z @ 6114 NONAME
 ?OnMove@COleControl@@IAEXHH@Z @ 6115 NONAME
 ?OnMove@COleDBRecordView@@UAEHI@Z @ 6116 NONAME
 ?OnMove@CRecordView@@IAEXHH@Z @ 6117 NONAME
 ?OnMove@CRecordView@@UAEHI@Z @ 6118 NONAME
 ?OnMove@CWnd@@IAEXHH@Z @ 6119 NONAME
 ?OnMoving@CWnd@@IAEXIPAUtagRECT@@@Z @ 6120 NONAME
 ?OnNavigateComplete@CDHtmlDialog@@UAEXPAUIDispatch@@PBG@Z @ 6121 NONAME
 ?OnNavigateComplete@CMultiPageDHtmlDialog@@MAEXPAUIDispatch@@PBG@Z @ 6122 NONAME
 ?OnNavigateComplete2@CHtmlView@@UAEXPBG@Z @ 6123 NONAME
 ?OnNcActivate@CFrameWnd@@IAEHH@Z @ 6124 NONAME
 ?OnNcActivate@CMDIChildWnd@@IAEHH@Z @ 6125 NONAME
 ?OnNcActivate@CMiniFrameWnd@@QAEHH@Z @ 6126 NONAME
 ?OnNcActivate@CWnd@@IAEHH@Z @ 6127 NONAME
 ?OnNcCalcSize@CDockBar@@IAEXHPAUtagNCCALCSIZE_PARAMS@@@Z @ 6128 NONAME
 ?OnNcCalcSize@COleControl@@IAEXHPAUtagNCCALCSIZE_PARAMS@@@Z @ 6129 NONAME
 ?OnNcCalcSize@CReBar@@IAEXHPAUtagNCCALCSIZE_PARAMS@@@Z @ 6130 NONAME
 ?OnNcCalcSize@CStatusBar@@IAEXHPAUtagNCCALCSIZE_PARAMS@@@Z @ 6131 NONAME
 ?OnNcCalcSize@CToolBar@@IAEXHPAUtagNCCALCSIZE_PARAMS@@@Z @ 6132 NONAME
 ?OnNcCalcSize@CWnd@@IAEXHPAUtagNCCALCSIZE_PARAMS@@@Z @ 6133 NONAME
 ?OnNcCreate@CMDIChildWnd@@IAEHPAUtagCREATESTRUCTW@@@Z @ 6134 NONAME
 ?OnNcCreate@CMiniFrameWnd@@QAEHPAUtagCREATESTRUCTW@@@Z @ 6135 NONAME
 ?OnNcCreate@COleControl@@IAEHPAUtagCREATESTRUCTW@@@Z @ 6136 NONAME
 ?OnNcCreate@CPropertySheet@@IAEHPAUtagCREATESTRUCTW@@@Z @ 6137 NONAME
 ?OnNcCreate@CReBar@@IAEHPAUtagCREATESTRUCTW@@@Z @ 6138 NONAME
 ?OnNcCreate@CSplitterWnd@@IAEHPAUtagCREATESTRUCTW@@@Z @ 6139 NONAME
 ?OnNcCreate@CToolBar@@IAEHPAUtagCREATESTRUCTW@@@Z @ 6140 NONAME
 ?OnNcCreate@CWnd@@IAEHPAUtagCREATESTRUCTW@@@Z @ 6141 NONAME
 ?OnNcDestroy@CListCtrl@@IAEXXZ @ 6142 NONAME
 ?OnNcDestroy@CListView@@QAEXXZ @ 6143 NONAME
 ?OnNcDestroy@CWnd@@IAEXXZ @ 6144 NONAME
 ?OnNcHitTest@CMiniFrameWnd@@QAEIVCPoint@@@Z @ 6145 NONAME
 ?OnNcHitTest@COleControl@@IAEIVCPoint@@@Z @ 6146 NONAME
 ?OnNcHitTest@CStatusBar@@IAEIVCPoint@@@Z @ 6147 NONAME
 ?OnNcHitTest@CToolBar@@IAEIVCPoint@@@Z @ 6148 NONAME
 ?OnNcHitTest@CWnd@@IAEIVCPoint@@@Z @ 6149 NONAME
 ?OnNcLButtonDblClk@CMiniDockFrameWnd@@QAEXIVCPoint@@@Z @ 6150 NONAME
 ?OnNcLButtonDblClk@CWnd@@IAEXIVCPoint@@@Z @ 6151 NONAME
 ?OnNcLButtonDown@CMiniDockFrameWnd@@QAEXIVCPoint@@@Z @ 6152 NONAME
 ?OnNcLButtonDown@COleControl@@IAEXIVCPoint@@@Z @ 6153 NONAME
 ?OnNcLButtonDown@CWnd@@IAEXIVCPoint@@@Z @ 6154 NONAME
 ?OnNcLButtonUp@CWnd@@IAEXIVCPoint@@@Z @ 6155 NONAME
 ?OnNcMButtonDblClk@CWnd@@IAEXIVCPoint@@@Z @ 6156 NONAME
 ?OnNcMButtonDown@CWnd@@IAEXIVCPoint@@@Z @ 6157 NONAME
 ?OnNcMButtonUp@CWnd@@IAEXIVCPoint@@@Z @ 6158 NONAME
 ?OnNcMouseMove@CWnd@@IAEXIVCPoint@@@Z @ 6159 NONAME
 ?OnNcPaint@CDockBar@@IAEXXZ @ 6160 NONAME
 ?OnNcPaint@COleControl@@IAEXXZ @ 6161 NONAME
 ?OnNcPaint@CReBar@@IAEXXZ @ 6162 NONAME
 ?OnNcPaint@CStatusBar@@IAEXXZ @ 6163 NONAME
 ?OnNcPaint@CToolBar@@IAEXXZ @ 6164 NONAME
 ?OnNcPaint@CWnd@@IAEXXZ @ 6165 NONAME
 ?OnNcRButtonDblClk@CWnd@@IAEXIVCPoint@@@Z @ 6166 NONAME
 ?OnNcRButtonDown@CWnd@@IAEXIVCPoint@@@Z @ 6167 NONAME
 ?OnNcRButtonUp@CWnd@@IAEXIVCPoint@@@Z @ 6168 NONAME
 ?OnNewDocument@CDocument@@UAEHXZ @ 6169 NONAME
 ?OnNewDocument@CHtmlEditDoc@@UAEHXZ @ 6170 NONAME
 ?OnNewDocument@COleDocument@@UAEHXZ @ 6171 NONAME
 ?OnNewDocument@COleLinkingDoc@@UAEHXZ @ 6172 NONAME
 ?OnNewEmbedding@COleServerDoc@@MAEXPAUIStorage@@@Z @ 6173 NONAME
 ?OnNewWindow2@CHtmlView@@UAEXPAPAUIDispatch@@PAH@Z @ 6174 NONAME
 ?OnNext@CEnumArray@@MAEHPAX@Z @ 6175 NONAME
 ?OnNext@CEnumConnections@@MAEHPAX@Z @ 6176 NONAME
 ?OnNext@CEnumConnPoints@@MAEHPAX@Z @ 6177 NONAME
 ?OnNext@CEnumFormatEtc@@MAEHPAX@Z @ 6178 NONAME
 ?OnNext@CEnumOleVerb@@MAEHPAX@Z @ 6179 NONAME
 ?OnNext@CEnumUnknown@@MAEHPAX@Z @ 6180 NONAME
 ?OnNextPage@CPreviewView@@IAEXXZ @ 6181 NONAME
 ?OnNextPaneCmd@CView@@IAEHI@Z @ 6182 NONAME
 ?OnNotify@CFileDialog@@MAEHIJPAJ@Z @ 6183 NONAME
 ?OnNotify@CPropertyPage@@MAEHIJPAJ@Z @ 6184 NONAME
 ?OnNotify@CSplitterWnd@@MAEHIJPAJ@Z @ 6185 NONAME
 ?OnNotify@CWnd@@MAEHIJPAJ@Z @ 6186 NONAME
 ?OnNotRespondingDialog@COleMessageFilter@@UAEHPAUHTASK__@@@Z @ 6187 NONAME
 ?OnNTCtlColor@CWnd@@IAEJIJ@Z @ 6188 NONAME
 ?OnNumPageChange@CPreviewView@@IAEXXZ @ 6189 NONAME
 ?OnObjectsChanged@COlePropertyPage@@UAEXXZ @ 6190 NONAME
 ?OnOcmCtlColorBtn@COleControl@@IAEJIJ@Z @ 6191 NONAME
 ?OnOcmCtlColorDlg@COleControl@@IAEJIJ@Z @ 6192 NONAME
 ?OnOcmCtlColorEdit@COleControl@@IAEJIJ@Z @ 6193 NONAME
 ?OnOcmCtlColorListBox@COleControl@@IAEJIJ@Z @ 6194 NONAME
 ?OnOcmCtlColorMsgBox@COleControl@@IAEJIJ@Z @ 6195 NONAME
 ?OnOcmCtlColorScrollBar@COleControl@@IAEJIJ@Z @ 6196 NONAME
 ?OnOcmCtlColorStatic@COleControl@@IAEJIJ@Z @ 6197 NONAME
 ?OnOK@CCommonDialog@@MAEXXZ @ 6198 NONAME
 ?OnOK@CDialog@@MAEXXZ @ 6199 NONAME
 ?OnOK@CPropertyPage@@UAEXXZ @ 6200 NONAME
 ?OnOpen@COleControl@@MAEJHPAUtagMSG@@@Z @ 6201 NONAME
 ?OnOpen@COleServerItem@@MAEXXZ @ 6202 NONAME
 ?OnOpenDocument@CDocument@@UAEHPBG@Z @ 6203 NONAME
 ?OnOpenDocument@CHtmlEditDoc@@UAEHPBG@Z @ 6204 NONAME
 ?OnOpenDocument@COleDocument@@UAEHPBG@Z @ 6205 NONAME
 ?OnOpenDocument@COleLinkingDoc@@UAEHPBG@Z @ 6206 NONAME
 ?OnOpenEmbedding@COleServerDoc@@MAEXPAUIStorage@@@Z @ 6207 NONAME
 ?OnOpenRecentFile@CWinApp@@IAEHI@Z @ 6208 NONAME
 ?OnOutOfBandData@CAsyncSocket@@MAEXH@Z @ 6209 NONAME
 ?OnPaint@CControlBar@@QAEXXZ @ 6210 NONAME
 ?OnPaint@CCtrlView@@IAEXXZ @ 6211 NONAME
 ?OnPaint@CDialog@@IAEXXZ @ 6212 NONAME
 ?OnPaint@CDockBar@@IAEXXZ @ 6213 NONAME
 ?OnPaint@CHtmlEditView@@IAEXXZ @ 6214 NONAME
 ?OnPaint@CHtmlView@@IAEXXZ @ 6215 NONAME
 ?OnPaint@COleControl@@IAEXPAVCDC@@@Z @ 6216 NONAME
 ?OnPaint@COleControlContainer@@UAEHPAVCDC@@@Z @ 6217 NONAME
 ?OnPaint@COleResizeBar@@IAEXXZ @ 6218 NONAME
 ?OnPaint@CReBar@@IAEXXZ @ 6219 NONAME
 ?OnPaint@CSplitterWnd@@IAEXXZ @ 6220 NONAME
 ?OnPaint@CStatusBar@@IAEXXZ @ 6221 NONAME
 ?OnPaint@CToolBar@@IAEXXZ @ 6222 NONAME
 ?OnPaint@CView@@IAEXXZ @ 6223 NONAME
 ?OnPaint@CWnd@@IAEXXZ @ 6224 NONAME
 ?OnPaintClipboard@CWnd@@IAEXPAV1@PAX@Z @ 6225 NONAME
 ?OnPaletteChanged@CFrameWnd@@IAEXPAVCWnd@@@Z @ 6226 NONAME
 ?OnPaletteChanged@COleFrameHook@@UAEXPAVCWnd@@@Z @ 6227 NONAME
 ?OnPaletteChanged@CWnd@@IAEXPAV1@@Z @ 6228 NONAME
 ?OnPaletteIsChanging@CWnd@@IAEXPAV1@@Z @ 6229 NONAME
 ?OnParaAlign@CRichEditView@@QAEXG@Z @ 6230 NONAME
 ?OnParaCenter@CRichEditView@@IAEXXZ @ 6231 NONAME
 ?OnParaLeft@CRichEditView@@IAEXXZ @ 6232 NONAME
 ?OnParaRight@CRichEditView@@IAEXXZ @ 6233 NONAME
 ?OnParentNotify@CWnd@@IAEXIJ@Z @ 6234 NONAME
 ?OnPaste@CHtmlEditView@@QAEXXZ @ 6235 NONAME
 ?OnPasteNativeObject@CRichEditView@@MAEHPAUIStorage@@@Z @ 6236 NONAME
 ?OnPopMessageString@CFrameWnd@@IAEJIJ@Z @ 6237 NONAME
 ?OnPosRectChange@XOleIPSite@COleClientItem@@UAGJPBUtagRECT@@@Z @ 6238 NONAME
 ?OnPosRectChange@XOleIPSite@COleControlSite@@UAGJPBUtagRECT@@@Z @ 6239 NONAME
 ?OnPrepareDC@CEditView@@UAEXPAVCDC@@PAUCPrintInfo@@@Z @ 6240 NONAME
 ?OnPrepareDC@CPreviewView@@UAEXPAVCDC@@PAUCPrintInfo@@@Z @ 6241 NONAME
 ?OnPrepareDC@CRichEditView@@UAEXPAVCDC@@PAUCPrintInfo@@@Z @ 6242 NONAME
 ?OnPrepareDC@CScrollView@@UAEXPAVCDC@@PAUCPrintInfo@@@Z @ 6243 NONAME
 ?OnPrepareDC@CView@@UAEXPAVCDC@@PAUCPrintInfo@@@Z @ 6244 NONAME
 ?OnPreparePrinting@CEditView@@MAEHPAUCPrintInfo@@@Z @ 6245 NONAME
 ?OnPreparePrinting@CHtmlEditView@@MAEHPAUCPrintInfo@@@Z @ 6246 NONAME
 ?OnPreparePrinting@COleDocObjectItem@@SAHPAVCView@@PAUCPrintInfo@@H@Z @ 6247 NONAME
 ?OnPreparePrinting@CView@@MAEHPAUCPrintInfo@@@Z @ 6248 NONAME
 ?OnPreserveZeroBorderHelper@CToolBar@@IAEJIJ@Z @ 6249 NONAME
 ?OnPreTranslateMessage@COleFrameHook@@UAEHPAUtagMSG@@@Z @ 6250 NONAME
 ?OnPreviewClose@CPreviewView@@IAEXXZ @ 6251 NONAME
 ?OnPreviewPrint@CPreviewView@@IAEXXZ @ 6252 NONAME
 ?OnPrevPage@CPreviewView@@IAEXXZ @ 6253 NONAME
 ?OnPrint@CEditView@@MAEXPAVCDC@@PAUCPrintInfo@@@Z @ 6254 NONAME
 ?OnPrint@COleDocObjectItem@@SAXPAVCView@@PAUCPrintInfo@@H@Z @ 6255 NONAME
 ?OnPrint@CRichEditView@@MAEXPAVCDC@@PAUCPrintInfo@@@Z @ 6256 NONAME
 ?OnPrint@CView@@MAEXPAVCDC@@PAUCPrintInfo@@@Z @ 6257 NONAME
 ?OnPrinterChanged@CRichEditView@@MAEXABVCDC@@@Z @ 6258 NONAME
 ?OnPrintSetup@CPrintDialog@@IAEXXZ @ 6259 NONAME
 ?OnProgress@CAsyncMonikerFile@@MAEXKKKPBG@Z @ 6260 NONAME
 ?OnProgressChange@CHtmlView@@UAEXJJ@Z @ 6261 NONAME
 ?OnProperties@COleControl@@UAEHPAUtagMSG@@PAUHWND__@@PBUtagRECT@@@Z @ 6262 NONAME
 ?OnPropertyChange@CHtmlView@@UAEXPBG@Z @ 6263 NONAME
 ?OnQueryCancel@CPropertyPage@@UAEHXZ @ 6264 NONAME
 ?OnQueryCenterWnd@CMiniFrameWnd@@QAEJIJ@Z @ 6265 NONAME
 ?OnQueryDragIcon@CWnd@@IAEPAUHICON__@@XZ @ 6266 NONAME
 ?OnQueryEndSession@CFrameWnd@@IAEHXZ @ 6267 NONAME
 ?OnQueryEndSession@CWnd@@IAEHXZ @ 6268 NONAME
 ?OnQueryHitPoint@COleControl@@UAEHKPBUtagRECT@@UtagPOINT@@JPAK@Z @ 6269 NONAME
 ?OnQueryHitRect@COleControl@@UAEHKPBUtagRECT@@0JPAK@Z @ 6270 NONAME
 ?OnQueryNewPalette@CFrameWnd@@IAEHXZ @ 6271 NONAME
 ?OnQueryNewPalette@COleFrameHook@@UAEHXZ @ 6272 NONAME
 ?OnQueryNewPalette@CWnd@@IAEHXZ @ 6273 NONAME
 ?OnQueryOpen@CWnd@@IAEHXZ @ 6274 NONAME
 ?OnQueryUIState@CWnd@@IAEIXZ @ 6275 NONAME
 ?OnQueryUpdateItems@COleServerItem@@UAEHXZ @ 6276 NONAME
 ?OnQuit@CHtmlView@@UAEXXZ @ 6277 NONAME
 ?OnRButtonDblClk@COleControl@@IAEXIVCPoint@@@Z @ 6278 NONAME
 ?OnRButtonDblClk@CWnd@@IAEXIVCPoint@@@Z @ 6279 NONAME
 ?OnRButtonDown@COleControl@@IAEXIVCPoint@@@Z @ 6280 NONAME
 ?OnRButtonDown@CWnd@@IAEXIVCPoint@@@Z @ 6281 NONAME
 ?OnRButtonUp@COleControl@@IAEXIVCPoint@@@Z @ 6282 NONAME
 ?OnRButtonUp@CWnd@@IAEXIVCPoint@@@Z @ 6283 NONAME
 ?OnReactivateAndUndo@COleServerDoc@@MAEHXZ @ 6284 NONAME
 ?OnReadyStateChange@CHtmlEditView@@UAEXXZ @ 6285 NONAME
 ?OnRecalcLayout@COleFrameHook@@UAEXXZ @ 6286 NONAME
 ?OnRecalcParent@COleIPFrameWnd@@IAEJIJ@Z @ 6287 NONAME
 ?OnRecalcParent@CReBar@@IAEXXZ @ 6288 NONAME
 ?OnReceive@CAsyncSocket@@MAEXH@Z @ 6289 NONAME
 ?OnReflectorDestroyed@COleControl@@MAEXXZ @ 6290 NONAME
 ?OnRegisteredMouseWheel@CFrameWnd@@IAEJIJ@Z @ 6291 NONAME
 ?OnRegisteredMouseWheel@CWnd@@IAEJIJ@Z @ 6292 NONAME
 ?OnRemoveMenus@COleClientItem@@UAEXPAVCMenu@@@Z @ 6293 NONAME
 ?OnRemoveMenus@COleDocObjectItem@@UAEXPAVCMenu@@@Z @ 6294 NONAME
 ?OnRename@XAdviseSink@COleClientItem@@UAGXPAUIMoniker@@@Z @ 6295 NONAME
 ?OnRenderAllFormats@CWnd@@IAEXXZ @ 6296 NONAME
 ?OnRenderData@CControlDataSource@COleControl@@MAEHPAUtagFORMATETC@@PAUtagSTGMEDIUM@@@Z @ 6297 NONAME
 ?OnRenderData@CItemDataSource@COleServerItem@@MAEHPAUtagFORMATETC@@PAUtagSTGMEDIUM@@@Z @ 6298 NONAME
 ?OnRenderData@COleControl@@UAEHPAUtagFORMATETC@@PAUtagSTGMEDIUM@@@Z @ 6299 NONAME
 ?OnRenderData@COleDataSource@@UAEHPAUtagFORMATETC@@PAUtagSTGMEDIUM@@@Z @ 6300 NONAME
 ?OnRenderData@COleServerItem@@UAEHPAUtagFORMATETC@@PAUtagSTGMEDIUM@@@Z @ 6301 NONAME
 ?OnRenderFileData@CControlDataSource@COleControl@@MAEHPAUtagFORMATETC@@PAVCFile@@@Z @ 6302 NONAME
 ?OnRenderFileData@CItemDataSource@COleServerItem@@MAEHPAUtagFORMATETC@@PAVCFile@@@Z @ 6303 NONAME
 ?OnRenderFileData@COleControl@@UAEHPAUtagFORMATETC@@PAVCFile@@@Z @ 6304 NONAME
 ?OnRenderFileData@COleDataSource@@UAEHPAUtagFORMATETC@@PAVCFile@@@Z @ 6305 NONAME
 ?OnRenderFileData@COleServerItem@@UAEHPAUtagFORMATETC@@PAVCFile@@@Z @ 6306 NONAME
 ?OnRenderFormat@CWnd@@IAEXI@Z @ 6307 NONAME
 ?OnRenderGlobalData@CControlDataSource@COleControl@@MAEHPAUtagFORMATETC@@PAPAX@Z @ 6308 NONAME
 ?OnRenderGlobalData@CItemDataSource@COleServerItem@@MAEHPAUtagFORMATETC@@PAPAX@Z @ 6309 NONAME
 ?OnRenderGlobalData@COleControl@@UAEHPAUtagFORMATETC@@PAPAX@Z @ 6310 NONAME
 ?OnRenderGlobalData@COleDataSource@@UAEHPAUtagFORMATETC@@PAPAX@Z @ 6311 NONAME
 ?OnRenderGlobalData@COleServerItem@@UAEHPAUtagFORMATETC@@PAPAX@Z @ 6312 NONAME
 ?OnReplaceAll@CEditView@@MAEXPBG0H@Z @ 6313 NONAME
 ?OnReplaceAll@CRichEditView@@MAEXPBG0HH@Z @ 6314 NONAME
 ?OnReplaceSel@CEditView@@MAEXPBGHH0@Z @ 6315 NONAME
 ?OnReplaceSel@CRichEditView@@MAEXPBGHHH0@Z @ 6316 NONAME
 ?OnRequestEdit@XFontNotification@COleControl@@UAGJJ@Z @ 6317 NONAME
 ?OnRequestEdit@XPropertyNotifySink@COleControlSite@@UAGJJ@Z @ 6318 NONAME
 ?OnRequestEdit@XPropNotifySink@COlePropertyPage@@UAGJJ@Z @ 6319 NONAME
 ?OnRequestPositionChange@COleDocIPFrameWnd@@MAEXPBUtagRECT@@@Z @ 6320 NONAME
 ?OnRequestPositionChange@COleIPFrameWnd@@MAEXPBUtagRECT@@@Z @ 6321 NONAME
 ?OnReset@CEnumArray@@MAEXXZ @ 6322 NONAME
 ?OnReset@CPropertyPage@@UAEXXZ @ 6323 NONAME
 ?OnResetState@COleControl@@UAEXXZ @ 6324 NONAME
 ?OnResizeBorder@CHtmlView@@UAEJPBUtagRECT@@PAUIOleInPlaceUIWindow@@H@Z @ 6325 NONAME
 ?OnResizeBorder@COleServerDoc@@UAEXPBUtagRECT@@PAUIOleInPlaceUIWindow@@H@Z @ 6326 NONAME
 ?OnResizeChild@COleIPFrameWnd@@IAEJIJ@Z @ 6327 NONAME
 ?OnRowChange@XRowsetNotify@COleControlSite@@UAGJPAUIRowset@@KQBKKKH@Z @ 6328 NONAME
 ?OnRowsetChange@XRowsetNotify@COleControlSite@@UAGJPAUIRowset@@KKH@Z @ 6329 NONAME
 ?OnSave@XAdviseSink@COleClientItem@@UAGXXZ @ 6330 NONAME
 ?OnSaveDocument@CDocument@@UAEHPBG@Z @ 6331 NONAME
 ?OnSaveDocument@CHtmlEditDoc@@UAEHPBG@Z @ 6332 NONAME
 ?OnSaveDocument@COleDocument@@UAEHPBG@Z @ 6333 NONAME
 ?OnSaveDocument@COleLinkingDoc@@UAEHPBG@Z @ 6334 NONAME
 ?OnSaveDocument@COleServerDoc@@UAEHPBG@Z @ 6335 NONAME
 ?OnSaveEmbedding@COleServerDoc@@MAEXPAUIStorage@@@Z @ 6336 NONAME
 ?OnSaveEmbedding@COleServerItem@@MAEXPAUIStorage@@@Z @ 6337 NONAME
 ?OnSaveViewState@CDocObjectServer@@MAEXAAVCArchive@@@Z @ 6338 NONAME
 ?OnScroll@CScrollView@@UAEHIIH@Z @ 6339 NONAME
 ?OnScroll@CView@@UAEHIIH@Z @ 6340 NONAME
 ?OnScrollBy@COleClientItem@@MAEHVCSize@@@Z @ 6341 NONAME
 ?OnScrollBy@CScrollView@@UAEHVCSize@@H@Z @ 6342 NONAME
 ?OnScrollBy@CView@@UAEHVCSize@@H@Z @ 6343 NONAME
 ?OnSelChange@CRichEditView@@IAEXPAUtagNMHDR@@PAJ@Z @ 6344 NONAME
 ?OnSelectAll@CHtmlEditView@@QAEXXZ @ 6345 NONAME
 ?OnSend@CAsyncSocket@@MAEXH@Z @ 6346 NONAME
 ?OnSetActive@CPropertyPage@@UAEHXZ @ 6347 NONAME
 ?OnSetBitmapSize@CToolBar@@IAEJIJ@Z @ 6348 NONAME
 ?OnSetButtonSize@CToolBar@@IAEJIJ@Z @ 6349 NONAME
 ?OnSetClientSite@COleControl@@UAEXXZ @ 6350 NONAME
 ?OnSetColorScheme@COleServerItem@@UAEHPBUtagLOGPALETTE@@@Z @ 6351 NONAME
 ?OnSetCursor@CFrameWnd@@IAEHPAVCWnd@@II@Z @ 6352 NONAME
 ?OnSetCursor@COleControl@@IAEHPAVCWnd@@II@Z @ 6353 NONAME
 ?OnSetCursor@COleResizeBar@@IAEHPAVCWnd@@II@Z @ 6354 NONAME
 ?OnSetCursor@CPreviewView@@IAEHPAVCWnd@@II@Z @ 6355 NONAME
 ?OnSetCursor@CSplitterWnd@@IAEHPAVCWnd@@II@Z @ 6356 NONAME
 ?OnSetCursor@CWnd@@IAEHPAV1@II@Z @ 6357 NONAME
 ?OnSetData@CControlDataSource@COleControl@@MAEHPAUtagFORMATETC@@PAUtagSTGMEDIUM@@H@Z @ 6358 NONAME
 ?OnSetData@CItemDataSource@COleServerItem@@MAEHPAUtagFORMATETC@@PAUtagSTGMEDIUM@@H@Z @ 6359 NONAME
 ?OnSetData@COleControl@@UAEHPAUtagFORMATETC@@PAUtagSTGMEDIUM@@H@Z @ 6360 NONAME
 ?OnSetData@COleDataSource@@UAEHPAUtagFORMATETC@@PAUtagSTGMEDIUM@@H@Z @ 6361 NONAME
 ?OnSetData@COleServerItem@@UAEHPAUtagFORMATETC@@PAUtagSTGMEDIUM@@H@Z @ 6362 NONAME
 ?OnSetDefID@CPropertySheet@@IAEJIJ@Z @ 6363 NONAME
 ?OnSetExtent@COleControl@@UAEHPAUtagSIZE@@@Z @ 6364 NONAME
 ?OnSetExtent@COleServerItem@@UAEHW4tagDVASPECT@@ABVCSize@@@Z @ 6365 NONAME
 ?OnSetFocus@CFormView@@IAEXPAVCWnd@@@Z @ 6366 NONAME
 ?OnSetFocus@CFrameWnd@@IAEXPAVCWnd@@@Z @ 6367 NONAME
 ?OnSetFocus@COleControl@@IAEXPAVCWnd@@@Z @ 6368 NONAME
 ?OnSetFocus@CWnd@@IAEXPAV1@@Z @ 6369 NONAME
 ?OnSetFont@CCheckListBox@@IAEJIJ@Z @ 6370 NONAME
 ?OnSetFont@CDialog@@UAEXPAVCFont@@@Z @ 6371 NONAME
 ?OnSetFont@CEditView@@IAEJIJ@Z @ 6372 NONAME
 ?OnSetHostNames@COleServerDoc@@MAEXPBG0@Z @ 6373 NONAME
 ?OnSetItemRects@CDocObjectServer@@IAEXPAUtagRECT@@0@Z @ 6374 NONAME
 ?OnSetItemRects@COleServerDoc@@MAEXPBUtagRECT@@0@Z @ 6375 NONAME
 ?OnSetMenu@COleClientItem@@UAEXPAVCMenu@@PAXPAUHWND__@@@Z @ 6376 NONAME
 ?OnSetMessageString@CFrameWnd@@IAEJIJ@Z @ 6377 NONAME
 ?OnSetMessageString@COleControl@@IAEJIJ@Z @ 6378 NONAME
 ?OnSetMessageString@COleIPFrameWnd@@UAEJIJ@Z @ 6379 NONAME
 ?OnSetMinHeight@CStatusBar@@IAEJIJ@Z @ 6380 NONAME
 ?OnSetObjectRects@COleControl@@UAEHPBUtagRECT@@0@Z @ 6381 NONAME
 ?OnSetOptions@CDatabase@@UAEXPAX@Z @ 6382 NONAME
 ?OnSetOptions@CRecordset@@UAEXPAX@Z @ 6383 NONAME
 ?OnSetPageSite@COlePropertyPage@@UAEXXZ @ 6384 NONAME
 ?OnSetPreviewMode@CFrameWnd@@UAEXHPAUCPrintPreviewState@@@Z @ 6385 NONAME
 ?OnSetSizeHelper@CToolBar@@IAEJAAVCSize@@J@Z @ 6386 NONAME
 ?OnSetText@COleControl@@IAEJIJ@Z @ 6387 NONAME
 ?OnSetText@CStatusBar@@IAEJIJ@Z @ 6388 NONAME
 ?OnSettingChange@CWnd@@IAEXIPBG@Z @ 6389 NONAME
 ?OnSetUpdateOptions@CRecordset@@UAEXPAX@Z @ 6390 NONAME
 ?OnShareViolation@CFileDialog@@MAEIPBG@Z @ 6391 NONAME
 ?OnShow@CDocObjectServerItem@@MAEXXZ @ 6392 NONAME
 ?OnShow@COleServerItem@@MAEXXZ @ 6393 NONAME
 ?OnShowBand@CReBar@@IAEJIJ@Z @ 6394 NONAME
 ?OnShowContextMenu@CHtmlEditView@@UAEXJJ@Z @ 6395 NONAME
 ?OnShowContextMenu@CHtmlView@@UAEJKPAUtagPOINT@@PAUIUnknown@@PAUIDispatch@@@Z @ 6396 NONAME
 ?OnShowControlBars@COleClientItem@@UAEHPAVCFrameWnd@@H@Z @ 6397 NONAME
 ?OnShowControlBars@COleServerDoc@@UAEXPAVCFrameWnd@@H@Z @ 6398 NONAME
 ?OnShowDocument@COleServerDoc@@MAEXH@Z @ 6399 NONAME
 ?OnShowItem@COleClientItem@@MAEXXZ @ 6400 NONAME
 ?OnShowToolBars@COleControl@@UAEXXZ @ 6401 NONAME
 ?OnShowUI@CHtmlView@@UAEJKPAUIOleInPlaceActiveObject@@PAUIOleCommandTarget@@PAUIOleInPlaceFrame@@PAUIOleInPlaceUIWindow@@@Z @ 6402 NONAME
 ?OnShowViews@COleDocument@@UAEXH@Z @ 6403 NONAME
 ?OnShowViews@COleLinkingDoc@@MAEXH@Z @ 6404 NONAME
 ?OnShowWindow@COleControl@@IAEXHI@Z @ 6405 NONAME
 ?OnShowWindow@CWnd@@IAEXHI@Z @ 6406 NONAME
 ?OnShowWindow@XOleClientSite@COleClientItem@@UAGJH@Z @ 6407 NONAME
 ?OnShowWindow@XOleClientSite@COleControlSite@@UAGJH@Z @ 6408 NONAME
 ?OnSize@CDHtmlDialog@@IAEXIHH@Z @ 6409 NONAME
 ?OnSize@CFrameWnd@@IAEXIHH@Z @ 6410 NONAME
 ?OnSize@CHtmlEditView@@IAEXIHH@Z @ 6411 NONAME
 ?OnSize@CHtmlView@@IAEXIHH@Z @ 6412 NONAME
 ?OnSize@CMDIChildWnd@@IAEXIHH@Z @ 6413 NONAME
 ?OnSize@CMDIFrameWnd@@IAEXIHH@Z @ 6414 NONAME
 ?OnSize@COleControl@@IAEXIHH@Z @ 6415 NONAME
 ?OnSize@COleIPFrameWnd@@IAEXIHH@Z @ 6416 NONAME
 ?OnSize@COleResizeBar@@IAEXIHH@Z @ 6417 NONAME
 ?OnSize@CPreviewView@@IAEXIHH@Z @ 6418 NONAME
 ?OnSize@CScrollView@@QAEXIHH@Z @ 6419 NONAME
 ?OnSize@CSplitterWnd@@IAEXIHH@Z @ 6420 NONAME
 ?OnSize@CStatusBar@@IAEXIHH@Z @ 6421 NONAME
 ?OnSize@CWnd@@IAEXIHH@Z @ 6422 NONAME
 ?OnSizeClipboard@CWnd@@IAEXPAV1@PAX@Z @ 6423 NONAME
 ?OnSizeParent@CControlBar@@QAEJIJ@Z @ 6424 NONAME
 ?OnSizeParent@CDockBar@@IAEJIJ@Z @ 6425 NONAME
 ?OnSizeParent@COleResizeBar@@IAEJIJ@Z @ 6426 NONAME
 ?OnSizing@CWnd@@IAEXIPAUtagRECT@@@Z @ 6427 NONAME
 ?OnSkip@CEnumArray@@MAEHXZ @ 6428 NONAME
 ?OnSocketDead@CSocketWnd@@IAEJIJ@Z @ 6429 NONAME
 ?OnSocketNotify@CSocketWnd@@IAEJIJ@Z @ 6430 NONAME
 ?OnSplitCmd@CView@@IAEHI@Z @ 6431 NONAME
 ?OnSpoolerStatus@CWnd@@IAEXII@Z @ 6432 NONAME
 ?OnStartBinding@CAsyncMonikerFile@@MAEXXZ @ 6433 NONAME
 ?OnStatusBar@CHtmlView@@UAEXH@Z @ 6434 NONAME
 ?OnStatusCallback@CInternetSession@@UAEXKKPAXK@Z @ 6435 NONAME
 ?OnStatusTextChange@CHtmlView@@UAEXPBG@Z @ 6436 NONAME
 ?OnStopBinding@CAsyncMonikerFile@@MAEXJPBG@Z @ 6437 NONAME
 ?OnStyleChanged@CWnd@@IAEXHPAUtagSTYLESTRUCT@@@Z @ 6438 NONAME
 ?OnStyleChanging@CWnd@@IAEXHPAUtagSTYLESTRUCT@@@Z @ 6439 NONAME
 ?OnSysChar@CWnd@@IAEXIII@Z @ 6440 NONAME
 ?OnSysColorChange@CToolBar@@IAEXXZ @ 6441 NONAME
 ?OnSysColorChange@CWnd@@IAEXXZ @ 6442 NONAME
 ?OnSysCommand@CFrameWnd@@IAEXIJ@Z @ 6443 NONAME
 ?OnSysCommand@CMiniFrameWnd@@QAEXIJ@Z @ 6444 NONAME
 ?OnSysCommand@CPropertySheet@@IAEXIJ@Z @ 6445 NONAME
 ?OnSysCommand@CSplitterWnd@@IAEXIJ@Z @ 6446 NONAME
 ?OnSysCommand@CWnd@@IAEXIJ@Z @ 6447 NONAME
 ?OnSysDeadChar@CWnd@@IAEXIII@Z @ 6448 NONAME
 ?OnSysKeyDown@COleControl@@IAEXIII@Z @ 6449 NONAME
 ?OnSysKeyDown@CWnd@@IAEXIII@Z @ 6450 NONAME
 ?OnSysKeyUp@COleControl@@IAEXIII@Z @ 6451 NONAME
 ?OnSysKeyUp@CWnd@@IAEXIII@Z @ 6452 NONAME
 ?OnTCard@CWnd@@IAEXIK@Z @ 6453 NONAME
 ?OnTextChanged@COleControl@@UAEXXZ @ 6454 NONAME
 ?OnTextNotFound@CEditView@@MAEXPBG@Z @ 6455 NONAME
 ?OnTextNotFound@CRichEditView@@MAEXPBG@Z @ 6456 NONAME
 ?OnTheaterMode@CHtmlView@@UAEXH@Z @ 6457 NONAME
 ?OnTimeChange@CWnd@@IAEXXZ @ 6458 NONAME
 ?OnTimer@CControlBar@@QAEXI@Z @ 6459 NONAME
 ?OnTimer@CWnd@@IAEXI@Z @ 6460 NONAME
 ?OnTitleChange@CHtmlView@@UAEXPBG@Z @ 6461 NONAME
 ?OnToolBar@CHtmlView@@UAEXH@Z @ 6462 NONAME
 ?OnToolHitTest@CReBar@@UBEHVCPoint@@PAUtagTOOLINFOW@@@Z @ 6463 NONAME
 ?OnToolHitTest@CToolBar@@UBEHVCPoint@@PAUtagTOOLINFOW@@@Z @ 6464 NONAME
 ?OnToolHitTest@CWnd@@UBEHVCPoint@@PAUtagTOOLINFOW@@@Z @ 6465 NONAME
 ?OnToolTipText@CFrameWnd@@IAEHIPAUtagNMHDR@@PAJ@Z @ 6466 NONAME
 ?OnToolTipText@CMDIChildWnd@@IAEHIPAUtagNMHDR@@PAJ@Z @ 6467 NONAME
 ?OnTranslateAccelerator@CHtmlView@@UAEJPAUtagMSG@@PBU_GUID@@K@Z @ 6468 NONAME
 ?OnTranslateUrl@CHtmlView@@UAEJKPAGPAPAG@Z @ 6469 NONAME
 ?OnTypeChange@CFileDialog@@MAEXXZ @ 6470 NONAME
 ?OnUIActivate@COleControlContainer@@UAEXPAVCOleControlSite@@@Z @ 6471 NONAME
 ?OnUIActivate@XOleIPSite@COleClientItem@@UAGJXZ @ 6472 NONAME
 ?OnUIActivate@XOleIPSite@COleControlSite@@UAGJXZ @ 6473 NONAME
 ?OnUIDeactivate@COleControlContainer@@UAEXPAVCOleControlSite@@@Z @ 6474 NONAME
 ?OnUIDeactivate@XOleIPSite@COleClientItem@@UAGJH@Z @ 6475 NONAME
 ?OnUIDeactivate@XOleIPSite@COleControlSite@@UAGJH@Z @ 6476 NONAME
 ?OnUndo@CHtmlEditView@@QAEXXZ @ 6477 NONAME
 ?OnUpdate@COleServerItem@@UAEXPAV1@JPAVCObject@@W4tagDVASPECT@@@Z @ 6478 NONAME
 ?OnUpdate@CView@@MAEXPAV1@JPAVCObject@@@Z @ 6479 NONAME
 ?OnUpdateBullet@CRichEditView@@IAEXPAVCCmdUI@@@Z @ 6480 NONAME
 ?OnUpdateCharBold@CRichEditView@@IAEXPAVCCmdUI@@@Z @ 6481 NONAME
 ?OnUpdateCharEffect@CRichEditView@@QAEXPAVCCmdUI@@KK@Z @ 6482 NONAME
 ?OnUpdateCharItalic@CRichEditView@@IAEXPAVCCmdUI@@@Z @ 6483 NONAME
 ?OnUpdateCharUnderline@CRichEditView@@IAEXPAVCCmdUI@@@Z @ 6484 NONAME
 ?OnUpdateCmdUI@CDialogBar@@UAEXPAVCFrameWnd@@H@Z @ 6485 NONAME
 ?OnUpdateCmdUI@CDockBar@@MAEXPAVCFrameWnd@@H@Z @ 6486 NONAME
 ?OnUpdateCmdUI@COleResizeBar@@UAEXPAVCFrameWnd@@H@Z @ 6487 NONAME
 ?OnUpdateCmdUI@CReBar@@UAEXPAVCFrameWnd@@H@Z @ 6488 NONAME
 ?OnUpdateCmdUI@CStatusBar@@UAEXPAVCFrameWnd@@H@Z @ 6489 NONAME
 ?OnUpdateCmdUI@CToolBar@@UAEXPAVCFrameWnd@@H@Z @ 6490 NONAME
 ?OnUpdateContextHelp@CFrameWnd@@IAEXPAVCCmdUI@@@Z @ 6491 NONAME
 ?OnUpdateControlBarMenu@CFrameWnd@@QAEXPAVCCmdUI@@@Z @ 6492 NONAME
 ?OnUpdateControlBarMenu@COleIPFrameWnd@@IAEXPAVCCmdUI@@@Z @ 6493 NONAME
 ?OnUpdateCopyUI@CHtmlEditView@@QAEXPAVCCmdUI@@@Z @ 6494 NONAME
 ?OnUpdateCutUI@CHtmlEditView@@QAEXPAVCCmdUI@@@Z @ 6495 NONAME
 ?OnUpdateDocument@COleServerDoc@@UAEHXZ @ 6496 NONAME
 ?OnUpdateEditChangeIcon@COleDocument@@IAEXPAVCCmdUI@@@Z @ 6497 NONAME
 ?OnUpdateEditCopy@CHtmlView@@IAEXPAVCCmdUI@@@Z @ 6498 NONAME
 ?OnUpdateEditCut@CHtmlView@@IAEXPAVCCmdUI@@@Z @ 6499 NONAME
 ?OnUpdateEditLinksMenu@COleDocument@@IAEXPAVCCmdUI@@@Z @ 6500 NONAME
 ?OnUpdateEditPaste@CHtmlView@@IAEXPAVCCmdUI@@@Z @ 6501 NONAME
 ?OnUpdateEditPasteSpecial@CRichEditView@@IAEXPAVCCmdUI@@@Z @ 6502 NONAME
 ?OnUpdateEditProperties@CRichEditView@@IAEXPAVCCmdUI@@@Z @ 6503 NONAME
 ?OnUpdateEditRedo@CRichEditView@@IAEXPAVCCmdUI@@@Z @ 6504 NONAME
 ?OnUpdateEditUndo@CEditView@@IAEXPAVCCmdUI@@@Z @ 6505 NONAME
 ?OnUpdateEditUndo@CRichEditView@@IAEXPAVCCmdUI@@@Z @ 6506 NONAME
 ?OnUpdateFileExit@COleServerDoc@@IAEXPAVCCmdUI@@@Z @ 6507 NONAME
 ?OnUpdateFileSendMail@CDocument@@IAEXPAVCCmdUI@@@Z @ 6508 NONAME
 ?OnUpdateFileUpdate@COleServerDoc@@IAEXPAVCCmdUI@@@Z @ 6509 NONAME
 ?OnUpdateFrameMenu@CFrameWnd@@UAEXPAUHMENU__@@@Z @ 6510 NONAME
 ?OnUpdateFrameMenu@CMDIChildWnd@@UAEXHPAVCWnd@@PAUHMENU__@@@Z @ 6511 NONAME
 ?OnUpdateFrameMenu@CMDIFrameWnd@@UAEXPAUHMENU__@@@Z @ 6512 NONAME
 ?OnUpdateFrameTitle@CFrameWnd@@UAEXH@Z @ 6513 NONAME
 ?OnUpdateFrameTitle@CMDIChildWnd@@MAEXH@Z @ 6514 NONAME
 ?OnUpdateFrameTitle@CMDIFrameWnd@@UAEXH@Z @ 6515 NONAME
 ?OnUpdateFrameTitle@COleClientItem@@UAEHXZ @ 6516 NONAME
 ?OnUpdateFrameTitle@COleFrameHook@@UAEHXZ @ 6517 NONAME
 ?OnUpdateItems@COleServerItem@@UAEXXZ @ 6518 NONAME
 ?OnUpdateKeyIndicator@CFrameWnd@@IAEXPAVCCmdUI@@@Z @ 6519 NONAME
 ?OnUpdateMDIWindowCmd@CMDIFrameWnd@@IAEXPAVCCmdUI@@@Z @ 6520 NONAME
 ?OnUpdateNeedClip@CEditView@@IAEXPAVCCmdUI@@@Z @ 6521 NONAME
 ?OnUpdateNeedClip@CRichEditView@@IAEXPAVCCmdUI@@@Z @ 6522 NONAME
 ?OnUpdateNeedFind@CEditView@@IAEXPAVCCmdUI@@@Z @ 6523 NONAME
 ?OnUpdateNeedFind@CRichEditView@@IAEXPAVCCmdUI@@@Z @ 6524 NONAME
 ?OnUpdateNeedSel@CEditView@@IAEXPAVCCmdUI@@@Z @ 6525 NONAME
 ?OnUpdateNeedSel@CRichEditView@@IAEXPAVCCmdUI@@@Z @ 6526 NONAME
 ?OnUpdateNeedText@CEditView@@IAEXPAVCCmdUI@@@Z @ 6527 NONAME
 ?OnUpdateNeedText@CRichEditView@@IAEXPAVCCmdUI@@@Z @ 6528 NONAME
 ?OnUpdateNextPage@CPreviewView@@IAEXPAVCCmdUI@@@Z @ 6529 NONAME
 ?OnUpdateNextPaneMenu@CView@@IAEXPAVCCmdUI@@@Z @ 6530 NONAME
 ?OnUpdateNumPageChange@CPreviewView@@IAEXPAVCCmdUI@@@Z @ 6531 NONAME
 ?OnUpdateObjectVerbMenu@COleDocument@@IAEXPAVCCmdUI@@@Z @ 6532 NONAME
 ?OnUpdateParaAlign@CRichEditView@@QAEXPAVCCmdUI@@G@Z @ 6533 NONAME
 ?OnUpdateParaCenter@CRichEditView@@IAEXPAVCCmdUI@@@Z @ 6534 NONAME
 ?OnUpdateParaLeft@CRichEditView@@IAEXPAVCCmdUI@@@Z @ 6535 NONAME
 ?OnUpdateParaRight@CRichEditView@@IAEXPAVCCmdUI@@@Z @ 6536 NONAME
 ?OnUpdatePasteLinkMenu@COleDocument@@IAEXPAVCCmdUI@@@Z @ 6537 NONAME
 ?OnUpdatePasteMenu@COleDocument@@IAEXPAVCCmdUI@@@Z @ 6538 NONAME
 ?OnUpdatePasteUI@CHtmlEditView@@QAEXPAVCCmdUI@@@Z @ 6539 NONAME
 ?OnUpdatePrevPage@CPreviewView@@IAEXPAVCCmdUI@@@Z @ 6540 NONAME
 ?OnUpdateRecentFileMenu@CWinApp@@IAEXPAVCCmdUI@@@Z @ 6541 NONAME
 ?OnUpdateRecordFirst@COleDBRecordView@@IAEXPAVCCmdUI@@@Z @ 6542 NONAME
 ?OnUpdateRecordFirst@CRecordView@@IAEXPAVCCmdUI@@@Z @ 6543 NONAME
 ?OnUpdateRecordLast@COleDBRecordView@@IAEXPAVCCmdUI@@@Z @ 6544 NONAME
 ?OnUpdateRecordLast@CRecordView@@IAEXPAVCCmdUI@@@Z @ 6545 NONAME
 ?OnUpdateRecordNext@COleDBRecordView@@IAEXPAVCCmdUI@@@Z @ 6546 NONAME
 ?OnUpdateRecordNext@CRecordView@@IAEXPAVCCmdUI@@@Z @ 6547 NONAME
 ?OnUpdateRecordPrev@COleDBRecordView@@IAEXPAVCCmdUI@@@Z @ 6548 NONAME
 ?OnUpdateRecordPrev@CRecordView@@IAEXPAVCCmdUI@@@Z @ 6549 NONAME
 ?OnUpdateSelectAllUI@CHtmlEditView@@QAEXPAVCCmdUI@@@Z @ 6550 NONAME
 ?OnUpdateSplitCmd@CView@@IAEXPAVCCmdUI@@@Z @ 6551 NONAME
 ?OnUpdateUI@CHtmlView@@UAEJXZ @ 6552 NONAME
 ?OnUpdateUIState@CWnd@@IAEXII@Z @ 6553 NONAME
 ?OnUpdateUndoUI@CHtmlEditView@@QAEXPAVCCmdUI@@@Z @ 6554 NONAME
 ?OnUpdateZoomIn@CPreviewView@@IAEXPAVCCmdUI@@@Z @ 6555 NONAME
 ?OnUpdateZoomOut@CPreviewView@@IAEXPAVCCmdUI@@@Z @ 6556 NONAME
 ?OnViewChange@XAdviseSink@COleClientItem@@UAGXKJ@Z @ 6557 NONAME
 ?OnVisible@CHtmlView@@UAEXH@Z @ 6558 NONAME
 ?OnVKeyToItem@CWnd@@IAEHIPAVCListBox@@I@Z @ 6559 NONAME
 ?OnVScroll@CFrameWnd@@IAEXIIPAVCScrollBar@@@Z @ 6560 NONAME
 ?OnVScroll@CPreviewView@@IAEXIIPAVCScrollBar@@@Z @ 6561 NONAME
 ?OnVScroll@CScrollView@@QAEXIIPAVCScrollBar@@@Z @ 6562 NONAME
 ?OnVScroll@CSplitterWnd@@IAEXIIPAVCScrollBar@@@Z @ 6563 NONAME
 ?OnVScroll@CWnd@@IAEXIIPAVCScrollBar@@@Z @ 6564 NONAME
 ?OnVScrollClipboard@CWnd@@IAEXPAV1@II@Z @ 6565 NONAME
 ?OnWindowFromPoint@CToolTipCtrl@@IAEJIJ@Z @ 6566 NONAME
 ?OnWindowlessMessage@COleControl@@UAEHIIJPAJ@Z @ 6567 NONAME
 ?OnWindowMessage@XOleInPlaceObject@COleControl@@UAGJIIJPAJ@Z @ 6568 NONAME
 ?OnWindowNew@CMDIFrameWnd@@IAEXXZ @ 6569 NONAME
 ?OnWindowPosChanged@CWnd@@IAEXPAUtagWINDOWPOS@@@Z @ 6570 NONAME
 ?OnWindowPosChanging@CControlBar@@QAEXPAUtagWINDOWPOS@@@Z @ 6571 NONAME
 ?OnWindowPosChanging@CDockBar@@IAEXPAUtagWINDOWPOS@@@Z @ 6572 NONAME
 ?OnWindowPosChanging@CMDIChildWnd@@IAEXPAUtagWINDOWPOS@@@Z @ 6573 NONAME
 ?OnWindowPosChanging@COleIPFrameWnd@@IAEXPAUtagWINDOWPOS@@@Z @ 6574 NONAME
 ?OnWindowPosChanging@CStatusBar@@IAEXPAUtagWINDOWPOS@@@Z @ 6575 NONAME
 ?OnWindowPosChanging@CToolBar@@IAEXPAUtagWINDOWPOS@@@Z @ 6576 NONAME
 ?OnWindowPosChanging@CWnd@@IAEXPAUtagWINDOWPOS@@@Z @ 6577 NONAME
 ?OnWinIniChange@CWnd@@IAEXPBG@Z @ 6578 NONAME
 ?OnWizardBack@CPropertyPage@@UAEJXZ @ 6579 NONAME
 ?OnWizardFinish@CPropertyPage@@UAEHXZ @ 6580 NONAME
 ?OnWizardNext@CPropertyPage@@UAEJXZ @ 6581 NONAME
 ?OnWndMsg@CWnd@@MAEHIIJPAJ@Z @ 6582 NONAME
 ?OnZoomIn@CPreviewView@@IAEXXZ @ 6583 NONAME
 ?OnZoomOut@CPreviewView@@IAEXXZ @ 6584 NONAME
 ?Open@CAnimateCtrl@@QAEHI@Z @ 6585 NONAME
 ?Open@CAnimateCtrl@@QAEHPBG@Z @ 6586 NONAME
 ?Open@CAsyncMonikerFile@@UAEHPAUIMoniker@@PAUIBindHost@@PAVCFileException@@@Z @ 6587 NONAME
 ?Open@CAsyncMonikerFile@@UAEHPAUIMoniker@@PAUIServiceProvider@@PAVCFileException@@@Z @ 6588 NONAME
 ?Open@CAsyncMonikerFile@@UAEHPAUIMoniker@@PAUIUnknown@@PAVCFileException@@@Z @ 6589 NONAME
 ?Open@CAsyncMonikerFile@@UAEHPAUIMoniker@@PAVCFileException@@@Z @ 6590 NONAME
 ?Open@CAsyncMonikerFile@@UAEHPBGPAUIBindHost@@PAVCFileException@@@Z @ 6591 NONAME
 ?Open@CAsyncMonikerFile@@UAEHPBGPAUIServiceProvider@@PAVCFileException@@@Z @ 6592 NONAME
 ?Open@CAsyncMonikerFile@@UAEHPBGPAUIUnknown@@PAVCFileException@@@Z @ 6593 NONAME
 ?Open@CAsyncMonikerFile@@UAEHPBGPAVCFileException@@@Z @ 6594 NONAME
 ?Open@CDatabase@@UAEHPBGHH0H@Z @ 6595 NONAME
 ?Open@CDataPathProperty@@UAEHPAVCFileException@@@Z @ 6596 NONAME
 ?Open@CDataPathProperty@@UAEHPAVCOleControl@@PAVCFileException@@@Z @ 6597 NONAME
 ?Open@CDataPathProperty@@UAEHPBGPAVCFileException@@@Z @ 6598 NONAME
 ?Open@CDataPathProperty@@UAEHPBGPAVCOleControl@@PAVCFileException@@@Z @ 6599 NONAME
 ?Open@CFile@@UAEHPBGIPAVCFileException@@@Z @ 6600 NONAME
 ?Open@CMirrorFile@@UAEHPBGIPAVCFileException@@@Z @ 6601 NONAME
 ?Open@CMonikerFile@@MAEHPAUIMoniker@@PAUIBindHost@@PAUIBindStatusCallback@@PAUIBindCtx@@PAVCFileException@@@Z @ 6602 NONAME
 ?Open@CMonikerFile@@MAEHPBGPAUIBindHost@@PAUIBindStatusCallback@@PAUIBindCtx@@PAVCFileException@@@Z @ 6603 NONAME
 ?Open@CMonikerFile@@UAEHPAUIMoniker@@PAVCFileException@@@Z @ 6604 NONAME
 ?Open@CMonikerFile@@UAEHPBGPAVCFileException@@@Z @ 6605 NONAME
 ?Open@CRecordset@@UAEHIPBGK@Z @ 6606 NONAME
 ?Open@CSocketFile@@UAEHPBGIPAVCFileException@@@Z @ 6607 NONAME
 ?Open@CStdioFile@@UAEHPBGIPAVCFileException@@@Z @ 6608 NONAME
 ?Open@XOleDocumentView@CDocObjectServer@@UAGJXZ @ 6609 NONAME
 ?OpenClipboard@CWnd@@QAEHXZ @ 6610 NONAME
 ?OpenDocumentFile@CDocManager@@UAEPAVCDocument@@PBG@Z @ 6611 NONAME
 ?OpenDocumentFile@CMultiDocTemplate@@UAEPAVCDocument@@PBGH@Z @ 6612 NONAME
 ?OpenDocumentFile@CSingleDocTemplate@@UAEPAVCDocument@@PBGH@Z @ 6613 NONAME
 ?OpenDocumentFile@CWinApp@@UAEPAVCDocument@@PBG@Z @ 6614 NONAME
 ?OpenEx@CDatabase@@UAEHPBGK@Z @ 6615 NONAME
 ?OpenFile@CFtpConnection@@QAEPAVCInternetFile@@PBGKKK@Z @ 6616 NONAME
 ?OpenFile@CGopherConnection@@QAEPAVCGopherFile@@AAVCGopherLocator@@KPBGK@Z @ 6617 NONAME
 ?OpenIcon@CWnd@@QAEHXZ @ 6618 NONAME
 ?OpenLinkSource@COleUILinkInfo@@UAGJK@Z @ 6619 NONAME
 ?OpenRequest@CHttpConnection@@QAEPAVCHttpFile@@HPBG0KPAPBG0K@Z @ 6620 NONAME
 ?OpenRequest@CHttpConnection@@QAEPAVCHttpFile@@PBG00KPAPBG0K@Z @ 6621 NONAME
 ?OpenStream@COleStreamFile@@QAEHPAUIStorage@@PBGKPAVCFileException@@@Z @ 6622 NONAME
 ?OpenURL@CHtmlEditDoc@@UAEHPBG@Z @ 6623 NONAME
 ?OpenURL@CInternetSession@@QAEPAVCStdioFile@@PBGKK0K@Z @ 6624 NONAME
 ?OrderToIndex@CHeaderCtrl@@QBEHH@Z @ 6625 NONAME
 ?OsErrorToException@CFileException@@SGHJ@Z @ 6626 NONAME
 ?OutputString@CDumpContext@@IAEXPBG@Z @ 6627 NONAME
 ?PaginateTo@CEditView@@IAEHPAVCDC@@PAUCPrintInfo@@@Z @ 6628 NONAME
 ?PaginateTo@CRichEditView@@IAEHPAVCDC@@PAUCPrintInfo@@@Z @ 6629 NONAME
 ?PaintHookProc@CPageSetupDialog@@KGIPAUHWND__@@IIJ@Z @ 6630 NONAME
 ?PaintRgn@CDC@@QAEHPAVCRgn@@@Z @ 6631 NONAME
 ?PaintWindowlessControls@CWnd@@QAEHPAVCDC@@@Z @ 6632 NONAME
 ?ParentToClient@COleControl@@UBEIPBUtagRECT@@PAUtagPOINT@@H@Z @ 6633 NONAME
 ?ParseCommandLine@CWinApp@@QAEXAAVCCommandLineInfo@@@Z @ 6634 NONAME
 ?ParseCurrency@COleCurrency@@QAEHPBGKK@Z @ 6635 NONAME
 ?ParseDisplayName@XOleContainer@COleControlContainer@@UAGJPAUIBindCtx@@PAGPAKPAPAUIMoniker@@@Z @ 6636 NONAME
 ?ParseDisplayName@XOleItemContainer@COleLinkingDoc@@UAGJPAUIBindCtx@@PAGPAKPAPAUIMoniker@@@Z @ 6637 NONAME
 ?ParseLast@CCommandLineInfo@@IAEXH@Z @ 6638 NONAME
 ?ParseParam@CCommandLineInfo@@UAEXPBDHH@Z @ 6639 NONAME
 ?ParseParam@CCommandLineInfo@@UAEXPBGHH@Z @ 6640 NONAME
 ?ParseParamFlag@CCommandLineInfo@@IAEXPBD@Z @ 6641 NONAME
 ?ParseParamNotFlag@CCommandLineInfo@@IAEXPBD@Z @ 6642 NONAME
 ?ParseParamNotFlag@CCommandLineInfo@@IAEXPBG@Z @ 6643 NONAME
 ?Paste@CComboBox@@QAEXXZ @ 6644 NONAME
 ?Paste@CEdit@@QAEXXZ @ 6645 NONAME
 ?Paste@CRichEditCtrl@@QAEXXZ @ 6646 NONAME
 ?PasteSpecial@CRichEditCtrl@@QAEXIKPAUHMETAFILE__@@@Z @ 6647 NONAME
 ?PatBlt@CDC@@QAEHHHHHK@Z @ 6648 NONAME
 ?PGetFirstAssoc@CMapStringToString@@QAEPAUCPair@1@XZ @ 6649 NONAME
 ?PGetFirstAssoc@CMapStringToString@@QBEPBUCPair@1@XZ @ 6650 NONAME
 ?PGetNextAssoc@CMapStringToString@@QAEPAUCPair@1@PBU21@@Z @ 6651 NONAME
 ?PGetNextAssoc@CMapStringToString@@QBEPBUCPair@1@PBU21@@Z @ 6652 NONAME
 ?Pie@CDC@@QAEHHHHHHHHH@Z @ 6653 NONAME
 ?Pie@CDC@@QAEHPBUtagRECT@@UtagPOINT@@1@Z @ 6654 NONAME
 ?Play@CAnimateCtrl@@QAEHIII@Z @ 6655 NONAME
 ?PlayMetaFile@CDC@@QAEHPAUHENHMETAFILE__@@PBUtagRECT@@@Z @ 6656 NONAME
 ?PlayMetaFile@CDC@@QAEHPAUHMETAFILE__@@@Z @ 6657 NONAME
 ?PlgBlt@CDC@@QAEHPAUtagPOINT@@PAV1@HHHHAAVCBitmap@@HH@Z @ 6658 NONAME
 ?PLookup@CMapStringToString@@QBEPAUCPair@1@PBG@Z @ 6659 NONAME
 ?PolyBezier@CDC@@QAEHPBUtagPOINT@@H@Z @ 6660 NONAME
 ?PolyBezierTo@CDC@@QAEHPBUtagPOINT@@H@Z @ 6661 NONAME
 ?PolyDraw@CDC@@QAEHPBUtagPOINT@@PBEH@Z @ 6662 NONAME
 ?Polygon@CDC@@QAEHPAUtagPOINT@@H@Z @ 6663 NONAME
 ?Polyline@CDC@@QAEHPAUtagPOINT@@H@Z @ 6664 NONAME
 ?PolylineTo@CDC@@QAEHPBUtagPOINT@@H@Z @ 6665 NONAME
 ?PolyPolygon@CDC@@QAEHPAUtagPOINT@@PAHH@Z @ 6666 NONAME
 ?PolyPolyline@CDC@@QAEHPBUtagPOINT@@PBKH@Z @ 6667 NONAME
 ?Pop@CToolTipCtrl@@QAEXXZ @ 6668 NONAME
 ?PosFromChar@CEdit@@QBE?AVCPoint@@I@Z @ 6669 NONAME
 ?PosFromChar@CRichEditCtrl@@QBE?AVCPoint@@I@Z @ 6670 NONAME
 ?PositionPage@CPreviewView@@MAEXI@Z @ 6671 NONAME
 ?PostBindToStream@CAsyncMonikerFile@@MAEHPAVCFileException@@@Z @ 6672 NONAME
 ?PostBindToStream@CMonikerFile@@MAEHPAVCFileException@@@Z @ 6673 NONAME
 ?PostCreateDialog@COccManager@@UAEXPAU_AFX_OCC_DIALOG_INFO@@@Z @ 6674 NONAME
 ?PostMessageW@CWnd@@QAEHIIJ@Z @ 6675 NONAME
 ?PostModal@CDialog@@IAEXXZ @ 6676 NONAME
 ?PostModal@CPrintDialogEx@@QAEXXZ @ 6677 NONAME
 ?PostModalDialog@COleControl@@QAEXPAUHWND__@@@Z @ 6678 NONAME
 ?PostNcDestroy@CControlBar@@UAEXXZ @ 6679 NONAME
 ?PostNcDestroy@CControlFrameWnd@@MAEXXZ @ 6680 NONAME
 ?PostNcDestroy@CFindReplaceDialog@@MAEXXZ @ 6681 NONAME
 ?PostNcDestroy@CFrameWnd@@MAEXXZ @ 6682 NONAME
 ?PostNcDestroy@COleCntrFrameWnd@@MAEXXZ @ 6683 NONAME
 ?PostNcDestroy@CReflectorWnd@@MAEXXZ @ 6684 NONAME
 ?PostNcDestroy@CView@@MAEXXZ @ 6685 NONAME
 ?PostNcDestroy@CWnd@@MAEXXZ @ 6686 NONAME
 ?PostThreadMessageW@CWinThread@@QAEHIIJ@Z @ 6687 NONAME
 ?PreBindFields@CRecordset@@UAEXXZ @ 6688 NONAME
 ?PreCloseFrame@CDocument@@UAEXPAVCFrameWnd@@@Z @ 6689 NONAME
 ?PreCloseFrame@COleDocument@@UAEXPAVCFrameWnd@@@Z @ 6690 NONAME
 ?PreCloseFrame@CRichEditDoc@@UAEXPAVCFrameWnd@@@Z @ 6691 NONAME
 ?PreCompareItem@CCheckListBox@@IAEHPAUtagCOMPAREITEMSTRUCT@@@Z @ 6692 NONAME
 ?PreCreateDialog@COccManager@@UAEPBUDLGTEMPLATE@@PAU_AFX_OCC_DIALOG_INFO@@PBU2@@Z @ 6693 NONAME
 ?PreCreateWindow@CControlBar@@UAEHAAUtagCREATESTRUCTW@@@Z @ 6694 NONAME
 ?PreCreateWindow@CControlFrameWnd@@UAEHAAUtagCREATESTRUCTW@@@Z @ 6695 NONAME
 ?PreCreateWindow@CCtrlView@@MAEHAAUtagCREATESTRUCTW@@@Z @ 6696 NONAME
 ?PreCreateWindow@CEditView@@MAEHAAUtagCREATESTRUCTW@@@Z @ 6697 NONAME
 ?PreCreateWindow@CFrameWnd@@MAEHAAUtagCREATESTRUCTW@@@Z @ 6698 NONAME
 ?PreCreateWindow@CHtmlView@@UAEHAAUtagCREATESTRUCTW@@@Z @ 6699 NONAME
 ?PreCreateWindow@CListView@@UAEHAAUtagCREATESTRUCTW@@@Z @ 6700 NONAME
 ?PreCreateWindow@CMDIChildWnd@@UAEHAAUtagCREATESTRUCTW@@@Z @ 6701 NONAME
 ?PreCreateWindow@CMDIFrameWnd@@UAEHAAUtagCREATESTRUCTW@@@Z @ 6702 NONAME
 ?PreCreateWindow@CMiniFrameWnd@@MAEHAAUtagCREATESTRUCTW@@@Z @ 6703 NONAME
 ?PreCreateWindow@CRichEditView@@MAEHAAUtagCREATESTRUCTW@@@Z @ 6704 NONAME
 ?PreCreateWindow@CStatusBar@@UAEHAAUtagCREATESTRUCTW@@@Z @ 6705 NONAME
 ?PreCreateWindow@CTreeView@@UAEHAAUtagCREATESTRUCTW@@@Z @ 6706 NONAME
 ?PreCreateWindow@CView@@MAEHAAUtagCREATESTRUCTW@@@Z @ 6707 NONAME
 ?PreCreateWindow@CWnd@@UAEHAAUtagCREATESTRUCTW@@@Z @ 6708 NONAME
 ?PreDeleteItem@CCheckListBox@@IAEXPAUtagDELETEITEMSTRUCT@@@Z @ 6709 NONAME
 ?PreDrawItem@CCheckListBox@@IAEXPAUtagDRAWITEMSTRUCT@@@Z @ 6710 NONAME
 ?PreDrawPage@CPageSetupDialog@@UAEIGGPAUtagPSDW@@@Z @ 6711 NONAME
 ?PreInitDialog@CDialog@@MAEXXZ @ 6712 NONAME
 ?PreInitDialog@COleChangeSourceDialog@@UAEXXZ @ 6713 NONAME
 ?PreMeasureItem@CCheckListBox@@IAEXPAUtagMEASUREITEMSTRUCT@@@Z @ 6714 NONAME
 ?PreModal@CDialog@@IAEPAUHWND__@@XZ @ 6715 NONAME
 ?PreModal@CPrintDialogEx@@QAEPAUHWND__@@XZ @ 6716 NONAME
 ?PreModalDialog@COleControl@@QAEXPAUHWND__@@@Z @ 6717 NONAME
 ?PrepareAndExecute@CRecordset@@IAEXXZ @ 6718 NONAME
 ?PrepareCtrl@CDataExchange@@QAEPAUHWND__@@H@Z @ 6719 NONAME
 ?PrepareEditCtrl@CDataExchange@@QAEPAUHWND__@@H@Z @ 6720 NONAME
 ?PrepareForHelp@CWnd@@QAEXXZ @ 6721 NONAME
 ?PrepareOleCtrl@CDataExchange@@QAEPAVCOleControlSite@@H@Z @ 6722 NONAME
 ?PrepareUpdateHstmt@CRecordset@@IAEXXZ @ 6723 NONAME
 ?PreProcessPageTemplate@CPropertyPage@@IAEXAAU_PROPSHEETPAGEW@@H@Z @ 6724 NONAME
 ?PressButton@CPropertySheet@@QAEXH@Z @ 6725 NONAME
 ?PressButton@CToolBarCtrl@@QAEHHH@Z @ 6726 NONAME
 ?PreSubclassWindow@CCheckListBox@@MAEXXZ @ 6727 NONAME
 ?PreSubclassWindow@CDragListBox@@UAEXXZ @ 6728 NONAME
 ?PreSubclassWindow@CWnd@@UAEXXZ @ 6729 NONAME
 ?PreTranslateInput@CWnd@@QAEHPAUtagMSG@@@Z @ 6730 NONAME
 ?PreTranslateMessage@CControlBar@@UAEHPAUtagMSG@@@Z @ 6731 NONAME
 ?PreTranslateMessage@CDialog@@UAEHPAUtagMSG@@@Z @ 6732 NONAME
 ?PreTranslateMessage@CFormView@@MAEHPAUtagMSG@@@Z @ 6733 NONAME
 ?PreTranslateMessage@CFrameWnd@@UAEHPAUtagMSG@@@Z @ 6734 NONAME
 ?PreTranslateMessage@CHtmlView@@UAEHPAUtagMSG@@@Z @ 6735 NONAME
 ?PreTranslateMessage@CMDIChildWnd@@UAEHPAUtagMSG@@@Z @ 6736 NONAME
 ?PreTranslateMessage@CMDIFrameWnd@@UAEHPAUtagMSG@@@Z @ 6737 NONAME
 ?PreTranslateMessage@COleIPFrameWnd@@UAEHPAUtagMSG@@@Z @ 6738 NONAME
 ?PreTranslateMessage@COlePropertyPage@@MAEHPAUtagMSG@@@Z @ 6739 NONAME
 ?PreTranslateMessage@CPropertyPage@@MAEHPAUtagMSG@@@Z @ 6740 NONAME
 ?PreTranslateMessage@CPropertySheet@@UAEHPAUtagMSG@@@Z @ 6741 NONAME
 ?PreTranslateMessage@CWinThread@@UAEHPAUtagMSG@@@Z @ 6742 NONAME
 ?PreTranslateMessage@CWnd@@UAEHPAUtagMSG@@@Z @ 6743 NONAME
 ?PrevDlgCtrl@CDialog@@QBEXXZ @ 6744 NONAME
 ?Print@CWnd@@QBEXPAVCDC@@K@Z @ 6745 NONAME
 ?Print@XPrint@CDocObjectServer@@UAGJKPAPAUtagDVTARGETDEVICE@@PAPAUtagPAGESET@@PAUtagSTGMEDIUM@@PAUIContinueCallback@@JPAJ4@Z @ 6746 NONAME
 ?PrintAll@CPrintDialog@@QBEHXZ @ 6747 NONAME
 ?PrintAll@CPrintDialogEx@@QBEHXZ @ 6748 NONAME
 ?PrintClient@CWnd@@QBEXPAVCDC@@K@Z @ 6749 NONAME
 ?PrintCollate@CPrintDialog@@QBEHXZ @ 6750 NONAME
 ?PrintCollate@CPrintDialogEx@@QBEHXZ @ 6751 NONAME
 ?PrintCurrentPage@CPrintDialogEx@@QBEHXZ @ 6752 NONAME
 ?PrinterDPtoScreenDP@CPreviewDC@@QBEXPAUtagPOINT@@@Z @ 6753 NONAME
 ?PrintInsideRect@CEditView@@QAEIPAVCDC@@AAUtagRECT@@II@Z @ 6754 NONAME
 ?PrintInsideRect@CRichEditView@@QAEJPAVCDC@@AAUtagRECT@@JJH@Z @ 6755 NONAME
 ?PrintPage@CRichEditView@@QAEJPAVCDC@@JJ@Z @ 6756 NONAME
 ?PrintRange@CPrintDialog@@QBEHXZ @ 6757 NONAME
 ?PrintRange@CPrintDialogEx@@QBEHXZ @ 6758 NONAME
 ?PrintSelection@CPrintDialog@@QBEHXZ @ 6759 NONAME
 ?PrintSelection@CPrintDialogEx@@QBEHXZ @ 6760 NONAME
 ?Process@COleDispatchException@@SGXPAUtagEXCEPINFO@@PBVCException@@@Z @ 6761 NONAME
 ?Process@COleException@@SGJPBVCException@@@Z @ 6762 NONAME
 ?ProcessAuxQueue@CSocket@@SGHXZ @ 6763 NONAME
 ?ProcessHelpMsg@CFrameWnd@@IAEHAAUtagMSG@@PAK@Z @ 6764 NONAME
 ?ProcessMessageFilter@CWinThread@@UAEHHPAUtagMSG@@@Z @ 6765 NONAME
 ?ProcessShellCommand@CWinApp@@QAEHAAVCCommandLineInfo@@@Z @ 6766 NONAME
 ?ProcessWndProcException@CWinApp@@UAEJPAVCException@@PBUtagMSG@@@Z @ 6767 NONAME
 ?ProcessWndProcException@CWinThread@@UAEJPAVCException@@PBUtagMSG@@@Z @ 6768 NONAME
 ?PtInRegion@CRgn@@QBEHHH@Z @ 6769 NONAME
 ?PtInRegion@CRgn@@QBEHUtagPOINT@@@Z @ 6770 NONAME
 ?PtrOfIndex@COleSafeArray@@QAEXPAJPAPAX@Z @ 6771 NONAME
 ?PtVisible@CDC@@QBEHUtagPOINT@@@Z @ 6772 NONAME
 ?PtVisible@CDC@@UBEHHH@Z @ 6773 NONAME
 ?PtVisible@CMetaFileDC@@QBEHUtagPOINT@@@Z @ 6774 NONAME
 ?PtVisible@CMetaFileDC@@UBEHHH@Z @ 6775 NONAME
 ?PulseEvent@CEvent@@QAEHXZ @ 6776 NONAME
 ?PumpMessage@CWinThread@@UAEHXZ @ 6777 NONAME
 ?PumpMessages@CSocket@@MAEHI@Z @ 6778 NONAME
 ?PushChevron@CReBarCtrl@@QAEXIJ@Z @ 6779 NONAME
 ?PushStackArgs@CCmdTarget@@IAEJPAEPBEPAXGPAUtagDISPPARAMS@@PAIPAUtagVARIANT@@@Z @ 6780 NONAME
 ?put_accName@CWnd@@UAEJUtagVARIANT@@PAG@Z @ 6781 NONAME
 ?put_accName@XAccessible@CWnd@@UAGJUtagVARIANT@@PAG@Z @ 6782 NONAME
 ?put_accValue@CWnd@@UAEJUtagVARIANT@@PAG@Z @ 6783 NONAME
 ?put_accValue@XAccessible@CWnd@@UAGJUtagVARIANT@@PAG@Z @ 6784 NONAME
 ?PutElement@COleSafeArray@@QAEXPAJPAX@Z @ 6785 NONAME
 ?PutFile@CFtpConnection@@QAEHPBG0KK@Z @ 6786 NONAME
 ?PutProperty@CHtmlView@@QAEXPBG0@Z @ 6787 NONAME
 ?PutProperty@CHtmlView@@QAEXPBGABUtagVARIANT@@@Z @ 6788 NONAME
 ?PutProperty@CHtmlView@@QAEXPBGF@Z @ 6789 NONAME
 ?PutProperty@CHtmlView@@QAEXPBGJ@Z @ 6790 NONAME
 ?PutProperty@CHtmlView@@QAEXPBGN@Z @ 6791 NONAME
 ?PX_Blob@@YAHPAVCPropExchange@@PBGAAPAXPAX@Z @ 6792 NONAME
 ?PX_Bool@@YAHPAVCPropExchange@@PBGAAH@Z @ 6793 NONAME
 ?PX_Bool@@YAHPAVCPropExchange@@PBGAAHH@Z @ 6794 NONAME
 ?PX_Color@@YAHPAVCPropExchange@@PBGAAK@Z @ 6795 NONAME
 ?PX_Color@@YAHPAVCPropExchange@@PBGAAKK@Z @ 6796 NONAME
 ?PX_Currency@@YAHPAVCPropExchange@@PBGAATtagCY@@@Z @ 6797 NONAME
 ?PX_Currency@@YAHPAVCPropExchange@@PBGAATtagCY@@T2@@Z @ 6798 NONAME
 ?PX_DataPath@@YAHPAVCPropExchange@@PBGAAVCDataPathProperty@@1@Z @ 6799 NONAME
 ?PX_DataPath@@YAHPAVCPropExchange@@PBGAAVCDataPathProperty@@ABV?$CStringT@GV?$StrTraitMFC@GV?$ChTraitsCRT@G@@@@@@@Z @ 6800 NONAME
 ?PX_Double@@YAHPAVCPropExchange@@PBGAAN@Z @ 6801 NONAME
 ?PX_Double@@YAHPAVCPropExchange@@PBGAANN@Z @ 6802 NONAME
 ?PX_Float@@YAHPAVCPropExchange@@PBGAAM@Z @ 6803 NONAME
 ?PX_Float@@YAHPAVCPropExchange@@PBGAAMM@Z @ 6804 NONAME
 ?PX_Font@@YAHPAVCPropExchange@@PBGAAVCFontHolder@@PBUtagFONTDESC@@PAUIFontDisp@@@Z @ 6805 NONAME
 ?PX_IUnknown@@YAHPAVCPropExchange@@PBGAAPAUIUnknown@@ABU_GUID@@PAU2@@Z @ 6806 NONAME
 ?PX_Long@@YAHPAVCPropExchange@@PBGAAJ@Z @ 6807 NONAME
 ?PX_Long@@YAHPAVCPropExchange@@PBGAAJJ@Z @ 6808 NONAME
 ?PX_Picture@@YAHPAVCPropExchange@@PBGAAVCPictureHolder@@@Z @ 6809 NONAME
 ?PX_Picture@@YAHPAVCPropExchange@@PBGAAVCPictureHolder@@2@Z @ 6810 NONAME
 ?PX_Short@@YAHPAVCPropExchange@@PBGAAF@Z @ 6811 NONAME
 ?PX_Short@@YAHPAVCPropExchange@@PBGAAFF@Z @ 6812 NONAME
 ?PX_String@@YAHPAVCPropExchange@@PBGAAV?$CStringT@GV?$StrTraitMFC@GV?$ChTraitsCRT@G@@@@@@@Z @ 6813 NONAME
 ?PX_String@@YAHPAVCPropExchange@@PBGAAV?$CStringT@GV?$StrTraitMFC@GV?$ChTraitsCRT@G@@@@@@1@Z @ 6814 NONAME
 ?PX_String@@YAHPAVCPropExchange@@PBGAAV?$CStringT@GV?$StrTraitMFC@GV?$ChTraitsCRT@G@@@@@@ABV2@@Z @ 6815 NONAME
 ?PX_ULong@@YAHPAVCPropExchange@@PBGAAK@Z @ 6816 NONAME
 ?PX_ULong@@YAHPAVCPropExchange@@PBGAAKK@Z @ 6817 NONAME
 ?PX_UShort@@YAHPAVCPropExchange@@PBGAAG@Z @ 6818 NONAME
 ?PX_UShort@@YAHPAVCPropExchange@@PBGAAGG@Z @ 6819 NONAME
 ?PX_VBXFontConvert@@YAHPAVCPropExchange@@AAVCFontHolder@@@Z @ 6820 NONAME
 ?QueryAcceptData@CRichEditView@@MAEJPAUIDataObject@@PAGKHPAX@Z @ 6821 NONAME
 ?QueryAcceptData@XRichEditOleCallback@CRichEditView@@UAGJPAUIDataObject@@PAGKHPAX@Z @ 6822 NONAME
 ?QueryAggregates@CCmdTarget@@QAEPAUIUnknown@@PBX@Z @ 6823 NONAME
 ?QueryContinueDrag@COleDropSource@@UAEJHK@Z @ 6824 NONAME
 ?QueryContinueDrag@XDropSource@COleDropSource@@UAGJHK@Z @ 6825 NONAME
 ?QueryDefHandler@COleControl@@IAEPAXABU_GUID@@@Z @ 6826 NONAME
 ?QueryFormsCommand@CHtmlView@@QAEJKPAH00@Z @ 6827 NONAME
 ?QueryGetData@XDataObject@COleControl@@UAGJPAUtagFORMATETC@@@Z @ 6828 NONAME
 ?QueryGetData@XDataObject@COleDataSource@@UAGJPAUtagFORMATETC@@@Z @ 6829 NONAME
 ?QueryGetData@XDataObject@COleServerDoc@@UAGJPAUtagFORMATETC@@@Z @ 6830 NONAME
 ?QueryGetData@XDataObject@COleServerItem@@UAGJPAUtagFORMATETC@@@Z @ 6831 NONAME
 ?QueryHitPoint@XViewObject@COleControl@@UAGJKPBUtagRECT@@UtagPOINT@@JPAK@Z @ 6832 NONAME
 ?QueryHitRect@XViewObject@COleControl@@UAGJKPBUtagRECT@@0JPAK@Z @ 6833 NONAME
 ?QueryInfo@CHttpFile@@QBEHKAAKPAK@Z @ 6834 NONAME
 ?QueryInfo@CHttpFile@@QBEHKAAV?$CStringT@GV?$StrTraitMFC@GV?$ChTraitsCRT@G@@@@@@PAK@Z @ 6835 NONAME
 ?QueryInfo@CHttpFile@@QBEHKPAU_SYSTEMTIME@@PAK@Z @ 6836 NONAME
 ?QueryInfo@CHttpFile@@QBEHKPAXPAK1@Z @ 6837 NONAME
 ?QueryInfoStatusCode@CHttpFile@@QBEHAAK@Z @ 6838 NONAME
 ?QueryInsertObject@XRichEditOleCallback@CRichEditView@@UAGJPAU_GUID@@PAUIStorage@@J@Z @ 6839 NONAME
 ?QueryInterface@CArchiveStream@@UAGJABU_GUID@@PAPAX@Z @ 6840 NONAME
 ?QueryInterface@CBlobProperty@@UAGJABU_GUID@@PAPAX@Z @ 6841 NONAME
 ?QueryInterface@CBrowserControlSite@@MAGJABU_GUID@@PAPAX@Z @ 6842 NONAME
 ?QueryInterface@CDHtmlControlSink@@UAGJABU_GUID@@PAPAX@Z @ 6843 NONAME
 ?QueryInterface@CDHtmlElementEventSink@@UAGJABU_GUID@@PAPAX@Z @ 6844 NONAME
 ?QueryInterface@CInnerUnknown@@UAGJABU_GUID@@PAPAX@Z @ 6845 NONAME
 ?QueryInterface@COleConnPtContainer@@UAGJABU_GUID@@PAPAX@Z @ 6846 NONAME
 ?QueryInterface@COleDispatchImpl@@UAGJABU_GUID@@PAPAX@Z @ 6847 NONAME
 ?QueryInterface@COleUILinkInfo@@UAGJABU_GUID@@PAPAX@Z @ 6848 NONAME
 ?QueryInterface@CPrintDialogEx@@UAGJABU_GUID@@PAPAX@Z @ 6849 NONAME
 ?QueryInterface@XAccessible@CWnd@@UAGJABU_GUID@@PAPAX@Z @ 6850 NONAME
 ?QueryInterface@XAccessibleServer@CWnd@@UAGJABU_GUID@@PAPAX@Z @ 6851 NONAME
 ?QueryInterface@XAdviseSink@COleClientItem@@UAGJABU_GUID@@PAPAX@Z @ 6852 NONAME
 ?QueryInterface@XAmbientProps@COleControlSite@@UAGJABU_GUID@@PAPAX@Z @ 6853 NONAME
 ?QueryInterface@XBoundObjectSite@COleControlSite@@UAGJABU_GUID@@PAPAX@Z @ 6854 NONAME
 ?QueryInterface@XClassFactory@COleObjectFactory@@UAGJABU_GUID@@PAPAX@Z @ 6855 NONAME
 ?QueryInterface@XConnPt@CConnectionPoint@@UAGJABU_GUID@@PAPAX@Z @ 6856 NONAME
 ?QueryInterface@XDataObject@COleControl@@UAGJABU_GUID@@PAPAX@Z @ 6857 NONAME
 ?QueryInterface@XDataObject@COleDataSource@@UAGJABU_GUID@@PAPAX@Z @ 6858 NONAME
 ?QueryInterface@XDataObject@COleServerDoc@@UAGJABU_GUID@@PAPAX@Z @ 6859 NONAME
 ?QueryInterface@XDataObject@COleServerItem@@UAGJABU_GUID@@PAPAX@Z @ 6860 NONAME
 ?QueryInterface@XDocHostUIHandler@CHtmlControlSite@@UAGJABU_GUID@@PAPAX@Z @ 6861 NONAME
 ?QueryInterface@XDropSource@COleDropSource@@UAGJABU_GUID@@PAPAX@Z @ 6862 NONAME
 ?QueryInterface@XDropTarget@COleDropTarget@@UAGJABU_GUID@@PAPAX@Z @ 6863 NONAME
 ?QueryInterface@XEnumVOID@CEnumArray@@UAGJABU_GUID@@PAPAX@Z @ 6864 NONAME
 ?QueryInterface@XEventSink@COleControlSite@@UAGJABU_GUID@@PAPAX@Z @ 6865 NONAME
 ?QueryInterface@XFontNotification@COleControl@@UAGJABU_GUID@@PAPAX@Z @ 6866 NONAME
 ?QueryInterface@XMessageFilter@COleMessageFilter@@UAGJABU_GUID@@PAPAX@Z @ 6867 NONAME
 ?QueryInterface@XNotifyDBEvents@COleControlSite@@UAGJABU_GUID@@PAPAX@Z @ 6868 NONAME
 ?QueryInterface@XOleCache@COleControl@@UAGJABU_GUID@@PAPAX@Z @ 6869 NONAME
 ?QueryInterface@XOleClientSite@COleClientItem@@UAGJABU_GUID@@PAPAX@Z @ 6870 NONAME
 ?QueryInterface@XOleClientSite@COleControlSite@@UAGJABU_GUID@@PAPAX@Z @ 6871 NONAME
 ?QueryInterface@XOleCommandTarget@CDocObjectServer@@UAGJABU_GUID@@PAPAX@Z @ 6872 NONAME
 ?QueryInterface@XOleCommandTarget@COleFrameHook@@UAGJABU_GUID@@PAPAX@Z @ 6873 NONAME
 ?QueryInterface@XOleContainer@COleControlContainer@@UAGJABU_GUID@@PAPAX@Z @ 6874 NONAME
 ?QueryInterface@XOleControl@COleControl@@UAGJABU_GUID@@PAPAX@Z @ 6875 NONAME
 ?QueryInterface@XOleControlSite@COleControlSite@@UAGJABU_GUID@@PAPAX@Z @ 6876 NONAME
 ?QueryInterface@XOleDocument@CDocObjectServer@@UAGJABU_GUID@@PAPAX@Z @ 6877 NONAME
 ?QueryInterface@XOleDocumentSite@COleDocObjectItem@@UAGJABU_GUID@@PAPAX@Z @ 6878 NONAME
 ?QueryInterface@XOleDocumentView@CDocObjectServer@@UAGJABU_GUID@@PAPAX@Z @ 6879 NONAME
 ?QueryInterface@XOleInPlaceActiveObject@COleControl@@UAGJABU_GUID@@PAPAX@Z @ 6880 NONAME
 ?QueryInterface@XOleInPlaceActiveObject@COleServerDoc@@UAGJABU_GUID@@PAPAX@Z @ 6881 NONAME
 ?QueryInterface@XOleInPlaceFrame@COleFrameHook@@UAGJABU_GUID@@PAPAX@Z @ 6882 NONAME
 ?QueryInterface@XOleInPlaceObject@COleControl@@UAGJABU_GUID@@PAPAX@Z @ 6883 NONAME
 ?QueryInterface@XOleInPlaceObject@COleServerDoc@@UAGJABU_GUID@@PAPAX@Z @ 6884 NONAME
 ?QueryInterface@XOleIPFrame@COleControlContainer@@UAGJABU_GUID@@PAPAX@Z @ 6885 NONAME
 ?QueryInterface@XOleIPSite@COleClientItem@@UAGJABU_GUID@@PAPAX@Z @ 6886 NONAME
 ?QueryInterface@XOleIPSite@COleControlSite@@UAGJABU_GUID@@PAPAX@Z @ 6887 NONAME
 ?QueryInterface@XOleItemContainer@COleLinkingDoc@@UAGJABU_GUID@@PAPAX@Z @ 6888 NONAME
 ?QueryInterface@XOleObject@CDocObjectServer@@UAGJABU_GUID@@PAPAX@Z @ 6889 NONAME
 ?QueryInterface@XOleObject@COleControl@@UAGJABU_GUID@@PAPAX@Z @ 6890 NONAME
 ?QueryInterface@XOleObject@COleServerDoc@@UAGJABU_GUID@@PAPAX@Z @ 6891 NONAME
 ?QueryInterface@XOleObject@COleServerItem@@UAGJABU_GUID@@PAPAX@Z @ 6892 NONAME
 ?QueryInterface@XOleUIObjInfo@COlePropertiesDialog@@UAGJABU_GUID@@PAPAX@Z @ 6893 NONAME
 ?QueryInterface@XPerPropertyBrowsing@COleControl@@UAGJABU_GUID@@PAPAX@Z @ 6894 NONAME
 ?QueryInterface@XPersistFile@COleLinkingDoc@@UAGJABU_GUID@@PAPAX@Z @ 6895 NONAME
 ?QueryInterface@XPersistMemory@COleControl@@UAGJABU_GUID@@PAPAX@Z @ 6896 NONAME
 ?QueryInterface@XPersistPropertyBag@COleControl@@UAGJABU_GUID@@PAPAX@Z @ 6897 NONAME
 ?QueryInterface@XPersistStorage@COleControl@@UAGJABU_GUID@@PAPAX@Z @ 6898 NONAME
 ?QueryInterface@XPersistStorage@COleServerDoc@@UAGJABU_GUID@@PAPAX@Z @ 6899 NONAME
 ?QueryInterface@XPersistStreamInit@COleControl@@UAGJABU_GUID@@PAPAX@Z @ 6900 NONAME
 ?QueryInterface@XPointerInactive@COleControl@@UAGJABU_GUID@@PAPAX@Z @ 6901 NONAME
 ?QueryInterface@XPrint@CDocObjectServer@@UAGJABU_GUID@@PAPAX@Z @ 6902 NONAME
 ?QueryInterface@XPropertyNotifySink@COleControlSite@@UAGJABU_GUID@@PAPAX@Z @ 6903 NONAME
 ?QueryInterface@XPropertyPage@COlePropertyPage@@UAGJABU_GUID@@PAPAX@Z @ 6904 NONAME
 ?QueryInterface@XPropNotifySink@COlePropertyPage@@UAGJABU_GUID@@PAPAX@Z @ 6905 NONAME
 ?QueryInterface@XProvideClassInfo@COleControl@@UAGJABU_GUID@@PAPAX@Z @ 6906 NONAME
 ?QueryInterface@XQuickActivate@COleControl@@UAGJABU_GUID@@PAPAX@Z @ 6907 NONAME
 ?QueryInterface@XRichEditOleCallback@CRichEditView@@UAGJABU_GUID@@PAPAX@Z @ 6908 NONAME
 ?QueryInterface@XRowsetNotify@COleControlSite@@UAGJABU_GUID@@PAPAX@Z @ 6909 NONAME
 ?QueryInterface@XSpecifyPropertyPages@COleControl@@UAGJABU_GUID@@PAPAX@Z @ 6910 NONAME
 ?QueryInterface@XViewObject@COleControl@@UAGJABU_GUID@@PAPAX@Z @ 6911 NONAME
 ?QueryOption@CInternetConnection@@QBEHKAAK@Z @ 6912 NONAME
 ?QueryOption@CInternetConnection@@QBEHKAAV?$CStringT@GV?$StrTraitMFC@GV?$ChTraitsCRT@G@@@@@@@Z @ 6913 NONAME
 ?QueryOption@CInternetConnection@@QBEHKPAXPAK@Z @ 6914 NONAME
 ?QueryOption@CInternetFile@@QBEHKAAK@Z @ 6915 NONAME
 ?QueryOption@CInternetFile@@QBEHKAAV?$CStringT@GV?$StrTraitMFC@GV?$ChTraitsCRT@G@@@@@@@Z @ 6916 NONAME
 ?QueryOption@CInternetFile@@QBEHKPAXPAK@Z @ 6917 NONAME
 ?QueryOption@CInternetSession@@QBEHKAAK@Z @ 6918 NONAME
 ?QueryOption@CInternetSession@@QBEHKAAV?$CStringT@GV?$StrTraitMFC@GV?$ChTraitsCRT@G@@@@@@@Z @ 6919 NONAME
 ?QueryOption@CInternetSession@@QBEHKPAXPAK@Z @ 6920 NONAME
 ?QuerySiblings@CPropertyPage@@QAEJIJ@Z @ 6921 NONAME
 ?QuerySinkInterface@CConnectionPoint@@UAEJPAUIUnknown@@PAPAX@Z @ 6922 NONAME
 ?QuerySinkInterface@XEventConnPt@COleControl@@UAEJPAUIUnknown@@PAPAX@Z @ 6923 NONAME
 ?QueryStatus@XOleCommandTarget@CDocObjectServer@@UAGJPBU_GUID@@KQAU_tagOLECMD@@PAU_tagOLECMDTEXT@@@Z @ 6924 NONAME
 ?QueryStatus@XOleCommandTarget@COleFrameHook@@UAGJPBU_GUID@@KQAU_tagOLECMD@@PAU_tagOLECMDTEXT@@@Z @ 6925 NONAME
 ?QueryStatusWB@CHtmlView@@QBE?AW4OLECMDF@@W4OLECMDID@@@Z @ 6926 NONAME
 ?QueryTextMetrics@CFontHolder@@QAEXPAUtagTEXTMETRICW@@@Z @ 6927 NONAME
 ?QuickActivate@COleControlSite@@UAEHXZ @ 6928 NONAME
 ?QuickActivate@XQuickActivate@COleControl@@UAGJPAUtagQACONTAINER@@PAUtagQACONTROL@@@Z @ 6929 NONAME
 ?ReactivateAndUndo@COleClientItem@@QAEHXZ @ 6930 NONAME
 ?ReactivateAndUndo@XOleInPlaceObject@COleControl@@UAGJXZ @ 6931 NONAME
 ?ReactivateAndUndo@XOleInPlaceObject@COleServerDoc@@UAGJXZ @ 6932 NONAME
 ?Read@CArchive@@QAEIPAXI@Z @ 6933 NONAME
 ?Read@CArchiveStream@@UAGJPAXKPAK@Z @ 6934 NONAME
 ?Read@CAsyncMonikerFile@@UAEIPAXI@Z @ 6935 NONAME
 ?Read@CFile@@UAEIPAXI@Z @ 6936 NONAME
 ?Read@CImageList@@QAEHPAVCArchive@@@Z @ 6937 NONAME
 ?Read@CInternetFile@@UAEIPAXI@Z @ 6938 NONAME
 ?Read@CMemFile@@UAEIPAXI@Z @ 6939 NONAME
 ?Read@COleStreamFile@@UAEIPAXI@Z @ 6940 NONAME
 ?Read@CSocketFile@@UAEIPAXI@Z @ 6941 NONAME
 ?Read@CStdioFile@@UAEIPAXI@Z @ 6942 NONAME
 ?ReadClass@CArchive@@QAEPAUCRuntimeClass@@PBU2@PAIPAK@Z @ 6943 NONAME
 ?ReadCount@CArchive@@QAEKXZ @ 6944 NONAME
 ?ReadFromArchive@CEditView@@QAEXAAVCArchive@@I@Z @ 6945 NONAME
 ?ReadFromStream@CProperty@@QAEHPAUIStream@@@Z @ 6946 NONAME
 ?ReadFromStream@CPropertySection@@QAEHPAUIStream@@T_LARGE_INTEGER@@@Z @ 6947 NONAME
 ?ReadFromStream@CPropertySet@@QAEHPAUIStream@@@Z @ 6948 NONAME
 ?ReadItem@COleClientItem@@UAEXAAVCArchive@@@Z @ 6949 NONAME
 ?ReadItemCompound@COleClientItem@@QAEXAAVCArchive@@@Z @ 6950 NONAME
 ?ReadItemFlat@COleClientItem@@QAEXAAVCArchive@@@Z @ 6951 NONAME
 ?ReadList@CRecentFileList@@UAEXXZ @ 6952 NONAME
 ?ReadNameDictFromStream@CPropertySection@@QAEHPAUIStream@@@Z @ 6953 NONAME
 ?ReadObject@CArchive@@QAEPAVCObject@@PBUCRuntimeClass@@@Z @ 6954 NONAME
 ?ReadString@CArchive@@QAEHAAV?$CStringT@GV?$StrTraitMFC@GV?$ChTraitsCRT@G@@@@@@@Z @ 6955 NONAME
 ?ReadString@CArchive@@QAEPAGPAGI@Z @ 6956 NONAME
 ?ReadString@CInternetFile@@UAEHAAV?$CStringT@GV?$StrTraitMFC@GV?$ChTraitsCRT@G@@@@@@@Z @ 6957 NONAME
 ?ReadString@CInternetFile@@UAEPAGPAGI@Z @ 6958 NONAME
 ?ReadString@CStdioFile@@UAEHAAV?$CStringT@GV?$StrTraitMFC@GV?$ChTraitsCRT@G@@@@@@@Z @ 6959 NONAME
 ?ReadString@CStdioFile@@UAEPAGPAGI@Z @ 6960 NONAME
 ?RealizePalette@CDC@@QAEIXZ @ 6961 NONAME
 ?Realloc@CMemFile@@MAEPAEPAEK@Z @ 6962 NONAME
 ?Realloc@CSharedFile@@MAEPAEPAEK@Z @ 6963 NONAME
 ?Reallocate@CAfxStringMgr@@UAEPAUCStringData@ATL@@PAU23@HH@Z @ 6964 NONAME
 ?ReallocLongBinary@CFieldExchange@@QAEPAEAAVCLongBinary@@JJ@Z @ 6965 NONAME
 ?RebindParams@CRecordset@@QAEXPAX@Z @ 6966 NONAME
 ?RecalcDelayShow@CControlBar@@UAEKPAUAFX_SIZEPARENTPARAMS@@@Z @ 6967 NONAME
 ?RecalcLayout@CFrameWnd@@UAEXH@Z @ 6968 NONAME
 ?RecalcLayout@CMiniDockFrameWnd@@UAEXH@Z @ 6969 NONAME
 ?RecalcLayout@COleCntrFrameWnd@@UAEXH@Z @ 6970 NONAME
 ?RecalcLayout@COleDocIPFrameWnd@@MAEXH@Z @ 6971 NONAME
 ?RecalcLayout@COleIPFrameWnd@@UAEXH@Z @ 6972 NONAME
 ?RecalcLayout@CSplitterWnd@@UAEXXZ @ 6973 NONAME
 ?Receive@CAsyncSocket@@UAEHPAXHH@Z @ 6974 NONAME
 ?Receive@CSocket@@UAEHPAXHH@Z @ 6975 NONAME
 ?ReceiveFrom@CAsyncSocket@@QAEHPAXHAAV?$CStringT@GV?$StrTraitMFC@GV?$ChTraitsCRT@G@@@@@@AAIH@Z @ 6976 NONAME
 ?ReceiveFrom@CAsyncSocket@@QAEHPAXHPAUsockaddr@@PAHH@Z @ 6977 NONAME
 ?ReceiveFromHelper@CAsyncSocket@@MAEHPAXHPAUsockaddr@@PAHH@Z @ 6978 NONAME
 ?ReceiveFromHelper@CSocket@@MAEHPAXHPAUsockaddr@@PAHH@Z @ 6979 NONAME
 ?RecreateControlWindow@COleControl@@QAEXXZ @ 6980 NONAME
 ?Rectangle@CDC@@QAEHHHHH@Z @ 6981 NONAME
 ?Rectangle@CDC@@QAEHPBUtagRECT@@@Z @ 6982 NONAME
 ?rectDefault@CFrameWnd@@2VCRect@@B @ 6983 NONAME DATA
 ?RectInRegion@CRgn@@QBEHPBUtagRECT@@@Z @ 6984 NONAME
 ?RectVisible@CDC@@UBEHPBUtagRECT@@@Z @ 6985 NONAME
 ?RectVisible@CMetaFileDC@@UBEHPBUtagRECT@@@Z @ 6986 NONAME
 ?Redim@COleSafeArray@@QAEXPAUtagSAFEARRAYBOUND@@@Z @ 6987 NONAME
 ?Redo@CRichEditCtrl@@QAEHXZ @ 6988 NONAME
 ?ReDockControlBar@CDockBar@@QAEXPAVCControlBar@@PBUtagRECT@@@Z @ 6989 NONAME
 ?ReDockControlBar@CFrameWnd@@QAEXPAVCControlBar@@PAVCDockBar@@PBUtagRECT@@@Z @ 6990 NONAME
 ?RedrawItems@CListCtrl@@QAEHHH@Z @ 6991 NONAME
 ?RedrawWindow@CWnd@@QAEHPBUtagRECT@@PAVCRgn@@I@Z @ 6992 NONAME
 ?ReflectChildNotify@CWnd@@IAEHIIJPAJ@Z @ 6993 NONAME
 ?ReflectLastMsg@CWnd@@KGHPAUHWND__@@PAJ@Z @ 6994 NONAME
 ?Refresh@CHtmlView@@QAEXXZ @ 6995 NONAME
 ?Refresh@COleControl@@QAEXXZ @ 6996 NONAME
 ?Refresh2@CHtmlView@@QAEXH@Z @ 6997 NONAME
 ?RefreshRowset@CRecordset@@QAEXGG@Z @ 6998 NONAME
 ?Register@COleDropTarget@@QAEHPAVCWnd@@@Z @ 6999 NONAME
 ?Register@COleLinkingDoc@@QAEHPAVCOleObjectFactory@@PBG@Z @ 7000 NONAME
 ?Register@COleMessageFilter@@QAEHXZ @ 7001 NONAME
 ?Register@COleObjectFactory@@UAEHXZ @ 7002 NONAME
 ?Register@COleTemplateServer@@UAEHXZ @ 7003 NONAME
 ?Register@CWinApp@@UAEHXZ @ 7004 NONAME
 ?RegisterAll@COleObjectFactory@@SGHXZ @ 7005 NONAME
 ?RegisterIfServerAttached@COleLinkingDoc@@MAEHPBGH@Z @ 7006 NONAME
 ?RegisterShellFileTypes@CDocManager@@UAEXH@Z @ 7007 NONAME
 ?RegisterShellFileTypes@CWinApp@@IAEXH@Z @ 7008 NONAME
 ?RelayEvent@CToolTipCtrl@@QAEXPAUtagMSG@@@Z @ 7009 NONAME
 ?Release@CArchiveStream@@UAGKXZ @ 7010 NONAME
 ?Release@CBlobProperty@@UAGKXZ @ 7011 NONAME
 ?Release@CBrowserControlSite@@MAGKXZ @ 7012 NONAME
 ?Release@CDHtmlControlSink@@UAGKXZ @ 7013 NONAME
 ?Release@CDHtmlElementEventSink@@UAGKXZ @ 7014 NONAME
 ?Release@CDHtmlEventSink@@UAGKXZ @ 7015 NONAME
 ?Release@CInnerUnknown@@UAGKXZ @ 7016 NONAME
 ?Release@COleClientItem@@UAEXW4tagOLECLOSE@@@Z @ 7017 NONAME
 ?Release@COleConnPtContainer@@UAGKXZ @ 7018 NONAME
 ?Release@COleDataObject@@QAEXXZ @ 7019 NONAME
 ?Release@COleDispatchImpl@@UAGKXZ @ 7020 NONAME
 ?Release@COleDocObjectItem@@UAEXW4tagOLECLOSE@@@Z @ 7021 NONAME
 ?Release@COleUILinkInfo@@UAGKXZ @ 7022 NONAME
 ?Release@CPrintDialogEx@@UAGKXZ @ 7023 NONAME
 ?Release@XAccessible@CWnd@@UAGKXZ @ 7024 NONAME
 ?Release@XAccessibleServer@CWnd@@UAGKXZ @ 7025 NONAME
 ?Release@XAdviseSink@COleClientItem@@UAGKXZ @ 7026 NONAME
 ?Release@XAmbientProps@COleControlSite@@UAGKXZ @ 7027 NONAME
 ?Release@XBoundObjectSite@COleControlSite@@UAGKXZ @ 7028 NONAME
 ?Release@XClassFactory@COleObjectFactory@@UAGKXZ @ 7029 NONAME
 ?Release@XConnPt@CConnectionPoint@@UAGKXZ @ 7030 NONAME
 ?Release@XDataObject@COleControl@@UAGKXZ @ 7031 NONAME
 ?Release@XDataObject@COleDataSource@@UAGKXZ @ 7032 NONAME
 ?Release@XDataObject@COleServerDoc@@UAGKXZ @ 7033 NONAME
 ?Release@XDataObject@COleServerItem@@UAGKXZ @ 7034 NONAME
 ?Release@XDocHostUIHandler@CHtmlControlSite@@UAGKXZ @ 7035 NONAME
 ?Release@XDropSource@COleDropSource@@UAGKXZ @ 7036 NONAME
 ?Release@XDropTarget@COleDropTarget@@UAGKXZ @ 7037 NONAME
 ?Release@XEnumVOID@CEnumArray@@UAGKXZ @ 7038 NONAME
 ?Release@XEventSink@COleControlSite@@UAGKXZ @ 7039 NONAME
 ?Release@XFontNotification@COleControl@@UAGKXZ @ 7040 NONAME
 ?Release@XMessageFilter@COleMessageFilter@@UAGKXZ @ 7041 NONAME
 ?Release@XNotifyDBEvents@COleControlSite@@UAGKXZ @ 7042 NONAME
 ?Release@XOleCache@COleControl@@UAGKXZ @ 7043 NONAME
 ?Release@XOleClientSite@COleClientItem@@UAGKXZ @ 7044 NONAME
 ?Release@XOleClientSite@COleControlSite@@UAGKXZ @ 7045 NONAME
 ?Release@XOleCommandTarget@CDocObjectServer@@UAGKXZ @ 7046 NONAME
 ?Release@XOleCommandTarget@COleFrameHook@@UAGKXZ @ 7047 NONAME
 ?Release@XOleContainer@COleControlContainer@@UAGKXZ @ 7048 NONAME
 ?Release@XOleControl@COleControl@@UAGKXZ @ 7049 NONAME
 ?Release@XOleControlSite@COleControlSite@@UAGKXZ @ 7050 NONAME
 ?Release@XOleDocument@CDocObjectServer@@UAGKXZ @ 7051 NONAME
 ?Release@XOleDocumentSite@COleDocObjectItem@@UAGKXZ @ 7052 NONAME
 ?Release@XOleDocumentView@CDocObjectServer@@UAGKXZ @ 7053 NONAME
 ?Release@XOleInPlaceActiveObject@COleControl@@UAGKXZ @ 7054 NONAME
 ?Release@XOleInPlaceActiveObject@COleServerDoc@@UAGKXZ @ 7055 NONAME
 ?Release@XOleInPlaceFrame@COleFrameHook@@UAGKXZ @ 7056 NONAME
 ?Release@XOleInPlaceObject@COleControl@@UAGKXZ @ 7057 NONAME
 ?Release@XOleInPlaceObject@COleServerDoc@@UAGKXZ @ 7058 NONAME
 ?Release@XOleIPFrame@COleControlContainer@@UAGKXZ @ 7059 NONAME
 ?Release@XOleIPSite@COleClientItem@@UAGKXZ @ 7060 NONAME
 ?Release@XOleIPSite@COleControlSite@@UAGKXZ @ 7061 NONAME
 ?Release@XOleItemContainer@COleLinkingDoc@@UAGKXZ @ 7062 NONAME
 ?Release@XOleObject@CDocObjectServer@@UAGKXZ @ 7063 NONAME
 ?Release@XOleObject@COleControl@@UAGKXZ @ 7064 NONAME
 ?Release@XOleObject@COleServerDoc@@UAGKXZ @ 7065 NONAME
 ?Release@XOleObject@COleServerItem@@UAGKXZ @ 7066 NONAME
 ?Release@XOleUIObjInfo@COlePropertiesDialog@@UAGKXZ @ 7067 NONAME
 ?Release@XPerPropertyBrowsing@COleControl@@UAGKXZ @ 7068 NONAME
 ?Release@XPersistFile@COleLinkingDoc@@UAGKXZ @ 7069 NONAME
 ?Release@XPersistMemory@COleControl@@UAGKXZ @ 7070 NONAME
 ?Release@XPersistPropertyBag@COleControl@@UAGKXZ @ 7071 NONAME
 ?Release@XPersistStorage@COleControl@@UAGKXZ @ 7072 NONAME
 ?Release@XPersistStorage@COleServerDoc@@UAGKXZ @ 7073 NONAME
 ?Release@XPersistStreamInit@COleControl@@UAGKXZ @ 7074 NONAME
 ?Release@XPointerInactive@COleControl@@UAGKXZ @ 7075 NONAME
 ?Release@XPrint@CDocObjectServer@@UAGKXZ @ 7076 NONAME
 ?Release@XPropertyNotifySink@COleControlSite@@UAGKXZ @ 7077 NONAME
 ?Release@XPropertyPage@COlePropertyPage@@UAGKXZ @ 7078 NONAME
 ?Release@XPropNotifySink@COlePropertyPage@@UAGKXZ @ 7079 NONAME
 ?Release@XProvideClassInfo@COleControl@@UAGKXZ @ 7080 NONAME
 ?Release@XQuickActivate@COleControl@@UAGKXZ @ 7081 NONAME
 ?Release@XRichEditOleCallback@CRichEditView@@UAGKXZ @ 7082 NONAME
 ?Release@XRowsetNotify@COleControlSite@@UAGKXZ @ 7083 NONAME
 ?Release@XSpecifyPropertyPages@COleControl@@UAGKXZ @ 7084 NONAME
 ?Release@XViewObject@COleControl@@UAGKXZ @ 7085 NONAME
 ?ReleaseAttribDC@CDC@@UAEXXZ @ 7086 NONAME
 ?ReleaseCaches@COleControl@@IAEXXZ @ 7087 NONAME
 ?ReleaseCapture@COleControl@@QAEHXZ @ 7088 NONAME
 ?ReleaseDC@COleControl@@QAEHPAVCDC@@@Z @ 7089 NONAME
 ?ReleaseDC@CWnd@@QAEHPAVCDC@@@Z @ 7090 NONAME
 ?ReleaseDC@XOleIPSite@COleControlSite@@UAGJPAUHDC__@@@Z @ 7091 NONAME
 ?ReleaseDispatch@COleDispatchDriver@@QAEXXZ @ 7092 NONAME
 ?ReleaseDocSite@CDocObjectServer@@QAEXXZ @ 7093 NONAME
 ?ReleaseFile@CDocument@@UAEXPAVCFile@@H@Z @ 7094 NONAME
 ?ReleaseFont@CFontHolder@@QAEXXZ @ 7095 NONAME
 ?ReleaseOutputDC@CDC@@UAEXXZ @ 7096 NONAME
 ?ReleaseOutputDC@CMetaFileDC@@MAEXXZ @ 7097 NONAME
 ?ReleaseOutputDC@CPreviewDC@@UAEXXZ @ 7098 NONAME
 ?Reload@COleClientItem@@QAEHXZ @ 7099 NONAME
 ?Remove@CFile@@SGXPBG@Z @ 7100 NONAME
 ?Remove@CFtpConnection@@QAEHPBG@Z @ 7101 NONAME
 ?Remove@CImageList@@QAEHH@Z @ 7102 NONAME
 ?Remove@CPropertySection@@QAEXK@Z @ 7103 NONAME
 ?Remove@CPropertySet@@QAEXU_GUID@@@Z @ 7104 NONAME
 ?Remove@CPropertySet@@QAEXU_GUID@@K@Z @ 7105 NONAME
 ?Remove@CRecentFileList@@UAEXH@Z @ 7106 NONAME
 ?Remove@CSimpleList@@QAEHPAX@Z @ 7107 NONAME
 ?RemoveAll@CByteArray@@QAEXXZ @ 7108 NONAME
 ?RemoveAll@CDWordArray@@QAEXXZ @ 7109 NONAME
 ?RemoveAll@CMapPtrToPtr@@QAEXXZ @ 7110 NONAME
 ?RemoveAll@CMapPtrToWord@@QAEXXZ @ 7111 NONAME
 ?RemoveAll@CMapStringToOb@@QAEXXZ @ 7112 NONAME
 ?RemoveAll@CMapStringToPtr@@QAEXXZ @ 7113 NONAME
 ?RemoveAll@CMapStringToString@@QAEXXZ @ 7114 NONAME
 ?RemoveAll@CMapWordToOb@@QAEXXZ @ 7115 NONAME
 ?RemoveAll@CMapWordToPtr@@QAEXXZ @ 7116 NONAME
 ?RemoveAll@CObArray@@QAEXXZ @ 7117 NONAME
 ?RemoveAll@CObList@@QAEXXZ @ 7118 NONAME
 ?RemoveAll@CPropertySection@@QAEXXZ @ 7119 NONAME
 ?RemoveAll@CPropertySet@@QAEXXZ @ 7120 NONAME
 ?RemoveAll@CPtrArray@@QAEXXZ @ 7121 NONAME
 ?RemoveAll@CPtrList@@QAEXXZ @ 7122 NONAME
 ?RemoveAll@CStringArray@@QAEXXZ @ 7123 NONAME
 ?RemoveAll@CStringList@@QAEXXZ @ 7124 NONAME
 ?RemoveAll@CTypeLibCacheMap@@UAEXPAX@Z @ 7125 NONAME
 ?RemoveAll@CUIntArray@@QAEXXZ @ 7126 NONAME
 ?RemoveAll@CWordArray@@QAEXXZ @ 7127 NONAME
 ?RemoveAt@CByteArray@@QAEXHH@Z @ 7128 NONAME
 ?RemoveAt@CDWordArray@@QAEXHH@Z @ 7129 NONAME
 ?RemoveAt@CObArray@@QAEXHH@Z @ 7130 NONAME
 ?RemoveAt@CObList@@QAEXPAU__POSITION@@@Z @ 7131 NONAME
 ?RemoveAt@CPtrArray@@QAEXHH@Z @ 7132 NONAME
 ?RemoveAt@CPtrList@@QAEXPAU__POSITION@@@Z @ 7133 NONAME
 ?RemoveAt@CStringArray@@QAEXHH@Z @ 7134 NONAME
 ?RemoveAt@CStringList@@QAEXPAU__POSITION@@@Z @ 7135 NONAME
 ?RemoveAt@CUIntArray@@QAEXHH@Z @ 7136 NONAME
 ?RemoveAt@CWordArray@@QAEXHH@Z @ 7137 NONAME
 ?RemoveControlBar@CDockBar@@QAEHPAVCControlBar@@HH@Z @ 7138 NONAME
 ?RemoveControlBar@CFrameWnd@@QAEXPAVCControlBar@@@Z @ 7139 NONAME
 ?RemoveDirectoryW@CFtpConnection@@QAEHPBG@Z @ 7140 NONAME
 ?RemoveDocument@CDocTemplate@@UAEXPAVCDocument@@@Z @ 7141 NONAME
 ?RemoveDocument@CMultiDocTemplate@@UAEXPAVCDocument@@@Z @ 7142 NONAME
 ?RemoveDocument@CSingleDocTemplate@@UAEXPAVCDocument@@@Z @ 7143 NONAME
 ?RemoveFrameLevelUI@COleControl@@MAEXXZ @ 7144 NONAME
 ?RemoveFrameWnd@CFrameWnd@@IAEXXZ @ 7145 NONAME
 ?RemoveHandle@CHandleMap@@QAEXPAX@Z @ 7146 NONAME
 ?RemoveHead@CObList@@QAEPAVCObject@@XZ @ 7147 NONAME
 ?RemoveHead@CPtrList@@QAEPAXXZ @ 7148 NONAME
 ?RemoveHead@CStringList@@QAE?AV?$CStringT@GV?$StrTraitMFC@GV?$ChTraitsCRT@G@@@@@@XZ @ 7149 NONAME
 ?RemoveImage@CTabCtrl@@QAEXH@Z @ 7150 NONAME
 ?RemoveImageList@CListCtrl@@IAEXH@Z @ 7151 NONAME
 ?RemoveImageList@CListView@@IAEXH@Z @ 7152 NONAME
 ?RemoveImageList@CTreeCtrl@@IAEXH@Z @ 7153 NONAME
 ?RemoveImageList@CTreeView@@IAEXH@Z @ 7154 NONAME
 ?RemoveItem@COleDocument@@UAEXPAVCDocItem@@@Z @ 7155 NONAME
 ?RemoveKey@CMapPtrToPtr@@QAEHPAX@Z @ 7156 NONAME
 ?RemoveKey@CMapPtrToWord@@QAEHPAX@Z @ 7157 NONAME
 ?RemoveKey@CMapStringToOb@@QAEHPBG@Z @ 7158 NONAME
 ?RemoveKey@CMapStringToPtr@@QAEHPBG@Z @ 7159 NONAME
 ?RemoveKey@CMapStringToString@@QAEHPBG@Z @ 7160 NONAME
 ?RemoveKey@CMapWordToOb@@QAEHG@Z @ 7161 NONAME
 ?RemoveKey@CMapWordToPtr@@QAEHG@Z @ 7162 NONAME
 ?RemoveMenu@CMenu@@QAEHII@Z @ 7163 NONAME
 ?RemoveMenus@XOleInPlaceFrame@COleFrameHook@@UAGJPAUHMENU__@@@Z @ 7164 NONAME
 ?RemoveMenus@XOleIPFrame@COleControlContainer@@UAGJPAUHMENU__@@@Z @ 7165 NONAME
 ?RemovePage@CPropertySheet@@QAEXH@Z @ 7166 NONAME
 ?RemovePage@CPropertySheet@@QAEXPAVCPropertyPage@@@Z @ 7167 NONAME
 ?RemovePlaceHolder@CDockBar@@QAEXPAVCControlBar@@@Z @ 7168 NONAME
 ?RemoveSource@CDataBoundProperty@@QAEXXZ @ 7169 NONAME
 ?RemoveTail@CObList@@QAEPAVCObject@@XZ @ 7170 NONAME
 ?RemoveTail@CPtrList@@QAEPAXXZ @ 7171 NONAME
 ?RemoveTail@CStringList@@QAE?AV?$CStringT@GV?$StrTraitMFC@GV?$ChTraitsCRT@G@@@@@@XZ @ 7172 NONAME
 ?RemoveView@CDocument@@QAEXPAVCView@@@Z @ 7173 NONAME
 ?Rename@CFile@@SGXPBG0@Z @ 7174 NONAME
 ?Rename@CFtpConnection@@QAEHPBG0@Z @ 7175 NONAME
 ?Render@CPictureHolder@@QAEXPAVCDC@@ABVCRect@@1@Z @ 7176 NONAME
 ?ReparentControlWindow@COleControl@@UAEXPAUHWND__@@0@Z @ 7177 NONAME
 ?Replace@CImageList@@QAEHHPAUHICON__@@@Z @ 7178 NONAME
 ?Replace@CImageList@@QAEHHPAVCBitmap@@0@Z @ 7179 NONAME
 ?ReplaceAll@CFindReplaceDialog@@QBEHXZ @ 7180 NONAME
 ?ReplaceBrackets@CDatabase@@QAEXPAG@Z @ 7181 NONAME
 ?ReplaceCurrent@CFindReplaceDialog@@QBEHXZ @ 7182 NONAME
 ?ReplaceSel@CEdit@@QAEXPBGH@Z @ 7183 NONAME
 ?ReplaceSel@CRichEditCtrl@@QAEXPBGH@Z @ 7184 NONAME
 ?ReportError@CException@@UAEHII@Z @ 7185 NONAME
 ?ReportError@COleClientItem@@UBEHJ@Z @ 7186 NONAME
 ?ReportSaveLoadException@CDocument@@UAEXPBGPAVCException@@HI@Z @ 7187 NONAME
 ?ReportSaveLoadException@COleLinkingDoc@@UAEXPBGPAVCException@@HI@Z @ 7188 NONAME
 ?RepositionBars@CWnd@@QAEXIIIIPAUtagRECT@@PBU2@H@Z @ 7189 NONAME
 ?RepositionFrame@COleIPFrameWnd@@UAEXPBUtagRECT@@0@Z @ 7190 NONAME
 ?Requery@CRecordset@@UAEHXZ @ 7191 NONAME
 ?RequestAsynchronousExchange@COleControl@@QAEXK@Z @ 7192 NONAME
 ?RequestBorderSpace@XOleInPlaceFrame@COleFrameHook@@UAGJPBUtagRECT@@@Z @ 7193 NONAME
 ?RequestBorderSpace@XOleIPFrame@COleControlContainer@@UAGJPBUtagRECT@@@Z @ 7194 NONAME
 ?RequestLicKey@XClassFactory@COleObjectFactory@@UAGJKPAPAG@Z @ 7195 NONAME
 ?RequestNewObjectLayout@XOleClientSite@COleClientItem@@UAGJXZ @ 7196 NONAME
 ?RequestNewObjectLayout@XOleClientSite@COleControlSite@@UAGJXZ @ 7197 NONAME
 ?RequestPositionChange@COleServerDoc@@QAEXPBUtagRECT@@@Z @ 7198 NONAME
 ?RequestResize@CRichEditCtrl@@QAEXXZ @ 7199 NONAME
 ?RequestUIActivate@XOleIPSite@COleControlSite@@UAGJXZ @ 7200 NONAME
 ?Reset@XEnumVOID@CEnumArray@@UAGJXZ @ 7201 NONAME
 ?ResetContent@CComboBox@@QAEXXZ @ 7202 NONAME
 ?ResetContent@CListBox@@QAEXXZ @ 7203 NONAME
 ?ResetCursor@CRecordset@@QAEXXZ @ 7204 NONAME
 ?ResetData@CCachedDataPathProperty@@UAEXXZ @ 7205 NONAME
 ?ResetData@CDataPathProperty@@UAEXXZ @ 7206 NONAME
 ?ResetDCW@CDC@@QAEHPBU_devicemodeW@@@Z @ 7207 NONAME
 ?ResetEvent@CEvent@@QAEHXZ @ 7208 NONAME
 ?ResetStockProps@COleControl@@QAEXXZ @ 7209 NONAME
 ?ResetTimer@CControlBar@@QAEXII@Z @ 7210 NONAME
 ?ResetVersion@COleControl@@QAEXK@Z @ 7211 NONAME
 ?ResizeBorder@CBrowserControlSite@@MAGJPBUtagRECT@@PAUIOleInPlaceUIWindow@@H@Z @ 7212 NONAME
 ?ResizeBorder@CDHtmlDialog@@UAGJPBUtagRECT@@PAUIOleInPlaceUIWindow@@H@Z @ 7213 NONAME
 ?ResizeBorder@XDocHostUIHandler@CHtmlControlSite@@UAGJPBUtagRECT@@PAUIOleInPlaceUIWindow@@H@Z @ 7214 NONAME
 ?ResizeBorder@XOleInPlaceActiveObject@COleControl@@UAGJPBUtagRECT@@PAUIOleInPlaceUIWindow@@H@Z @ 7215 NONAME
 ?ResizeBorder@XOleInPlaceActiveObject@COleServerDoc@@UAGJPBUtagRECT@@PAUIOleInPlaceUIWindow@@H@Z @ 7216 NONAME
 ?ResizeFrameWindow@COleControl@@MAEXHH@Z @ 7217 NONAME
 ?ResizeOneDim@COleSafeArray@@QAEXK@Z @ 7218 NONAME
 ?ResizeOpenControl@COleControl@@IAEXHH@Z @ 7219 NONAME
 ?ResizePalette@CPalette@@QAEHI@Z @ 7220 NONAME
 ?ResizeParentToFit@CScrollView@@QAEXH@Z @ 7221 NONAME
 ?Restore@CWaitCursor@@QAEXXZ @ 7222 NONAME
 ?RestoreBand@CReBarCtrl@@QAEXI@Z @ 7223 NONAME
 ?RestoreDC@CDC@@UAEHH@Z @ 7224 NONAME
 ?RestoreDC@CPreviewDC@@UAEHH@Z @ 7225 NONAME
 ?RestoreState@CToolBarCtrl@@QAEXPAUHKEY__@@PBG1@Z @ 7226 NONAME
 ?RestoreWaitCursor@CCmdTarget@@QAEXXZ @ 7227 NONAME
 ?ResumeThread@CWinThread@@QAEKXZ @ 7228 NONAME
 ?RetryRejectedCall@XMessageFilter@COleMessageFilter@@UAGKPAUHTASK__@@KK@Z @ 7229 NONAME
 ?Revert@CArchiveStream@@UAGJXZ @ 7230 NONAME
 ?Revoke@COleDropTarget@@UAEXXZ @ 7231 NONAME
 ?Revoke@COleLinkingDoc@@QAEXXZ @ 7232 NONAME
 ?Revoke@COleMessageFilter@@QAEXXZ @ 7233 NONAME
 ?Revoke@COleObjectFactory@@QAEXXZ @ 7234 NONAME
 ?RevokeAll@COleObjectFactory@@SGXXZ @ 7235 NONAME
 ?RFX_Binary@@YGXPAVCFieldExchange@@PBGAAVCByteArray@@H@Z @ 7236 NONAME
 ?RFX_Binary_Bulk@@YGXPAVCFieldExchange@@PBGPAPAEPAPAJH@Z @ 7237 NONAME
 ?RFX_Bool@@YGXPAVCFieldExchange@@PBGAAH@Z @ 7238 NONAME
 ?RFX_Bool_Bulk@@YGXPAVCFieldExchange@@PBGPAPAHPAPAJ@Z @ 7239 NONAME
 ?RFX_Byte@@YGXPAVCFieldExchange@@PBGAAE@Z @ 7240 NONAME
 ?RFX_Byte_Bulk@@YGXPAVCFieldExchange@@PBGPAPAEPAPAJ@Z @ 7241 NONAME
 ?RFX_Date@@YGXPAVCFieldExchange@@PBGAAUtagTIMESTAMP_STRUCT@@@Z @ 7242 NONAME
 ?RFX_Date@@YGXPAVCFieldExchange@@PBGAAVCOleDateTime@ATL@@@Z @ 7243 NONAME
 ?RFX_Date@@YGXPAVCFieldExchange@@PBGAAVCTime@ATL@@@Z @ 7244 NONAME
 ?RFX_Date_Bulk@@YGXPAVCFieldExchange@@PBGPAPAUtagTIMESTAMP_STRUCT@@PAPAJ@Z @ 7245 NONAME
 ?RFX_Double@@YGXPAVCFieldExchange@@PBGAAN@Z @ 7246 NONAME
 ?RFX_Double_Bulk@@YGXPAVCFieldExchange@@PBGPAPANPAPAJ@Z @ 7247 NONAME
 ?RFX_Int@@YGXPAVCFieldExchange@@PBGAAH@Z @ 7248 NONAME
 ?RFX_Int_Bulk@@YGXPAVCFieldExchange@@PBGPAPAHPAPAJ@Z @ 7249 NONAME
 ?RFX_Long@@YGXPAVCFieldExchange@@PBGAAJ@Z @ 7250 NONAME
 ?RFX_Long_Bulk@@YGXPAVCFieldExchange@@PBGPAPAJ2@Z @ 7251 NONAME
 ?RFX_LongBinary@@YGXPAVCFieldExchange@@PBGAAVCLongBinary@@@Z @ 7252 NONAME
 ?RFX_Single@@YGXPAVCFieldExchange@@PBGAAM@Z @ 7253 NONAME
 ?RFX_Single_Bulk@@YGXPAVCFieldExchange@@PBGPAPAMPAPAJ@Z @ 7254 NONAME
 ?RFX_Text@@YGXPAVCFieldExchange@@PBGAAV?$CStringT@DV?$StrTraitMFC@DV?$ChTraitsCRT@D@@@@@@HHF@Z @ 7255 NONAME
 ?RFX_Text@@YGXPAVCFieldExchange@@PBGAAV?$CStringT@GV?$StrTraitMFC@GV?$ChTraitsCRT@G@@@@@@HHF@Z @ 7256 NONAME
 ?RFX_Text@@YGXPAVCFieldExchange@@PBGPADHHF@Z @ 7257 NONAME
 ?RFX_Text@@YGXPAVCFieldExchange@@PBGPAGHHF@Z @ 7258 NONAME
 ?RFX_Text_Bulk@@YGXPAVCFieldExchange@@PBGPAPADPAPAJH@Z @ 7259 NONAME
 ?RFX_Text_Bulk@@YGXPAVCFieldExchange@@PBGPAPAGPAPAJH@Z @ 7260 NONAME
 ?Rollback@CDatabase@@QAEHXZ @ 7261 NONAME
 ?RoundRect@CDC@@QAEHHHHHHH@Z @ 7262 NONAME
 ?RoundRect@CDC@@QAEHPBUtagRECT@@UtagPOINT@@@Z @ 7263 NONAME
 ?Run@COleClientItem@@QAEXXZ @ 7264 NONAME
 ?Run@CWinApp@@UAEHXZ @ 7265 NONAME
 ?Run@CWinThread@@UAEHXZ @ 7266 NONAME
 ?RunAutomated@CWinApp@@QAEHXZ @ 7267 NONAME
 ?RunEmbedded@CWinApp@@QAEHXZ @ 7268 NONAME
 ?RunModalLoop@CWnd@@QAEHK@Z @ 7269 NONAME
 ?SafeSetProperty@COleControlSite@@UAAHJGZZ @ 7270 NONAME
 ?SameAsSelected@CEditView@@IAEHPBGH@Z @ 7271 NONAME
 ?SameAsSelected@CRichEditView@@IAEHPBGHH@Z @ 7272 NONAME
 ?Save@CBlobProperty@@UAGJPAUIStream@@H@Z @ 7273 NONAME
 ?Save@XPersistFile@COleLinkingDoc@@UAGJPBGH@Z @ 7274 NONAME
 ?Save@XPersistMemory@COleControl@@UAGJPAXHK@Z @ 7275 NONAME
 ?Save@XPersistPropertyBag@COleControl@@UAGJPAUIPropertyBag@@HH@Z @ 7276 NONAME
 ?Save@XPersistStorage@COleControl@@UAGJPAUIStorage@@H@Z @ 7277 NONAME
 ?Save@XPersistStorage@COleServerDoc@@UAGJPAUIStorage@@H@Z @ 7278 NONAME
 ?Save@XPersistStreamInit@COleControl@@UAGJPAUIStream@@H@Z @ 7279 NONAME
 ?SaveAllModified@CDocManager@@UAEHXZ @ 7280 NONAME
 ?SaveAllModified@CDocTemplate@@UAEHXZ @ 7281 NONAME
 ?SaveAllModified@CWinApp@@UAEHXZ @ 7282 NONAME
 ?SaveBarState@CFrameWnd@@QBEXPBG@Z @ 7283 NONAME
 ?SaveCompleted@XPersistFile@COleLinkingDoc@@UAGJPBG@Z @ 7284 NONAME
 ?SaveCompleted@XPersistStorage@COleControl@@UAGJPAUIStorage@@@Z @ 7285 NONAME
 ?SaveCompleted@XPersistStorage@COleServerDoc@@UAGJPAUIStorage@@@Z @ 7286 NONAME
 ?SaveDC@CDC@@UAEHXZ @ 7287 NONAME
 ?SaveDC@CPreviewDC@@UAEHXZ @ 7288 NONAME
 ?SaveEmbedding@COleServerDoc@@QAEXXZ @ 7289 NONAME
 ?SaveFocusControl@CFormView@@IAEHXZ @ 7290 NONAME
 ?SaveModified@CDocument@@UAEHXZ @ 7291 NONAME
 ?SaveModified@COleDocument@@UAEHXZ @ 7292 NONAME
 ?SaveModified@COleServerDoc@@MAEHXZ @ 7293 NONAME
 ?SaveModifiedPrompt@COleServerDoc@@IAEHXZ @ 7294 NONAME
 ?SaveObject@XOleClientSite@COleClientItem@@UAGJXZ @ 7295 NONAME
 ?SaveObject@XOleClientSite@COleControlSite@@UAGJXZ @ 7296 NONAME
 ?SaveState@CControlBarInfo@@QAEHPBGH@Z @ 7297 NONAME
 ?SaveState@CDockState@@QAEXPBG@Z @ 7298 NONAME
 ?SaveState@COleControl@@IAEJPAUIStream@@@Z @ 7299 NONAME
 ?SaveState@CToolBarCtrl@@QAEXPAUHKEY__@@PBG1@Z @ 7300 NONAME
 ?SaveStdProfileSettings@CWinApp@@IAEXXZ @ 7301 NONAME
 ?SaveToStorage@COleDocument@@MAEXPAVCObject@@@Z @ 7302 NONAME
 ?SaveToStorage@COleLinkingDoc@@MAEXPAVCObject@@@Z @ 7303 NONAME
 ?SaveViewState@XOleDocumentView@CDocObjectServer@@UAGJPAUIStream@@@Z @ 7304 NONAME
 ?ScalePoint@CDockState@@QAEXAAVCPoint@@@Z @ 7305 NONAME
 ?ScaleRectPos@CDockState@@QAEXAAVCRect@@@Z @ 7306 NONAME
 ?ScaleViewportExt@CDC@@UAE?AVCSize@@HHHH@Z @ 7307 NONAME
 ?ScaleViewportExt@CMetaFileDC@@UAE?AVCSize@@HHHH@Z @ 7308 NONAME
 ?ScaleViewportExt@CPreviewDC@@UAE?AVCSize@@HHHH@Z @ 7309 NONAME
 ?ScaleWindowExt@CDC@@UAE?AVCSize@@HHHH@Z @ 7310 NONAME
 ?ScaleWindowExt@CPreviewDC@@UAE?AVCSize@@HHHH@Z @ 7311 NONAME
 ?ScreenToClient@CWnd@@QBEXPAUtagPOINT@@@Z @ 7312 NONAME
 ?ScreenToClient@CWnd@@QBEXPAUtagRECT@@@Z @ 7313 NONAME
 ?Scroll@CListCtrl@@QAEHVCSize@@@Z @ 7314 NONAME
 ?Scroll@XOleIPSite@COleClientItem@@UAGJUtagSIZE@@@Z @ 7315 NONAME
 ?Scroll@XOleIPSite@COleControlSite@@UAGJUtagSIZE@@@Z @ 7316 NONAME
 ?ScrollChildren@COleControlContainer@@UAEXHH@Z @ 7317 NONAME
 ?ScrollContainerBy@COleServerDoc@@QAEHVCSize@@@Z @ 7318 NONAME
 ?ScrollDC@CDC@@QAEHHHPBUtagRECT@@0PAVCRgn@@PAU2@@Z @ 7319 NONAME
 ?ScrollRect@XOleIPSite@COleControlSite@@UAGJHHPBUtagRECT@@0@Z @ 7320 NONAME
 ?ScrollToDevicePosition@CScrollView@@IAEXUtagPOINT@@@Z @ 7321 NONAME
 ?ScrollToPosition@CScrollView@@QAEXUtagPOINT@@@Z @ 7322 NONAME
 ?ScrollWindow@COleControl@@QAEXHHPBUtagRECT@@0@Z @ 7323 NONAME
 ?ScrollWindow@CWnd@@QAEXHHPBUtagRECT@@0@Z @ 7324 NONAME
 ?ScrollWindowEx@CWnd@@QAEHHHPBUtagRECT@@0PAVCRgn@@PAU2@I@Z @ 7325 NONAME
 ?SearchDown@CFindReplaceDialog@@QBEHXZ @ 7326 NONAME
 ?Seek@CAnimateCtrl@@QAEHI@Z @ 7327 NONAME
 ?Seek@CArchiveStream@@UAGJT_LARGE_INTEGER@@KPAT_ULARGE_INTEGER@@@Z @ 7328 NONAME
 ?Seek@CFile@@UAE_K_JI@Z @ 7329 NONAME
 ?Seek@CInternetFile@@UAE_K_JI@Z @ 7330 NONAME
 ?Seek@CMemFile@@UAE_K_JI@Z @ 7331 NONAME
 ?Seek@COleStreamFile@@UAE_K_JI@Z @ 7332 NONAME
 ?Seek@CSocketFile@@UAE_K_JI@Z @ 7333 NONAME
 ?Seek@CStdioFile@@UAE_K_JI@Z @ 7334 NONAME
 ?SeekToBegin@CFile@@QAEXXZ @ 7335 NONAME
 ?SeekToEnd@CFile@@QAE_KXZ @ 7336 NONAME
 ?Select@CFontHolder@@QAEPAVCFont@@PAVCDC@@JJ@Z @ 7337 NONAME
 ?Select@CTreeCtrl@@QAEHPAU_TREEITEM@@I@Z @ 7338 NONAME
 ?Select_FindString@CDHtmlDialog@@IAEJPAUIHTMLSelectElement@@PAGH@Z @ 7339 NONAME
 ?SelectClipPath@CDC@@QAEHH@Z @ 7340 NONAME
 ?SelectClipRgn@CDC@@QAEHPAVCRgn@@@Z @ 7341 NONAME
 ?SelectClipRgn@CDC@@QAEHPAVCRgn@@H@Z @ 7342 NONAME
 ?SelectDropTarget@CTreeCtrl@@QAEHPAU_TREEITEM@@@Z @ 7343 NONAME
 ?SelectFontObject@COleControl@@QAEPAVCFont@@PAVCDC@@AAVCFontHolder@@@Z @ 7344 NONAME
 ?SelectGdiObject@CDC@@KGPAVCGdiObject@@PAUHDC__@@PAX@Z @ 7345 NONAME
 ?SelectionChange@CPrintDialogEx@@UAGJXZ @ 7346 NONAME
 ?SelectItem@CTreeCtrl@@QAEHPAU_TREEITEM@@@Z @ 7347 NONAME
 ?SelectObject@CDC@@QAEHPAVCRgn@@@Z @ 7348 NONAME
 ?SelectObject@CDC@@QAEPAVCBitmap@@PAV2@@Z @ 7349 NONAME
 ?SelectObject@CDC@@QAEPAVCBrush@@PAV2@@Z @ 7350 NONAME
 ?SelectObject@CDC@@QAEPAVCGdiObject@@PAV2@@Z @ 7351 NONAME
 ?SelectObject@CDC@@QAEPAVCPen@@PAV2@@Z @ 7352 NONAME
 ?SelectObject@CDC@@QAEPAXPAX@Z @ 7353 NONAME
 ?SelectObject@CDC@@UAEPAVCFont@@PAV2@@Z @ 7354 NONAME
 ?SelectObject@CPreviewDC@@UAEPAVCFont@@PAV2@@Z @ 7355 NONAME
 ?SelectPalette@CDC@@QAEPAVCPalette@@PAV2@H@Z @ 7356 NONAME
 ?SelectPrinter@CWinApp@@QAEXPAX0H@Z @ 7357 NONAME
 ?SelectSetFirstVisible@CTreeCtrl@@QAEHPAU_TREEITEM@@@Z @ 7358 NONAME
 ?SelectStockFont@COleControl@@QAEPAVCFont@@PAVCDC@@@Z @ 7359 NONAME
 ?SelectStockObject@CDC@@UAEPAVCGdiObject@@H@Z @ 7360 NONAME
 ?SelectStockObject@CPreviewDC@@UAEPAVCGdiObject@@H@Z @ 7361 NONAME
 ?SelectString@CComboBox@@QAEHHPBG@Z @ 7362 NONAME
 ?SelectString@CListBox@@QAEHHPBG@Z @ 7363 NONAME
 ?SelItemRange@CListBox@@QAEHHHH@Z @ 7364 NONAME
 ?Send@CAsyncSocket@@UAEHPBXHH@Z @ 7365 NONAME
 ?Send@CSocket@@UAEHPBXHH@Z @ 7366 NONAME
 ?SendAdvise@COleControl@@IAEXI@Z @ 7367 NONAME
 ?SendChildNotifyLastMsg@CWnd@@QAEHPAJ@Z @ 7368 NONAME
 ?SendChunk@CSocket@@QAEHPBXHH@Z @ 7369 NONAME
 ?SendDlgItemMessageW@COleControlContainer@@UAEJHIIJ@Z @ 7370 NONAME
 ?SendDlgItemMessageW@CWnd@@QAEJHIIJ@Z @ 7371 NONAME
 ?SendInitialUpdate@CDocument@@QAEXXZ @ 7372 NONAME
 ?SendLongBinaryData@CRecordset@@IAEXPAX@Z @ 7373 NONAME
 ?SendMessageToDescendants@CWnd@@QAEXIIJHH@Z @ 7374 NONAME
 ?SendMessageToDescendants@CWnd@@SGXPAUHWND__@@IIJHH@Z @ 7375 NONAME
 ?SendMessageW@CWnd@@QAEJIIJ@Z @ 7376 NONAME
 ?SendMnemonic@COleControlSite@@QAEXPAUtagMSG@@@Z @ 7377 NONAME
 ?SendNotifyMessageW@CWnd@@QAEHIIJ@Z @ 7378 NONAME
 ?SendRequest@CHttpFile@@QAEHAAV?$CStringT@GV?$StrTraitMFC@GV?$ChTraitsCRT@G@@@@@@PAXK@Z @ 7379 NONAME
 ?SendRequest@CHttpFile@@QAEHPBGKPAXK@Z @ 7380 NONAME
 ?SendRequestEx@CHttpFile@@QAEHKKK@Z @ 7381 NONAME
 ?SendRequestEx@CHttpFile@@QAEHPAU_INTERNET_BUFFERSW@@0KK@Z @ 7382 NONAME
 ?SendTo@CAsyncSocket@@QAEHPBXHIPBGH@Z @ 7383 NONAME
 ?SendTo@CAsyncSocket@@QAEHPBXHPBUsockaddr@@HH@Z @ 7384 NONAME
 ?SendToHelper@CAsyncSocket@@MAEHPBXHPBUsockaddr@@HH@Z @ 7385 NONAME
 ?SendToHelper@CSocket@@MAEHPBXHPBUsockaddr@@HH@Z @ 7386 NONAME
 ?Serialize@CByteArray@@UAEXAAVCArchive@@@Z @ 7387 NONAME
 ?Serialize@CControlBarInfo@@QAEXAAVCArchive@@PAVCDockState@@@Z @ 7388 NONAME
 ?Serialize@CDocItem@@UAEXAAVCArchive@@@Z @ 7389 NONAME
 ?Serialize@CDockState@@UAEXAAVCArchive@@@Z @ 7390 NONAME
 ?Serialize@CDWordArray@@UAEXAAVCArchive@@@Z @ 7391 NONAME
 ?Serialize@CEditView@@UAEXAAVCArchive@@@Z @ 7392 NONAME
 ?Serialize@CMapStringToOb@@UAEXAAVCArchive@@@Z @ 7393 NONAME
 ?Serialize@CMapStringToString@@UAEXAAVCArchive@@@Z @ 7394 NONAME
 ?Serialize@CMapWordToOb@@UAEXAAVCArchive@@@Z @ 7395 NONAME
 ?Serialize@CObArray@@UAEXAAVCArchive@@@Z @ 7396 NONAME
 ?Serialize@CObject@@UAEXAAVCArchive@@@Z @ 7397 NONAME
 ?Serialize@CObList@@UAEXAAVCArchive@@@Z @ 7398 NONAME
 ?Serialize@COleClientItem@@UAEXAAVCArchive@@@Z @ 7399 NONAME
 ?Serialize@COleControl@@MAEXAAVCArchive@@@Z @ 7400 NONAME
 ?Serialize@COleDocument@@UAEXAAVCArchive@@@Z @ 7401 NONAME
 ?Serialize@CRichEditDoc@@UAEXAAVCArchive@@@Z @ 7402 NONAME
 ?Serialize@CRichEditView@@UAEXAAVCArchive@@@Z @ 7403 NONAME
 ?Serialize@CStringArray@@UAEXAAVCArchive@@@Z @ 7404 NONAME
 ?Serialize@CStringList@@UAEXAAVCArchive@@@Z @ 7405 NONAME
 ?Serialize@CWordArray@@UAEXAAVCArchive@@@Z @ 7406 NONAME
 ?Serialize64@CTime@ATL@@QAEAAVCArchive@@AAV3@@Z @ 7407 NONAME
 ?Serialize64@CTimeSpan@ATL@@QAEAAVCArchive@@AAV3@@Z @ 7408 NONAME
 ?SerializeClass@CArchive@@QAEXPBUCRuntimeClass@@@Z @ 7409 NONAME
 ?SerializeElements@@YGXAAVCArchive@@PAV?$CStringT@DV?$StrTraitMFC@DV?$ChTraitsCRT@D@@@@@@H@Z @ 7410 NONAME
 ?SerializeElements@@YGXAAVCArchive@@PAV?$CStringT@GV?$StrTraitMFC@GV?$ChTraitsCRT@G@@@@@@H@Z @ 7411 NONAME
 ?SerializeElements@@YGXAAVCArchive@@PAVCComBSTR@ATL@@H@Z @ 7412 NONAME
 ?SerializeElements@@YGXAAVCArchive@@PAVCOleVariant@@H@Z @ 7413 NONAME
 ?SerializeExtent@COleControl@@QAEXAAVCArchive@@@Z @ 7414 NONAME
 ?SerializeRaw@CEditView@@QAEXAAVCArchive@@@Z @ 7415 NONAME
 ?SerializeStockProps@COleControl@@QAEXAAVCArchive@@@Z @ 7416 NONAME
 ?SerializeVersion@COleControl@@QAEKAAVCArchive@@KH@Z @ 7417 NONAME
 ?Set@CProperty@@QAEHKQAXK@Z @ 7418 NONAME
 ?Set@CProperty@@QAEHQAX@Z @ 7419 NONAME
 ?Set@CProperty@@QAEHQAXK@Z @ 7420 NONAME
 ?Set@CPropertySection@@QAEHKPAX@Z @ 7421 NONAME
 ?Set@CPropertySection@@QAEHKPAXK@Z @ 7422 NONAME
 ?Set@CPropertySet@@QAEHU_GUID@@KPAX@Z @ 7423 NONAME
 ?Set@CPropertySet@@QAEHU_GUID@@KPAXK@Z @ 7424 NONAME
 ?SetAbortProc@CDC@@QAEHP6GHPAUHDC__@@H@Z@Z @ 7425 NONAME
 ?SetAbsolutePosition@CRecordset@@QAEXJ@Z @ 7426 NONAME
 ?SetAccel@CSpinButtonCtrl@@QAEHHPAU_UDACCEL@@@Z @ 7427 NONAME
 ?SetActiveObject@XOleInPlaceFrame@COleFrameHook@@UAGJPAUIOleInPlaceActiveObject@@PBG@Z @ 7428 NONAME
 ?SetActiveObject@XOleIPFrame@COleControlContainer@@UAGJPAUIOleInPlaceActiveObject@@PBG@Z @ 7429 NONAME
 ?SetActivePage@CPropertySheet@@QAEHH@Z @ 7430 NONAME
 ?SetActivePage@CPropertySheet@@QAEHPAVCPropertyPage@@@Z @ 7431 NONAME
 ?SetActivePane@CSplitterWnd@@UAEXHHPAVCWnd@@@Z @ 7432 NONAME
 ?SetActiveView@CFrameWnd@@QAEXPAVCView@@H@Z @ 7433 NONAME
 ?SetActiveWindow@CWnd@@QAEPAV1@XZ @ 7434 NONAME
 ?SetAddress@CIPAddressCtrl@@QAEXEEEE@Z @ 7435 NONAME
 ?SetAddress@CIPAddressCtrl@@QAEXK@Z @ 7436 NONAME
 ?SetAddressBar@CHtmlView@@QAEXH@Z @ 7437 NONAME
 ?SetAdvise@XViewObject@COleControl@@UAGJKKPAUIAdviseSink@@@Z @ 7438 NONAME
 ?SetAnchorHighlight@CToolBarCtrl@@QAEHH@Z @ 7439 NONAME
 ?SetAnchorIndex@CListBox@@QAEXH@Z @ 7440 NONAME
 ?SetAppearance@COleControl@@QAEXF@Z @ 7441 NONAME
 ?SetArcDirection@CDC@@QAEHH@Z @ 7442 NONAME
 ?SetAt@CByteArray@@QAEXHE@Z @ 7443 NONAME
 ?SetAt@CDWordArray@@QAEXHK@Z @ 7444 NONAME
 ?SetAt@CMapPtrToPtr@@QAEXPAX0@Z @ 7445 NONAME
 ?SetAt@CMapPtrToWord@@QAEXPAXG@Z @ 7446 NONAME
 ?SetAt@CMapStringToOb@@QAEXPBGPAVCObject@@@Z @ 7447 NONAME
 ?SetAt@CMapStringToPtr@@QAEXPBGPAX@Z @ 7448 NONAME
 ?SetAt@CMapStringToString@@QAEXPBG0@Z @ 7449 NONAME
 ?SetAt@CMapWordToOb@@QAEXGPAVCObject@@@Z @ 7450 NONAME
 ?SetAt@CMapWordToPtr@@QAEXGPAX@Z @ 7451 NONAME
 ?SetAt@CObArray@@QAEXHPAVCObject@@@Z @ 7452 NONAME
 ?SetAt@CObList@@QAEXPAU__POSITION@@PAVCObject@@@Z @ 7453 NONAME
 ?SetAt@CPtrArray@@QAEXHPAX@Z @ 7454 NONAME
 ?SetAt@CPtrList@@QAEXPAU__POSITION@@PAX@Z @ 7455 NONAME
 ?SetAt@CStringArray@@QAEXHABV?$CStringT@GV?$StrTraitMFC@GV?$ChTraitsCRT@G@@@@@@@Z @ 7456 NONAME
 ?SetAt@CStringArray@@QAEXHPBG@Z @ 7457 NONAME
 ?SetAt@CStringList@@QAEXPAU__POSITION@@ABV?$CStringT@GV?$StrTraitMFC@GV?$ChTraitsCRT@G@@@@@@@Z @ 7458 NONAME
 ?SetAt@CStringList@@QAEXPAU__POSITION@@PBG@Z @ 7459 NONAME
 ?SetAt@CUIntArray@@QAEXHI@Z @ 7460 NONAME
 ?SetAt@CWordArray@@QAEXHG@Z @ 7461 NONAME
 ?SetAtGrow@CByteArray@@QAEXHE@Z @ 7462 NONAME
 ?SetAtGrow@CDWordArray@@QAEXHK@Z @ 7463 NONAME
 ?SetAtGrow@CObArray@@QAEXHPAVCObject@@@Z @ 7464 NONAME
 ?SetAtGrow@CPtrArray@@QAEXHPAX@Z @ 7465 NONAME
 ?SetAtGrow@CStringArray@@QAEXHABV?$CStringT@GV?$StrTraitMFC@GV?$ChTraitsCRT@G@@@@@@@Z @ 7466 NONAME
 ?SetAtGrow@CStringArray@@QAEXHPBG@Z @ 7467 NONAME
 ?SetAtGrow@CUIntArray@@QAEXHI@Z @ 7468 NONAME
 ?SetAtGrow@CWordArray@@QAEXHG@Z @ 7469 NONAME
 ?SetAttribDC@CDC@@UAEXPAUHDC__@@@Z @ 7470 NONAME
 ?SetAttribDC@CMetaFileDC@@UAEXPAUHDC__@@@Z @ 7471 NONAME
 ?SetAttribDC@CPreviewDC@@UAEXPAUHDC__@@@Z @ 7472 NONAME
 ?SetAutoURLDetect@CRichEditCtrl@@QAEHH@Z @ 7473 NONAME
 ?SetBackColor@COleControl@@QAEXK@Z @ 7474 NONAME
 ?SetBackgroundColor@CRichEditCtrl@@QAEKHK@Z @ 7475 NONAME
 ?SetBandInfo@CReBarCtrl@@QAEHIPAUtagREBARBANDINFOW@@@Z @ 7476 NONAME
 ?SetBarInfo@CControlBar@@QAEXPAVCControlBarInfo@@PAVCFrameWnd@@@Z @ 7477 NONAME
 ?SetBarInfo@CDockBar@@QAEXPAVCControlBarInfo@@PAVCFrameWnd@@@Z @ 7478 NONAME
 ?SetBarInfo@CReBarCtrl@@QAEHPAUtagREBARINFO@@@Z @ 7479 NONAME
 ?SetBarStyle@CControlBar@@QAEXK@Z @ 7480 NONAME
 ?SetBase@CSpinButtonCtrl@@QAEHH@Z @ 7481 NONAME
 ?SetBinding@CAsyncMonikerFile@@IAEXPAUIBinding@@@Z @ 7482 NONAME
 ?SetBitmap@CButton@@QAEPAUHBITMAP__@@PAU2@@Z @ 7483 NONAME
 ?SetBitmap@CStatic@@QAEPAUHBITMAP__@@PAU2@@Z @ 7484 NONAME
 ?SetBitmap@CToolBar@@QAEHPAUHBITMAP__@@@Z @ 7485 NONAME
 ?SetBitmapBits@CBitmap@@QAEKKPBX@Z @ 7486 NONAME
 ?SetBitmapDimension@CBitmap@@QAE?AVCSize@@HH@Z @ 7487 NONAME
 ?SetBitmapMargin@CHeaderCtrl@@QAEHH@Z @ 7488 NONAME
 ?SetBitmapSize@CToolBarCtrl@@QAEHVCSize@@@Z @ 7489 NONAME
 ?SetBkColor@CDC@@UAEKK@Z @ 7490 NONAME
 ?SetBkColor@CImageList@@QAEKK@Z @ 7491 NONAME
 ?SetBkColor@CListCtrl@@QAEHK@Z @ 7492 NONAME
 ?SetBkColor@CPreviewDC@@UAEKK@Z @ 7493 NONAME
 ?SetBkColor@CProgressCtrl@@QAEKK@Z @ 7494 NONAME
 ?SetBkColor@CReBarCtrl@@QAEKK@Z @ 7495 NONAME
 ?SetBkColor@CStatusBarCtrl@@QAEKK@Z @ 7496 NONAME
 ?SetBkColor@CTreeCtrl@@QAEKK@Z @ 7497 NONAME
 ?SetBkImage@CListCtrl@@QAEHPAGHHH@Z @ 7498 NONAME
 ?SetBkImage@CListCtrl@@QAEHPAUHBITMAP__@@HHH@Z @ 7499 NONAME
 ?SetBkImage@CListCtrl@@QAEHPAUtagLVBKIMAGEW@@@Z @ 7500 NONAME
 ?SetBkMode@CDC@@QAEHH@Z @ 7501 NONAME
 ?SetBookmark@CRecordset@@QAEXABVCDBVariant@@@Z @ 7502 NONAME
 ?SetBorders@CControlBar@@QAEXHHHH@Z @ 7503 NONAME
 ?SetBorders@CControlBar@@QAEXPBUtagRECT@@@Z @ 7504 NONAME
 ?SetBorders@CStatusBar@@QAEXHHHH@Z @ 7505 NONAME
 ?SetBorders@CStatusBar@@QAEXPBUtagRECT@@@Z @ 7506 NONAME
 ?SetBorderSpace@XOleInPlaceFrame@COleFrameHook@@UAGJPBUtagRECT@@@Z @ 7507 NONAME
 ?SetBorderSpace@XOleIPFrame@COleControlContainer@@UAGJPBUtagRECT@@@Z @ 7508 NONAME
 ?SetBorderStyle@COleControl@@QAEXF@Z @ 7509 NONAME
 ?SetBoundsRect@CDC@@QAEIPBUtagRECT@@I@Z @ 7510 NONAME
 ?SetBrushOrg@CDC@@QAE?AVCPoint@@HH@Z @ 7511 NONAME
 ?SetBrushOrg@CDC@@QAE?AVCPoint@@UtagPOINT@@@Z @ 7512 NONAME
 ?SetBuddy@CSliderCtrl@@QAEPAVCWnd@@PAV2@H@Z @ 7513 NONAME
 ?SetBuddy@CSpinButtonCtrl@@QAEPAVCWnd@@PAV2@@Z @ 7514 NONAME
 ?SetBusyReply@COleMessageFilter@@QAEXW4tagSERVERCALL@@@Z @ 7515 NONAME
 ?SetButtonInfo@CToolBar@@QAEXHIIH@Z @ 7516 NONAME
 ?SetButtonInfo@CToolBarCtrl@@QAEHHPAUTBBUTTONINFOW@@@Z @ 7517 NONAME
 ?SetButtons@CToolBar@@QAEHPBIH@Z @ 7518 NONAME
 ?SetButtonSize@CToolBarCtrl@@QAEHVCSize@@@Z @ 7519 NONAME
 ?SetButtonStructSize@CToolBarCtrl@@QAEXH@Z @ 7520 NONAME
 ?SetButtonStyle@CButton@@QAEXIH@Z @ 7521 NONAME
 ?SetButtonStyle@CToolBar@@QAEXHI@Z @ 7522 NONAME
 ?SetButtonText@CToolBar@@QAEHHPBG@Z @ 7523 NONAME
 ?SetButtonWidth@CToolBarCtrl@@QAEHHH@Z @ 7524 NONAME
 ?SetCallbackMask@CListCtrl@@QAEHI@Z @ 7525 NONAME
 ?SetCapture@COleControl@@QAEPAVCWnd@@XZ @ 7526 NONAME
 ?SetCapture@CWnd@@QAEPAV1@XZ @ 7527 NONAME
 ?SetCapture@XOleIPSite@COleControlSite@@UAGJH@Z @ 7528 NONAME
 ?SetCaretIndex@CListBox@@QAEHHH@Z @ 7529 NONAME
 ?SetCaretPos@CWnd@@SGXUtagPOINT@@@Z @ 7530 NONAME
 ?SetCharFormat@CRichEditView@@QAEXUCHARFORMAT2W@@@Z @ 7531 NONAME
 ?SetCheck@CButton@@QAEXH@Z @ 7532 NONAME
 ?SetCheck@CCheckListBox@@QAEXHH@Z @ 7533 NONAME
 ?SetCheck@CCmdUI@@UAEXH@Z @ 7534 NONAME
 ?SetCheck@CListCtrl@@QAEHHH@Z @ 7535 NONAME
 ?SetCheck@COleCmdUI@@UAEXH@Z @ 7536 NONAME
 ?SetCheck@CStatusCmdUI@@UAEXH@Z @ 7537 NONAME
 ?SetCheck@CTestCmdUI@@UAEXH@Z @ 7538 NONAME
 ?SetCheck@CToolCmdUI@@UAEXH@Z @ 7539 NONAME
 ?SetCheck@CTreeCtrl@@QAEHPAU_TREEITEM@@H@Z @ 7540 NONAME
 ?SetCheckStyle@CCheckListBox@@QAEXI@Z @ 7541 NONAME
 ?SetClassID@CPropertySet@@QAEXU_GUID@@@Z @ 7542 NONAME
 ?SetClientSite@CDataBoundProperty@@QAEXPAVCOleControlSite@@@Z @ 7543 NONAME
 ?SetClientSite@XOleObject@CDocObjectServer@@UAGJPAUIOleClientSite@@@Z @ 7544 NONAME
 ?SetClientSite@XOleObject@COleControl@@UAGJPAUIOleClientSite@@@Z @ 7545 NONAME
 ?SetClientSite@XOleObject@COleServerDoc@@UAGJPAUIOleClientSite@@@Z @ 7546 NONAME
 ?SetClientSite@XOleObject@COleServerItem@@UAGJPAUIOleClientSite@@@Z @ 7547 NONAME
 ?SetClipboard@COleDataSource@@QAEXXZ @ 7548 NONAME
 ?SetClipboardViewer@CWnd@@QAEPAUHWND__@@XZ @ 7549 NONAME
 ?SetCmdID@CToolBarCtrl@@QAEHHI@Z @ 7550 NONAME
 ?SetColor@CMonthCalCtrl@@QAEKHK@Z @ 7551 NONAME
 ?SetColorAdjustment@CDC@@QAEHPBUtagCOLORADJUSTMENT@@@Z @ 7552 NONAME
 ?SetColorScheme@CReBarCtrl@@QAEXPBUtagCOLORSCHEME@@@Z @ 7553 NONAME
 ?SetColorScheme@XOleObject@CDocObjectServer@@UAGJPAUtagLOGPALETTE@@@Z @ 7554 NONAME
 ?SetColorScheme@XOleObject@COleControl@@UAGJPAUtagLOGPALETTE@@@Z @ 7555 NONAME
 ?SetColorScheme@XOleObject@COleServerDoc@@UAGJPAUtagLOGPALETTE@@@Z @ 7556 NONAME
 ?SetColorScheme@XOleObject@COleServerItem@@UAGJPAUtagLOGPALETTE@@@Z @ 7557 NONAME
 ?SetColumn@CListCtrl@@QAEHHPBUtagLVCOLUMNW@@@Z @ 7558 NONAME
 ?SetColumnInfo@CSplitterWnd@@QAEXHHH@Z @ 7559 NONAME
 ?SetColumnOrderArray@CListCtrl@@QAEHHPAH@Z @ 7560 NONAME
 ?SetColumnWidth@CListBox@@QAEXH@Z @ 7561 NONAME
 ?SetColumnWidth@CListCtrl@@QAEHHH@Z @ 7562 NONAME
 ?SetConcurrencyAndCursorType@CRecordset@@IAEXPAXK@Z @ 7563 NONAME
 ?SetContainerInfo@CDocTemplate@@QAEXI@Z @ 7564 NONAME
 ?SetContentExtent@XQuickActivate@COleControl@@UAGJPAUtagSIZE@@@Z @ 7565 NONAME
 ?SetControl@CDataPathProperty@@QAEXPAVCOleControl@@@Z @ 7566 NONAME
 ?SetControl@CReflectorWnd@@QAEXPAVCOleControl@@@Z @ 7567 NONAME
 ?SetControlProperty@CDHtmlDialog@@QAEXPAUIDispatch@@JPAUtagVARIANT@@@Z @ 7568 NONAME
 ?SetControlProperty@CDHtmlDialog@@QAEXPBG0PAUtagVARIANT@@@Z @ 7569 NONAME
 ?SetControlProperty@CDHtmlDialog@@QAEXPBGJPAUtagVARIANT@@@Z @ 7570 NONAME
 ?SetControlSize@COleControl@@QAEHHH@Z @ 7571 NONAME
 ?SetControlStatus@COlePropertyPage@@QAEHIH@Z @ 7572 NONAME
 ?SetControlText@CFileDialog@@QAEXHPBD@Z @ 7573 NONAME
 ?SetCookie@CInternetSession@@SAHPBG00@Z @ 7574 NONAME
 ?SetCurFocus@CTabCtrl@@QAEXH@Z @ 7575 NONAME
 ?SetCurrency@COleCurrency@@QAEXJJ@Z @ 7576 NONAME
 ?SetCurrentColor@CColorDialog@@QAEXK@Z @ 7577 NONAME
 ?SetCurrentDirectoryW@CFtpConnection@@QAEHPBG@Z @ 7578 NONAME
 ?SetCurrentHandles@CWinApp@@QAEXXZ @ 7579 NONAME
 ?SetCurrentPage@CPreviewView@@IAEXIH@Z @ 7580 NONAME
 ?SetCurSel@CComboBox@@QAEHH@Z @ 7581 NONAME
 ?SetCurSel@CListBox@@QAEHH@Z @ 7582 NONAME
 ?SetCurSel@CMonthCalCtrl@@QAEHABVCOleDateTime@ATL@@@Z @ 7583 NONAME
 ?SetCurSel@CMonthCalCtrl@@QAEHABVCTime@ATL@@@Z @ 7584 NONAME
 ?SetCurSel@CMonthCalCtrl@@QAEHQAU_SYSTEMTIME@@@Z @ 7585 NONAME
 ?SetCurSel@CTabCtrl@@QAEHH@Z @ 7586 NONAME
 ?SetCursor@CButton@@QAEPAUHICON__@@PAU2@@Z @ 7587 NONAME
 ?SetCursor@CRectTracker@@QBEHPAVCWnd@@I@Z @ 7588 NONAME
 ?SetCursor@CStatic@@QAEPAUHICON__@@PAU2@@Z @ 7589 NONAME
 ?SetData@XDataObject@COleControl@@UAGJPAUtagFORMATETC@@PAUtagSTGMEDIUM@@H@Z @ 7590 NONAME
 ?SetData@XDataObject@COleDataSource@@UAGJPAUtagFORMATETC@@PAUtagSTGMEDIUM@@H@Z @ 7591 NONAME
 ?SetData@XDataObject@COleServerDoc@@UAGJPAUtagFORMATETC@@PAUtagSTGMEDIUM@@H@Z @ 7592 NONAME
 ?SetData@XDataObject@COleServerItem@@UAGJPAUtagFORMATETC@@PAUtagSTGMEDIUM@@H@Z @ 7593 NONAME
 ?SetData@XOleCache@COleControl@@UAGJPAUtagFORMATETC@@PAUtagSTGMEDIUM@@H@Z @ 7594 NONAME
 ?SetDayState@CMonthCalCtrl@@QAEHHPAK@Z @ 7595 NONAME
 ?SetDefaultButton@COccManager@@SAXPAVCWnd@@H@Z @ 7596 NONAME
 ?SetDefaultButton@COleControlSite@@QAEXH@Z @ 7597 NONAME
 ?SetDefaultCharFormat@CRichEditCtrl@@QAEHAAU_charformatw@@@Z @ 7598 NONAME
 ?SetDefaultCharFormat@CRichEditCtrl@@QAEHAAUCHARFORMAT2W@@@Z @ 7599 NONAME
 ?SetDefaultItem@CMenu@@QAEHIH@Z @ 7600 NONAME
 ?SetDefaultTitle@CMultiDocTemplate@@UAEXPAVCDocument@@@Z @ 7601 NONAME
 ?SetDefaultTitle@CSingleDocTemplate@@UAEXPAVCDocument@@@Z @ 7602 NONAME
 ?SetDefExt@CFileDialog@@QAEXPBD@Z @ 7603 NONAME
 ?SetDefID@CDialog@@QAEXI@Z @ 7604 NONAME
 ?SetDelayTime@CToolTipCtrl@@QAEXI@Z @ 7605 NONAME
 ?SetDelayTime@CToolTipCtrl@@QAEXKH@Z @ 7606 NONAME
 ?SetDepth@CDumpContext@@QAEXH@Z @ 7607 NONAME
 ?SetDialogResource@COlePropertyPage@@QAEXPAX@Z @ 7608 NONAME
 ?SetDirtyFieldStatus@CRecordset@@QAEXK@Z @ 7609 NONAME
 ?SetDisabledImageList@CToolBarCtrl@@QAEPAVCImageList@@PAV2@@Z @ 7610 NONAME
 ?SetDlgCtrlID@COleControlSite@@UAEHH@Z @ 7611 NONAME
 ?SetDlgCtrlID@CWnd@@QAEHH@Z @ 7612 NONAME
 ?SetDlgItemInt@COleControlContainer@@UAEXHIH@Z @ 7613 NONAME
 ?SetDlgItemInt@CWnd@@QAEXHIH@Z @ 7614 NONAME
 ?SetDlgItemTextW@COleControlContainer@@UAEXHPBG@Z @ 7615 NONAME
 ?SetDlgItemTextW@CWnd@@QAEXHPBG@Z @ 7616 NONAME
 ?SetDockState@CFrameWnd@@QAEXABVCDockState@@@Z @ 7617 NONAME
 ?SetDocSite@CDocObjectServer@@QAEXPAUIOleDocumentSite@@@Z @ 7618 NONAME
 ?SetDragCursorImage@CImageList@@QAEHHVCPoint@@@Z @ 7619 NONAME
 ?SetDrawAspect@COleClientItem@@UAEXW4tagDVASPECT@@@Z @ 7620 NONAME
 ?SetDrawAspect@CRichEditCntrItem@@UAEXW4tagDVASPECT@@@Z @ 7621 NONAME
 ?SetDrawTextFlags@CToolBarCtrl@@QAEKKK@Z @ 7622 NONAME
 ?SetDroppedWidth@CComboBox@@QAEHI@Z @ 7623 NONAME
 ?SetDSCSite@CDataBoundProperty@@QAEXPAVCOleControlSite@@@Z @ 7624 NONAME
 ?SetEditSel@CComboBox@@QAEHHH@Z @ 7625 NONAME
 ?SetEditSel@CComboBoxEx@@QAEHHH@Z @ 7626 NONAME
 ?SetElementHtml@CDHtmlDialog@@QAEXPAUIUnknown@@PAG@Z @ 7627 NONAME
 ?SetElementHtml@CDHtmlDialog@@QAEXPBGPAG@Z @ 7628 NONAME
 ?SetElementProperty@CDHtmlDialog@@QAEXPBGJPAUtagVARIANT@@@Z @ 7629 NONAME
 ?SetElementText@CDHtmlDialog@@QAEXPAUIUnknown@@PAG@Z @ 7630 NONAME
 ?SetElementText@CDHtmlDialog@@QAEXPBGPAG@Z @ 7631 NONAME
 ?SetEnabled@COleControl@@QAEXH@Z @ 7632 NONAME
 ?SetEnhMetaFile@CStatic@@QAEPAUHENHMETAFILE__@@PAU2@@Z @ 7633 NONAME
 ?SetEvent@CEvent@@QAEHXZ @ 7634 NONAME
 ?SetEventMask@CRichEditCtrl@@QAEKK@Z @ 7635 NONAME
 ?SetExtendedStyle@CComboBoxEx@@QAEKKK@Z @ 7636 NONAME
 ?SetExtendedStyle@CListCtrl@@QAEKK@Z @ 7637 NONAME
 ?SetExtendedStyle@CTabCtrl@@QAEKKK@Z @ 7638 NONAME
 ?SetExtendedStyle@CToolBarCtrl@@QAEKK@Z @ 7639 NONAME
 ?SetExtendedUI@CComboBox@@QAEHH@Z @ 7640 NONAME
 ?SetExtent@COleClientItem@@QAEXABVCSize@@W4tagDVASPECT@@@Z @ 7641 NONAME
 ?SetExtent@COleControlSite@@IAEHXZ @ 7642 NONAME
 ?SetExtent@XOleObject@CDocObjectServer@@UAGJKPAUtagSIZE@@@Z @ 7643 NONAME
 ?SetExtent@XOleObject@COleControl@@UAGJKPAUtagSIZE@@@Z @ 7644 NONAME
 ?SetExtent@XOleObject@COleServerDoc@@UAGJKPAUtagSIZE@@@Z @ 7645 NONAME
 ?SetExtent@XOleObject@COleServerItem@@UAGJKPAUtagSIZE@@@Z @ 7646 NONAME
 ?SetExternalDispatch@CDHtmlDialog@@QAEXPAUIDispatch@@@Z @ 7647 NONAME
 ?SetFieldDirty@CRecordset@@QAEXPAXH@Z @ 7648 NONAME
 ?SetFieldFocus@CIPAddressCtrl@@QAEXG@Z @ 7649 NONAME
 ?SetFieldNull@CRecordset@@QAEXPAXH@Z @ 7650 NONAME
 ?SetFieldRange@CIPAddressCtrl@@QAEXHEE@Z @ 7651 NONAME
 ?SetFieldStatus@CRecordset@@QAEXKE@Z @ 7652 NONAME
 ?SetFieldType@CFieldExchange@@QAEXI@Z @ 7653 NONAME
 ?SetFilePath@CFile@@UAEXPBG@Z @ 7654 NONAME
 ?SetFilterChangeTimeout@CHeaderCtrl@@QAEHK@Z @ 7655 NONAME
 ?SetFinishText@CPropertySheet@@QAEXPBG@Z @ 7656 NONAME
 ?SetFirstDayOfWeek@CMonthCalCtrl@@QAEHHPAH@Z @ 7657 NONAME
 ?SetFocus@COleControl@@QAEPAVCWnd@@XZ @ 7658 NONAME
 ?SetFocus@COleControlSite@@UAEPAVCWnd@@XZ @ 7659 NONAME
 ?SetFocus@CWnd@@QAEPAV1@XZ @ 7660 NONAME
 ?SetFocus@XOleIPSite@COleControlSite@@UAGJH@Z @ 7661 NONAME
 ?SetFocusToElement@CDHtmlDialog@@IAEXPBG@Z @ 7662 NONAME
 ?SetFont@CDialogTemplate@@QAEHPBGG@Z @ 7663 NONAME
 ?SetFont@CFontHolder@@QAEXPAUIFont@@@Z @ 7664 NONAME
 ?SetFont@COleControl@@QAEXPAUIFontDisp@@@Z @ 7665 NONAME
 ?SetFont@CWnd@@QAEXPAVCFont@@H@Z @ 7666 NONAME
 ?SetFontNotifySink@CFontHolder@@QAEXPAUIPropertyNotifySink@@@Z @ 7667 NONAME
 ?SetForeColor@COleControl@@QAEXK@Z @ 7668 NONAME
 ?SetForegroundWindow@CWnd@@QAEHXZ @ 7669 NONAME
 ?SetFormat@CDateTimeCtrl@@QAEHPBG@Z @ 7670 NONAME
 ?SetFormatEtc@CAsyncMonikerFile@@IAEXPAUtagFORMATETC@@@Z @ 7671 NONAME
 ?SetFormatID@CPropertySection@@QAEXU_GUID@@@Z @ 7672 NONAME
 ?SetFormatVersion@CPropertySet@@QAEXG@Z @ 7673 NONAME
 ?SetFullScreen@CHtmlView@@QAEXH@Z @ 7674 NONAME
 ?SetHandle@CEdit@@QAEXPAX@Z @ 7675 NONAME
 ?SetHandle@CSharedFile@@QAEXPAXH@Z @ 7676 NONAME
 ?SetHandles@CMDIChildWnd@@QAEXPAUHMENU__@@PAUHACCEL__@@@Z @ 7677 NONAME
 ?SetHeight@CHtmlView@@QAEXJ@Z @ 7678 NONAME
 ?SetHeight@CToolBar@@QAEXH@Z @ 7679 NONAME
 ?SetHelpCapture@CFrameWnd@@IAEPAUHWND__@@UtagPOINT@@PAH@Z @ 7680 NONAME
 ?SetHelpID@CDialog@@QAEXI@Z @ 7681 NONAME
 ?SetHelpInfo@COlePropertyPage@@QAEXPBG0K@Z @ 7682 NONAME
 ?SetHorizontalExtent@CComboBox@@QAEXI@Z @ 7683 NONAME
 ?SetHorizontalExtent@CListBox@@QAEXH@Z @ 7684 NONAME
 ?SetHostFlags@CDHtmlDialog@@QAEXK@Z @ 7685 NONAME
 ?SetHostNames@COleClientItem@@QAEXPBG0@Z @ 7686 NONAME
 ?SetHostNames@XOleObject@CDocObjectServer@@UAGJPBG0@Z @ 7687 NONAME
 ?SetHostNames@XOleObject@COleControl@@UAGJPBG0@Z @ 7688 NONAME
 ?SetHostNames@XOleObject@COleServerDoc@@UAGJPBG0@Z @ 7689 NONAME
 ?SetHostNames@XOleObject@COleServerItem@@UAGJPBG0@Z @ 7690 NONAME
 ?SetHotCursor@CListCtrl@@QAEPAUHICON__@@PAU2@@Z @ 7691 NONAME
 ?SetHotDivider@CHeaderCtrl@@QAEHH@Z @ 7692 NONAME
 ?SetHotDivider@CHeaderCtrl@@QAEHVCPoint@@@Z @ 7693 NONAME
 ?SetHotImageList@CToolBarCtrl@@QAEPAVCImageList@@PAV2@@Z @ 7694 NONAME
 ?SetHotItem@CListCtrl@@QAEHH@Z @ 7695 NONAME
 ?SetHotItem@CToolBarCtrl@@QAEHH@Z @ 7696 NONAME
 ?SetHotKey@CHotKeyCtrl@@QAEXGG@Z @ 7697 NONAME
 ?SetHoverTime@CListCtrl@@QAEKK@Z @ 7698 NONAME
 ?SetIcon@CButton@@QAEPAUHICON__@@PAU2@@Z @ 7699 NONAME
 ?SetIcon@CStatic@@QAEPAUHICON__@@PAU2@@Z @ 7700 NONAME
 ?SetIcon@CStatusBarCtrl@@QAEHHPAUHICON__@@@Z @ 7701 NONAME
 ?SetIcon@CWnd@@QAEPAUHICON__@@PAU2@H@Z @ 7702 NONAME
 ?SetIconicMetafile@COleClientItem@@QAEHPAX@Z @ 7703 NONAME
 ?SetIconSpacing@CListCtrl@@QAE?AVCSize@@HH@Z @ 7704 NONAME
 ?SetIconSpacing@CListCtrl@@QAE?AVCSize@@V2@@Z @ 7705 NONAME
 ?SetID@CProperty@@QAEXK@Z @ 7706 NONAME
 ?SetImageCount@CImageList@@QAEHI@Z @ 7707 NONAME
 ?SetImageList@CComboBoxEx@@QAEPAVCImageList@@PAV2@@Z @ 7708 NONAME
 ?SetImageList@CHeaderCtrl@@QAEPAVCImageList@@PAV2@@Z @ 7709 NONAME
 ?SetImageList@CListCtrl@@QAEPAVCImageList@@PAV2@H@Z @ 7710 NONAME
 ?SetImageList@CReBarCtrl@@QAEHPAVCImageList@@@Z @ 7711 NONAME
 ?SetImageList@CTabCtrl@@QAEPAVCImageList@@PAV2@@Z @ 7712 NONAME
 ?SetImageList@CToolBarCtrl@@QAEPAVCImageList@@PAV2@@Z @ 7713 NONAME
 ?SetImageList@CTreeCtrl@@QAEPAVCImageList@@PAV2@H@Z @ 7714 NONAME
 ?SetIndent@CToolBarCtrl@@QAEHH@Z @ 7715 NONAME
 ?SetIndent@CTreeCtrl@@QAEXI@Z @ 7716 NONAME
 ?SetIndicators@CStatusBar@@QAEHPBIH@Z @ 7717 NONAME
 ?SetInitialDataFormats@COleControl@@MAEXXZ @ 7718 NONAME
 ?SetInitialPageNum@XPrint@CDocObjectServer@@UAGJJ@Z @ 7719 NONAME
 ?SetInitialSize@COleControl@@QAEXHH@Z @ 7720 NONAME
 ?SetInPlaceOwner@CControlBar@@QAEXPAVCWnd@@@Z @ 7721 NONAME
 ?SetInPlaceSite@XOleDocumentView@CDocObjectServer@@UAGJPAUIOleInPlaceSite@@@Z @ 7722 NONAME
 ?SetInsertMark@CToolBarCtrl@@QAEXPAUTBINSERTMARK@@@Z @ 7723 NONAME
 ?SetInsertMark@CTreeCtrl@@QAEHPAU_TREEITEM@@H@Z @ 7724 NONAME
 ?SetInsertMarkColor@CToolBarCtrl@@QAEKK@Z @ 7725 NONAME
 ?SetInsertMarkColor@CTreeCtrl@@QAEKK@Z @ 7726 NONAME
 ?SetItem@CComboBoxEx@@QAEHPBUtagCOMBOBOXEXITEMW@@@Z @ 7727 NONAME
 ?SetItem@CHeaderCtrl@@QAEHHPAU_HD_ITEMW@@@Z @ 7728 NONAME
 ?SetItem@CListCtrl@@QAEHHHIPBGHIIJ@Z @ 7729 NONAME
 ?SetItem@CListCtrl@@QAEHHHIPBGHIIJH@Z @ 7730 NONAME
 ?SetItem@CListCtrl@@QAEHPBUtagLVITEMW@@@Z @ 7731 NONAME
 ?SetItem@CTabCtrl@@QAEHHPAUtagTCITEMW@@@Z @ 7732 NONAME
 ?SetItem@CTreeCtrl@@QAEHPAU_TREEITEM@@IPBGHHIIJ@Z @ 7733 NONAME
 ?SetItem@CTreeCtrl@@QAEHPAUtagTVITEMW@@@Z @ 7734 NONAME
 ?SetItemCount@CListCtrl@@QAEXH@Z @ 7735 NONAME
 ?SetItemCountEx@CListCtrl@@QAEHHK@Z @ 7736 NONAME
 ?SetItemData@CComboBox@@QAEHHK@Z @ 7737 NONAME
 ?SetItemData@CListBox@@QAEHHK@Z @ 7738 NONAME
 ?SetItemData@CListCtrl@@QAEHHK@Z @ 7739 NONAME
 ?SetItemData@CTreeCtrl@@QAEHPAU_TREEITEM@@K@Z @ 7740 NONAME
 ?SetItemDataPtr@CComboBox@@QAEHHPAX@Z @ 7741 NONAME
 ?SetItemDataPtr@CListBox@@QAEHHPAX@Z @ 7742 NONAME
 ?SetItemExtra@CTabCtrl@@QAEHH@Z @ 7743 NONAME
 ?SetItemHeight@CComboBox@@QAEHHI@Z @ 7744 NONAME
 ?SetItemHeight@CListBox@@QAEHHI@Z @ 7745 NONAME
 ?SetItemHeight@CTreeCtrl@@QAEFF@Z @ 7746 NONAME
 ?SetItemImage@CTreeCtrl@@QAEHPAU_TREEITEM@@HH@Z @ 7747 NONAME
 ?SetItemName@COleServerItem@@QAEXPBG@Z @ 7748 NONAME
 ?SetItemPosition@CListCtrl@@QAEHHUtagPOINT@@@Z @ 7749 NONAME
 ?SetItemRects@COleClientItem@@QAEHPBUtagRECT@@0@Z @ 7750 NONAME
 ?SetItemSize@CTabCtrl@@QAE?AVCSize@@V2@@Z @ 7751 NONAME
 ?SetItemState@CListCtrl@@QAEHHII@Z @ 7752 NONAME
 ?SetItemState@CListCtrl@@QAEHHPAUtagLVITEMW@@@Z @ 7753 NONAME
 ?SetItemState@CTabCtrl@@QAEHHKK@Z @ 7754 NONAME
 ?SetItemState@CTreeCtrl@@QAEHPAU_TREEITEM@@II@Z @ 7755 NONAME
 ?SetItemText@CListCtrl@@QAEHHHPBG@Z @ 7756 NONAME
 ?SetItemText@CTreeCtrl@@QAEHPAU_TREEITEM@@PBG@Z @ 7757 NONAME
 ?SetLayout@CDC@@QAEKK@Z @ 7758 NONAME
 ?SetLeft@CHtmlView@@QAEXJ@Z @ 7759 NONAME
 ?SetLength@CFile@@UAEX_K@Z @ 7760 NONAME
 ?SetLength@CInternetFile@@UAEX_K@Z @ 7761 NONAME
 ?SetLength@CMemFile@@UAEX_K@Z @ 7762 NONAME
 ?SetLength@COleStreamFile@@UAEX_K@Z @ 7763 NONAME
 ?SetLength@CSocketFile@@UAEX_K@Z @ 7764 NONAME
 ?SetLimitText@CEdit@@QAEXI@Z @ 7765 NONAME
 ?SetLineColor@CTreeCtrl@@QAEKK@Z @ 7766 NONAME
 ?SetLineSize@CSliderCtrl@@QAEHH@Z @ 7767 NONAME
 ?SetLinkSource@COleUILinkInfo@@UAGJKPAGKPAKH@Z @ 7768 NONAME
 ?SetLinkUpdateOptions@COleClientItem@@QAEXW4tagOLEUPDATE@@@Z @ 7769 NONAME
 ?SetLinkUpdateOptions@COleUILinkInfo@@UAGJKK@Z @ 7770 NONAME
 ?SetLoadParams@CArchive@@QAEXI@Z @ 7771 NONAME
 ?SetLocale@CComboBox@@QAEKK@Z @ 7772 NONAME
 ?SetLocale@CListBox@@QAEKK@Z @ 7773 NONAME
 ?SetLockingMode@CRecordset@@QAEXI@Z @ 7774 NONAME
 ?SetLoginTimeout@CDatabase@@QAEXK@Z @ 7775 NONAME
 ?SetMapMode@CDC@@UAEHH@Z @ 7776 NONAME
 ?SetMapMode@CPreviewDC@@UAEHH@Z @ 7777 NONAME
 ?SetMapperFlags@CDC@@QAEKK@Z @ 7778 NONAME
 ?SetMargin@CToolTipCtrl@@QAEXPAUtagRECT@@@Z @ 7779 NONAME
 ?SetMargins@CEdit@@QAEXII@Z @ 7780 NONAME
 ?SetMargins@CRichEditView@@QAEXABVCRect@@@Z @ 7781 NONAME
 ?SetMaxPage@CPrintInfo@@QAEXI@Z @ 7782 NONAME
 ?SetMaxSelCount@CMonthCalCtrl@@QAEHH@Z @ 7783 NONAME
 ?SetMaxTextRows@CToolBarCtrl@@QAEHH@Z @ 7784 NONAME
 ?SetMaxTipWidth@CToolTipCtrl@@QAEHH@Z @ 7785 NONAME
 ?SetMenu@CWnd@@QAEHPAVCMenu@@@Z @ 7786 NONAME
 ?SetMenu@XOleInPlaceFrame@COleFrameHook@@UAGJPAUHMENU__@@PAXPAUHWND__@@@Z @ 7787 NONAME
 ?SetMenu@XOleIPFrame@COleControlContainer@@UAGJPAUHMENU__@@PAXPAUHWND__@@@Z @ 7788 NONAME
 ?SetMenuBar@CHtmlView@@QAEXH@Z @ 7789 NONAME
 ?SetMenuContextHelpId@CMenu@@QAEHK@Z @ 7790 NONAME
 ?SetMenuItemBitmaps@CMenu@@QAEHIIPBVCBitmap@@0@Z @ 7791 NONAME
 ?SetMenuItemInfoW@CMenu@@QAEHIPAUtagMENUITEMINFOW@@H@Z @ 7792 NONAME
 ?SetMessagePendingDelay@COleMessageFilter@@QAEXK@Z @ 7793 NONAME
 ?SetMessageText@CFrameWnd@@QAEXI@Z @ 7794 NONAME
 ?SetMessageText@CFrameWnd@@QAEXPBG@Z @ 7795 NONAME
 ?SetMinHeight@CStatusBarCtrl@@QAEXH@Z @ 7796 NONAME
 ?SetMinPage@CPrintInfo@@QAEXI@Z @ 7797 NONAME
 ?SetMinTabWidth@CTabCtrl@@QAEHH@Z @ 7798 NONAME
 ?SetMiterLimit@CDC@@QAEHM@Z @ 7799 NONAME
 ?SetModified@CPropertyPage@@QAEXH@Z @ 7800 NONAME
 ?SetModifiedFlag@CDocument@@UAEXH@Z @ 7801 NONAME
 ?SetModifiedFlag@COleControl@@QAEXH@Z @ 7802 NONAME
 ?SetModifiedFlag@COlePropertyPage@@QAEXH@Z @ 7803 NONAME
 ?SetModifiedFlag@CRichEditDoc@@UAEXH@Z @ 7804 NONAME
 ?SetModify@CEdit@@QAEXH@Z @ 7805 NONAME
 ?SetModify@CRichEditCtrl@@QAEXH@Z @ 7806 NONAME
 ?SetMoniker@XOleObject@CDocObjectServer@@UAGJKPAUIMoniker@@@Z @ 7807 NONAME
 ?SetMoniker@XOleObject@COleControl@@UAGJKPAUIMoniker@@@Z @ 7808 NONAME
 ?SetMoniker@XOleObject@COleServerDoc@@UAGJKPAUIMoniker@@@Z @ 7809 NONAME
 ?SetMoniker@XOleObject@COleServerItem@@UAGJKPAUIMoniker@@@Z @ 7810 NONAME
 ?SetMonthCalColor@CDateTimeCtrl@@QAEKHK@Z @ 7811 NONAME
 ?SetMonthCalFont@CDateTimeCtrl@@QAEXPAUHFONT__@@H@Z @ 7812 NONAME
 ?SetMonthDelta@CMonthCalCtrl@@QAEHH@Z @ 7813 NONAME
 ?SetName@CPropertySection@@QAEHKPBG@Z @ 7814 NONAME
 ?SetNotPermitted@COleControl@@QAEXXZ @ 7815 NONAME
 ?SetNotSupported@CCmdTarget@@QAEXXZ @ 7816 NONAME
 ?SetNotSupported@COleControl@@QAEXXZ @ 7817 NONAME
 ?SetNullFieldStatus@CRecordset@@QAEXK@Z @ 7818 NONAME
 ?SetNullParamStatus@CRecordset@@QAEXK@Z @ 7819 NONAME
 ?SetObjectRects@XOleInPlaceObject@COleControl@@UAGJPBUtagRECT@@0@Z @ 7820 NONAME
 ?SetObjectRects@XOleInPlaceObject@COleServerDoc@@UAGJPBUtagRECT@@0@Z @ 7821 NONAME
 ?SetObjects@XPropertyPage@COlePropertyPage@@UAGJKPAPAUIUnknown@@@Z @ 7822 NONAME
 ?SetObjectSchema@CArchive@@QAEXI@Z @ 7823 NONAME
 ?SetOccDialogInfo@CDialog@@MAEHPAU_AFX_OCC_DIALOG_INFO@@@Z @ 7824 NONAME
 ?SetOccDialogInfo@CDialogBar@@MAEHPAU_AFX_OCC_DIALOG_INFO@@@Z @ 7825 NONAME
 ?SetOccDialogInfo@CFormView@@MAEHPAU_AFX_OCC_DIALOG_INFO@@@Z @ 7826 NONAME
 ?SetOccDialogInfo@CWnd@@MAEHPAU_AFX_OCC_DIALOG_INFO@@@Z @ 7827 NONAME
 ?SetOffline@CHtmlView@@QAEXH@Z @ 7828 NONAME
 ?SetOLECallback@CRichEditCtrl@@QAEHPAUIRichEditOleCallback@@@Z @ 7829 NONAME
 ?SetOption@CInternetConnection@@QAEHKKK@Z @ 7830 NONAME
 ?SetOption@CInternetConnection@@QAEHKPAXKK@Z @ 7831 NONAME
 ?SetOption@CInternetFile@@QAEHKKK@Z @ 7832 NONAME
 ?SetOption@CInternetFile@@QAEHKPAXKK@Z @ 7833 NONAME
 ?SetOption@CInternetSession@@QAEHKKK@Z @ 7834 NONAME
 ?SetOption@CInternetSession@@QAEHKPAXKK@Z @ 7835 NONAME
 ?SetOptions@CRichEditCtrl@@QAEXGK@Z @ 7836 NONAME
 ?SetOrderArray@CHeaderCtrl@@QAEHHPAH@Z @ 7837 NONAME
 ?SetOSVersion@CPropertySet@@QAEXK@Z @ 7838 NONAME
 ?SetOutputDC@CDC@@UAEXPAUHDC__@@@Z @ 7839 NONAME
 ?SetOutputDC@CMetaFileDC@@MAEXPAUHDC__@@@Z @ 7840 NONAME
 ?SetOutputDC@CPreviewDC@@UAEXPAUHDC__@@@Z @ 7841 NONAME
 ?SetOverlayImage@CImageList@@QAEHHH@Z @ 7842 NONAME
 ?SetOwner@CReBarCtrl@@QAEPAVCWnd@@PAV2@@Z @ 7843 NONAME
 ?SetOwner@CToolBar@@QAEXPAVCWnd@@@Z @ 7844 NONAME
 ?SetOwner@CToolBarCtrl@@QAEXPAVCWnd@@@Z @ 7845 NONAME
 ?SetOwner@CWnd@@QAEXPAV1@@Z @ 7846 NONAME
 ?SetPadding@CTabCtrl@@QAEXVCSize@@@Z @ 7847 NONAME
 ?SetPageName@COlePropertyPage@@QAEXPBG@Z @ 7848 NONAME
 ?SetPageSite@XPropertyPage@COlePropertyPage@@UAGJPAUIPropertyPageSite@@@Z @ 7849 NONAME
 ?SetPageSize@CSliderCtrl@@QAEHH@Z @ 7850 NONAME
 ?SetPalette@CReBarCtrl@@QAEPAVCPalette@@PAUHPALETTE__@@@Z @ 7851 NONAME
 ?SetPaletteEntries@CPalette@@QAEIIIPAUtagPALETTEENTRY@@@Z @ 7852 NONAME
 ?SetPaneInfo@CStatusBar@@QAEXHIIH@Z @ 7853 NONAME
 ?SetPaneStyle@CStatusBar@@QAEXHI@Z @ 7854 NONAME
 ?SetPaneText@CStatusBar@@QAEHHPBGH@Z @ 7855 NONAME
 ?SetPaperSize@CRichEditView@@QAEXVCSize@@@Z @ 7856 NONAME
 ?SetParaFormat@CRichEditCtrl@@QAEHAAU_paraformat@@@Z @ 7857 NONAME
 ?SetParaFormat@CRichEditCtrl@@QAEHAAUPARAFORMAT2@@@Z @ 7858 NONAME
 ?SetParaFormat@CRichEditView@@QAEHAAUPARAFORMAT2@@@Z @ 7859 NONAME
 ?SetParamNull@CRecordset@@QAEXHH@Z @ 7860 NONAME
 ?SetParent@CWnd@@QAEPAV1@PAV1@@Z @ 7861 NONAME
 ?SetParts@CStatusBarCtrl@@QAEHHPAH@Z @ 7862 NONAME
 ?SetPasswordChar@CEdit@@QAEXG@Z @ 7863 NONAME
 ?SetPath@CDataPathProperty@@QAEXPBG@Z @ 7864 NONAME
 ?SetPathName@CDocument@@UAEXPBGH@Z @ 7865 NONAME
 ?SetPathName@COleDocument@@UAEXPBGH@Z @ 7866 NONAME
 ?SetPathName@CRichEditDoc@@UAEXPBGH@Z @ 7867 NONAME
 ?SetPermanent@CHandleMap@@QAEXPAXPAVCObject@@@Z @ 7868 NONAME
 ?SetPictureDispatch@CPictureHolder@@QAEXPAUIPictureDisp@@@Z @ 7869 NONAME
 ?SetPixel@CDC@@QAEKHHK@Z @ 7870 NONAME
 ?SetPixel@CDC@@QAEKUtagPOINT@@K@Z @ 7871 NONAME
 ?SetPixelV@CDC@@QAEHHHK@Z @ 7872 NONAME
 ?SetPixelV@CDC@@QAEHUtagPOINT@@K@Z @ 7873 NONAME
 ?SetPolyFillMode@CDC@@QAEHH@Z @ 7874 NONAME
 ?SetPos@CProgressCtrl@@QAEHH@Z @ 7875 NONAME
 ?SetPos@CSliderCtrl@@QAEXH@Z @ 7876 NONAME
 ?SetPos@CSpinButtonCtrl@@QAEHH@Z @ 7877 NONAME
 ?SetPos32@CSpinButtonCtrl@@QAEHH@Z @ 7878 NONAME
 ?SetPreviewMode@COleIPFrameWnd@@QAEXH@Z @ 7879 NONAME
 ?SetPrintDevice@COleClientItem@@QAEHPBUtagDVTARGETDEVICE@@@Z @ 7880 NONAME
 ?SetPrintDevice@COleClientItem@@QAEHPBUtagPDW@@@Z @ 7881 NONAME
 ?SetPrinterFont@CEditView@@QAEXPAVCFont@@@Z @ 7882 NONAME
 ?SetPrintView@CPreviewView@@QAEHPAVCView@@@Z @ 7883 NONAME
 ?SetPropCheck@COlePropertyPage@@QAEHPBGH@Z @ 7884 NONAME
 ?SetProperty@COleControlSite@@UAAXJGZZ @ 7885 NONAME
 ?SetProperty@COleDispatchDriver@@QAAXJGZZ @ 7886 NONAME
 ?SetProperty@CWnd@@QAAXJGZZ @ 7887 NONAME
 ?SetPropertyV@COleControlSite@@UAEXJGPAD@Z @ 7888 NONAME
 ?SetPropIndex@COlePropertyPage@@QAEHPBGH@Z @ 7889 NONAME
 ?SetPropRadio@COlePropertyPage@@QAEHPBGH@Z @ 7890 NONAME
 ?SetPropsetData@COleControl@@IAEHPAUtagFORMATETC@@PAUtagSTGMEDIUM@@ABU_GUID@@@Z @ 7891 NONAME
 ?SetPropText@COlePropertyPage@@QAEHPBGAAE@Z @ 7892 NONAME
 ?SetPropText@COlePropertyPage@@QAEHPBGAAF@Z @ 7893 NONAME
 ?SetPropText@COlePropertyPage@@QAEHPBGAAH@Z @ 7894 NONAME
 ?SetPropText@COlePropertyPage@@QAEHPBGAAI@Z @ 7895 NONAME
 ?SetPropText@COlePropertyPage@@QAEHPBGAAJ@Z @ 7896 NONAME
 ?SetPropText@COlePropertyPage@@QAEHPBGAAK@Z @ 7897 NONAME
 ?SetPropText@COlePropertyPage@@QAEHPBGAAM@Z @ 7898 NONAME
 ?SetPropText@COlePropertyPage@@QAEHPBGAAN@Z @ 7899 NONAME
 ?SetPropText@COlePropertyPage@@QAEHPBGAAV?$CStringT@GV?$StrTraitMFC@GV?$ChTraitsCRT@G@@@@@@@Z @ 7900 NONAME
 ?SetProxy@CWnd@@UAEJPAUIAccessibleProxy@@@Z @ 7901 NONAME
 ?SetProxy@XAccessibleServer@CWnd@@UAGJPAUIAccessibleProxy@@@Z @ 7902 NONAME
 ?SetPunctuation@CRichEditCtrl@@QAEHIPAU_punctuation@@@Z @ 7903 NONAME
 ?SetQueryTimeout@CDatabase@@QAEXK@Z @ 7904 NONAME
 ?SetRadio@CCmdUI@@UAEXH@Z @ 7905 NONAME
 ?SetRadio@CTestCmdUI@@UAEXH@Z @ 7906 NONAME
 ?SetRange@CDateTimeCtrl@@QAEHPBVCOleDateTime@ATL@@0@Z @ 7907 NONAME
 ?SetRange@CDateTimeCtrl@@QAEHPBVCTime@ATL@@0@Z @ 7908 NONAME
 ?SetRange@CMonthCalCtrl@@QAEHPBVCOleDateTime@ATL@@0@Z @ 7909 NONAME
 ?SetRange@CMonthCalCtrl@@QAEHPBVCTime@ATL@@0@Z @ 7910 NONAME
 ?SetRange@CMonthCalCtrl@@QAEHQAU_SYSTEMTIME@@0@Z @ 7911 NONAME
 ?SetRange@CProgressCtrl@@QAEXFF@Z @ 7912 NONAME
 ?SetRange@CSliderCtrl@@QAEXHHH@Z @ 7913 NONAME
 ?SetRange@CSpinButtonCtrl@@QAEXHH@Z @ 7914 NONAME
 ?SetRange32@CProgressCtrl@@QAEXHH@Z @ 7915 NONAME
 ?SetRange32@CSpinButtonCtrl@@QAEXHH@Z @ 7916 NONAME
 ?SetRangeMax@CSliderCtrl@@QAEXHH@Z @ 7917 NONAME
 ?SetRangeMin@CSliderCtrl@@QAEXHH@Z @ 7918 NONAME
 ?SetReadBufferSize@CInternetFile@@QAEHI@Z @ 7919 NONAME
 ?SetReadOnly@CEdit@@QAEHH@Z @ 7920 NONAME
 ?SetReadOnly@CRichEditCtrl@@QAEHH@Z @ 7921 NONAME
 ?SetRect@CEdit@@QAEXPBUtagRECT@@@Z @ 7922 NONAME
 ?SetRect@CRichEditCtrl@@QAEXPBUtagRECT@@@Z @ 7923 NONAME
 ?SetRect@XOleDocumentView@CDocObjectServer@@UAGJPAUtagRECT@@@Z @ 7924 NONAME
 ?SetRectComplex@XOleDocumentView@CDocObjectServer@@UAGJPAUtagRECT@@000@Z @ 7925 NONAME
 ?SetRectInContainer@COleControl@@QAEHPBUtagRECT@@@Z @ 7926 NONAME
 ?SetRectNP@CEdit@@QAEXPBUtagRECT@@@Z @ 7927 NONAME
 ?SetRectRgn@CRgn@@QAEXHHHH@Z @ 7928 NONAME
 ?SetRectRgn@CRgn@@QAEXPBUtagRECT@@@Z @ 7929 NONAME
 ?SetRedraw@CWnd@@QAEXH@Z @ 7930 NONAME
 ?SetRegisterAsBrowser@CHtmlView@@QAEXH@Z @ 7931 NONAME
 ?SetRegisterAsDropTarget@CHtmlView@@QAEXH@Z @ 7932 NONAME
 ?SetRegistryKey@CWinApp@@IAEXI@Z @ 7933 NONAME
 ?SetRegistryKey@CWinApp@@IAEXPBG@Z @ 7934 NONAME
 ?SetRetryReply@COleMessageFilter@@QAEXK@Z @ 7935 NONAME
 ?SetROP2@CDC@@QAEHH@Z @ 7936 NONAME
 ?SetRowInfo@CSplitterWnd@@QAEXHHH@Z @ 7937 NONAME
 ?SetRows@CToolBarCtrl@@QAEXHHPAUtagRECT@@@Z @ 7938 NONAME
 ?SetRowsetCurrencyStatus@CRecordset@@UAEXFGJK@Z @ 7939 NONAME
 ?SetRowsetCursorPosition@CRecordset@@QAEXGG@Z @ 7940 NONAME
 ?SetRowsetSize@CRecordset@@UAEXK@Z @ 7941 NONAME
 ?SetRules@CHotKeyCtrl@@QAEXGG@Z @ 7942 NONAME
 ?SetScaledSize@CPreviewView@@IAEXI@Z @ 7943 NONAME
 ?SetScaleRatio@CPreviewDC@@QAEXHH@Z @ 7944 NONAME
 ?SetScaleToFitSize@CScrollView@@QAEXUtagSIZE@@@Z @ 7945 NONAME
 ?SetScreenSize@CDockState@@QAEXAAVCSize@@@Z @ 7946 NONAME
 ?SetScrollInfo@CScrollBar@@QAEHPAUtagSCROLLINFO@@H@Z @ 7947 NONAME
 ?SetScrollInfo@CWnd@@QAEHHPAUtagSCROLLINFO@@H@Z @ 7948 NONAME
 ?SetScrollPos@CScrollBar@@QAEHHH@Z @ 7949 NONAME
 ?SetScrollPos@CWnd@@QAEHHHH@Z @ 7950 NONAME
 ?SetScrollRange@CScrollBar@@QAEXHHH@Z @ 7951 NONAME
 ?SetScrollRange@CWnd@@QAEXHHHH@Z @ 7952 NONAME
 ?SetScrollSizes@CScrollView@@QAEXHUtagSIZE@@ABU2@1@Z @ 7953 NONAME
 ?SetScrollStyle@CSplitterWnd@@QAEXK@Z @ 7954 NONAME
 ?SetScrollTime@CTreeCtrl@@QAEII@Z @ 7955 NONAME
 ?SetSectionName@CPropertySection@@QAEHPBG@Z @ 7956 NONAME
 ?SetSel@CEdit@@QAEXHHH@Z @ 7957 NONAME
 ?SetSel@CEdit@@QAEXKH@Z @ 7958 NONAME
 ?SetSel@CListBox@@QAEHHH@Z @ 7959 NONAME
 ?SetSel@CRichEditCtrl@@QAEXAAU_charrange@@@Z @ 7960 NONAME
 ?SetSel@CRichEditCtrl@@QAEXJJ@Z @ 7961 NONAME
 ?SetSelection@CSliderCtrl@@QAEXHH@Z @ 7962 NONAME
 ?SetSelectionCharFormat@CRichEditCtrl@@QAEHAAU_charformatw@@@Z @ 7963 NONAME
 ?SetSelectionCharFormat@CRichEditCtrl@@QAEHAAUCHARFORMAT2W@@@Z @ 7964 NONAME
 ?SetSelectionCheck@CCheckListBox@@IAEXH@Z @ 7965 NONAME
 ?SetSelectionMark@CListCtrl@@QAEHH@Z @ 7966 NONAME
 ?SetSelRange@CMonthCalCtrl@@QAEHABVCOleDateTime@ATL@@0@Z @ 7967 NONAME
 ?SetSelRange@CMonthCalCtrl@@QAEHABVCTime@ATL@@0@Z @ 7968 NONAME
 ?SetSelRange@CMonthCalCtrl@@QAEHQAU_SYSTEMTIME@@0@Z @ 7969 NONAME
 ?SetServerInfo@CDocTemplate@@QAEXIIPAUCRuntimeClass@@0@Z @ 7970 NONAME
 ?SetSilent@CHtmlView@@QAEXH@Z @ 7971 NONAME
 ?SetSimple@CStatusBarCtrl@@QAEHH@Z @ 7972 NONAME
 ?SetSite@CPrintDialogEx@@UAGJPAUIUnknown@@@Z @ 7973 NONAME
 ?SetSize@CArchiveStream@@UAGJT_ULARGE_INTEGER@@@Z @ 7974 NONAME
 ?SetSize@CByteArray@@QAEXHH@Z @ 7975 NONAME
 ?SetSize@CDWordArray@@QAEXHH@Z @ 7976 NONAME
 ?SetSize@CObArray@@QAEXHH@Z @ 7977 NONAME
 ?SetSize@CPtrArray@@QAEXHH@Z @ 7978 NONAME
 ?SetSize@CStringArray@@QAEXHH@Z @ 7979 NONAME
 ?SetSize@CUIntArray@@QAEXHH@Z @ 7980 NONAME
 ?SetSize@CWordArray@@QAEXHH@Z @ 7981 NONAME
 ?SetSizes@CToolBar@@QAEXUtagSIZE@@0@Z @ 7982 NONAME
 ?SetSockOpt@CAsyncSocket@@QAEHHPBXHH@Z @ 7983 NONAME
 ?SetSplitCursor@CSplitterWnd@@MAEXH@Z @ 7984 NONAME
 ?SetStandardProp@CCmdTarget@@IAEJPBUAFX_DISPMAP_ENTRY@@PAUtagDISPPARAMS@@PAI@Z @ 7985 NONAME
 ?SetState@CButton@@QAEXH@Z @ 7986 NONAME
 ?SetState@CRecordset@@IAEXHPBGK@Z @ 7987 NONAME
 ?SetState@CToolBarCtrl@@QAEHHI@Z @ 7988 NONAME
 ?SetStatus@CFile@@SGXPBGABUCFileStatus@@@Z @ 7989 NONAME
 ?SetStatus@COleCurrency@@QAEXW4CurrencyStatus@1@@Z @ 7990 NONAME
 ?SetStatusBar@CHtmlView@@QAEXH@Z @ 7991 NONAME
 ?SetStatusText@CControlBar@@UAEHH@Z @ 7992 NONAME
 ?SetStatusText@XOleInPlaceFrame@COleFrameHook@@UAGJPBG@Z @ 7993 NONAME
 ?SetStatusText@XOleIPFrame@COleControlContainer@@UAGJPBG@Z @ 7994 NONAME
 ?SetStep@CProgressCtrl@@QAEHH@Z @ 7995 NONAME
 ?SetStoreParams@CArchive@@QAEXII@Z @ 7996 NONAME
 ?SetStretchBltMode@CDC@@QAEHH@Z @ 7997 NONAME
 ?SetString@COleVariant@@QAEXPBGG@Z @ 7998 NONAME
 ?SetStyle@CToolBarCtrl@@QAEXK@Z @ 7999 NONAME
 ?SetSynchronousMode@CDatabase@@QAEXH@Z @ 8000 NONAME
 ?SetSystemFont@CDialogTemplate@@QAEHG@Z @ 8001 NONAME
 ?SetTabStops@CEdit@@QAEHABH@Z @ 8002 NONAME
 ?SetTabStops@CEdit@@QAEHHPAH@Z @ 8003 NONAME
 ?SetTabStops@CEdit@@QAEXXZ @ 8004 NONAME
 ?SetTabStops@CEditView@@QAEXH@Z @ 8005 NONAME
 ?SetTabStops@CListBox@@QAEHABH@Z @ 8006 NONAME
 ?SetTabStops@CListBox@@QAEHHPAH@Z @ 8007 NONAME
 ?SetTabStops@CListBox@@QAEXXZ @ 8008 NONAME
 ?SetTargetDevice@CRichEditCtrl@@QAEHAAVCDC@@J@Z @ 8009 NONAME
 ?SetTargetDevice@CRichEditCtrl@@QAEHPAUHDC__@@J@Z @ 8010 NONAME
 ?SetTemplate@CDialogTemplate@@IAEHPBUDLGTEMPLATE@@I@Z @ 8011 NONAME
 ?SetTemplate@CFileDialog@@QAEXII@Z @ 8012 NONAME
 ?SetTemplate@CFileDialog@@QAEXPBG0@Z @ 8013 NONAME
 ?SetText@CCmdUI@@UAEXPBG@Z @ 8014 NONAME
 ?SetText@COleCmdUI@@UAEXPBG@Z @ 8015 NONAME
 ?SetText@COleControl@@QAEXPBG@Z @ 8016 NONAME
 ?SetText@CStatusBarCtrl@@QAEHPBGHH@Z @ 8017 NONAME
 ?SetText@CStatusCmdUI@@UAEXPBG@Z @ 8018 NONAME
 ?SetText@CTestCmdUI@@UAEXPBG@Z @ 8019 NONAME
 ?SetText@CToolCmdUI@@UAEXPBG@Z @ 8020 NONAME
 ?SetTextAlign@CDC@@QAEII@Z @ 8021 NONAME
 ?SetTextBkColor@CListCtrl@@QAEHK@Z @ 8022 NONAME
 ?SetTextCharacterExtra@CDC@@QAEHH@Z @ 8023 NONAME
 ?SetTextColor@CDC@@UAEKK@Z @ 8024 NONAME
 ?SetTextColor@CListCtrl@@QAEHK@Z @ 8025 NONAME
 ?SetTextColor@CPreviewDC@@UAEKK@Z @ 8026 NONAME
 ?SetTextColor@CReBarCtrl@@QAEKK@Z @ 8027 NONAME
 ?SetTextColor@CTreeCtrl@@QAEKK@Z @ 8028 NONAME
 ?SetTextJustification@CDC@@QAEHHH@Z @ 8029 NONAME
 ?SetTextMode@CRichEditCtrl@@QAEHI@Z @ 8030 NONAME
 ?SetTheaterMode@CHtmlView@@QAEXH@Z @ 8031 NONAME
 ?SetThreadPriority@CWinThread@@QAEHH@Z @ 8032 NONAME
 ?SetTic@CSliderCtrl@@QAEHH@Z @ 8033 NONAME
 ?SetTicFreq@CSliderCtrl@@QAEXH@Z @ 8034 NONAME
 ?SetTime@CDateTimeCtrl@@QAEHABVCOleDateTime@ATL@@@Z @ 8035 NONAME
 ?SetTime@CDateTimeCtrl@@QAEHPAU_SYSTEMTIME@@@Z @ 8036 NONAME
 ?SetTime@CDateTimeCtrl@@QAEHPBVCTime@ATL@@@Z @ 8037 NONAME
 ?SetTimer@CWnd@@QAEIIIP6GXPAUHWND__@@IIK@Z@Z @ 8038 NONAME
 ?SetTipBkColor@CToolTipCtrl@@QAEXK@Z @ 8039 NONAME
 ?SetTipSide@CSliderCtrl@@QAEHH@Z @ 8040 NONAME
 ?SetTipText@CStatusBarCtrl@@QAEXHPBG@Z @ 8041 NONAME
 ?SetTipTextColor@CToolTipCtrl@@QAEXK@Z @ 8042 NONAME
 ?SetTitle@CDocument@@UAEXPBG@Z @ 8043 NONAME
 ?SetTitle@CFrameWnd@@QAEXPBG@Z @ 8044 NONAME
 ?SetTitle@CPropertySheet@@QAEXPBGI@Z @ 8045 NONAME
 ?SetTitle@CRichEditDoc@@UAEXPBG@Z @ 8046 NONAME
 ?SetTitle@CToolTipCtrl@@QAEHIPBG@Z @ 8047 NONAME
 ?SetToday@CMonthCalCtrl@@QAEXABVCOleDateTime@ATL@@@Z @ 8048 NONAME
 ?SetToday@CMonthCalCtrl@@QAEXPBVCTime@ATL@@@Z @ 8049 NONAME
 ?SetToday@CMonthCalCtrl@@QAEXQAU_SYSTEMTIME@@@Z @ 8050 NONAME
 ?SetToolBar@CHtmlView@@QAEXH@Z @ 8051 NONAME
 ?SetToolInfo@CToolTipCtrl@@QAEXPAUtagTOOLINFOW@@@Z @ 8052 NONAME
 ?SetToolRect@CToolTipCtrl@@QAEXPAVCWnd@@IPBUtagRECT@@@Z @ 8053 NONAME
 ?SetToolTips@CListCtrl@@QAEPAVCToolTipCtrl@@PAV2@@Z @ 8054 NONAME
 ?SetToolTips@CReBarCtrl@@QAEXPAVCToolTipCtrl@@@Z @ 8055 NONAME
 ?SetToolTips@CSliderCtrl@@QAEXPAVCToolTipCtrl@@@Z @ 8056 NONAME
 ?SetToolTips@CTabCtrl@@QAEXPAVCToolTipCtrl@@@Z @ 8057 NONAME
 ?SetToolTips@CToolBarCtrl@@QAEXPAVCToolTipCtrl@@@Z @ 8058 NONAME
 ?SetToolTips@CTreeCtrl@@QAEPAVCToolTipCtrl@@PAV2@@Z @ 8059 NONAME
 ?SetTop@CHtmlView@@QAEXJ@Z @ 8060 NONAME
 ?SetTopIndex@CComboBox@@QAEHH@Z @ 8061 NONAME
 ?SetTopIndex@CListBox@@QAEHH@Z @ 8062 NONAME
 ?SetTopLeftOffset@CPreviewDC@@QAEXVCSize@@@Z @ 8063 NONAME
 ?SetType@CProperty@@QAEXK@Z @ 8064 NONAME
 ?SetUndoLimit@CRichEditCtrl@@QAEII@Z @ 8065 NONAME
 ?SetUpdateMethod@CRecordset@@IAEXXZ @ 8066 NONAME
 ?SetValue@CThreadSlotData@@QAEXHPAX@Z @ 8067 NONAME
 ?SetViewInfo@XOleUIObjInfo@COlePropertiesDialog@@UAGJKPAXKHH@Z @ 8068 NONAME
 ?SetViewportExt@CDC@@QAE?AVCSize@@UtagSIZE@@@Z @ 8069 NONAME
 ?SetViewportExt@CDC@@UAE?AVCSize@@HH@Z @ 8070 NONAME
 ?SetViewportExt@CMetaFileDC@@QAE?AVCSize@@UtagSIZE@@@Z @ 8071 NONAME
 ?SetViewportExt@CMetaFileDC@@UAE?AVCSize@@HH@Z @ 8072 NONAME
 ?SetViewportExt@CPreviewDC@@UAE?AVCSize@@HH@Z @ 8073 NONAME
 ?SetViewportOrg@CDC@@QAE?AVCPoint@@UtagPOINT@@@Z @ 8074 NONAME
 ?SetViewportOrg@CDC@@UAE?AVCPoint@@HH@Z @ 8075 NONAME
 ?SetViewportOrg@CMetaFileDC@@QAE?AVCPoint@@UtagPOINT@@@Z @ 8076 NONAME
 ?SetViewportOrg@CMetaFileDC@@UAE?AVCPoint@@HH@Z @ 8077 NONAME
 ?SetViewportOrg@CPreviewDC@@UAE?AVCPoint@@HH@Z @ 8078 NONAME
 ?SetVisible@CHtmlView@@QAEXH@Z @ 8079 NONAME
 ?SetWidth@CHtmlView@@QAEXJ@Z @ 8080 NONAME
 ?SetWindowContextHelpId@CWnd@@QAEHK@Z @ 8081 NONAME
 ?SetWindowExt@CDC@@QAE?AVCSize@@UtagSIZE@@@Z @ 8082 NONAME
 ?SetWindowExt@CDC@@UAE?AVCSize@@HH@Z @ 8083 NONAME
 ?SetWindowExt@CPreviewDC@@UAE?AVCSize@@HH@Z @ 8084 NONAME
 ?SetWindowOrg@CDC@@QAE?AVCPoint@@HH@Z @ 8085 NONAME
 ?SetWindowOrg@CDC@@QAE?AVCPoint@@UtagPOINT@@@Z @ 8086 NONAME
 ?SetWindowPlacement@CWnd@@QAEHPBUtagWINDOWPLACEMENT@@@Z @ 8087 NONAME
 ?SetWindowPos@COleControlSite@@UAEHPBVCWnd@@HHHHI@Z @ 8088 NONAME
 ?SetWindowPos@CWnd@@QAEHPBV1@HHHHI@Z @ 8089 NONAME
 ?SetWindowRgn@CWnd@@QAEHPAUHRGN__@@H@Z @ 8090 NONAME
 ?SetWindowTextW@COleControlSite@@UAEXPBG@Z @ 8091 NONAME
 ?SetWindowTextW@CWnd@@QAEXPBG@Z @ 8092 NONAME
 ?SetWizardButtons@CPropertySheet@@QAEXK@Z @ 8093 NONAME
 ?SetWizardMode@CPropertySheet@@QAEXXZ @ 8094 NONAME
 ?SetWordCharFormat@CRichEditCtrl@@QAEHAAU_charformatw@@@Z @ 8095 NONAME
 ?SetWordCharFormat@CRichEditCtrl@@QAEHAAUCHARFORMAT2W@@@Z @ 8096 NONAME
 ?SetWordWrapMode@CRichEditCtrl@@QBEII@Z @ 8097 NONAME
 ?SetWorkAreas@CListCtrl@@QAEXHPAUtagRECT@@@Z @ 8098 NONAME
 ?SetWriteBufferSize@CInternetFile@@QAEHI@Z @ 8099 NONAME
 ?SetZoomState@CPreviewView@@IAEXIIVCPoint@@@Z @ 8100 NONAME
 ?Show@XOleDocumentView@CDocObjectServer@@UAGJH@Z @ 8101 NONAME
 ?Show@XPropertyPage@COlePropertyPage@@UAGJI@Z @ 8102 NONAME
 ?ShowAll@CDockBar@@QAEXH@Z @ 8103 NONAME
 ?ShowBand@CReBarCtrl@@QAEHIH@Z @ 8104 NONAME
 ?ShowCaret@CWnd@@QAEXXZ @ 8105 NONAME
 ?ShowContainerUI@CRichEditCntrItem@@QAEJH@Z @ 8106 NONAME
 ?ShowContainerUI@CRichEditView@@QAEJH@Z @ 8107 NONAME
 ?ShowContainerUI@XRichEditOleCallback@CRichEditView@@UAGJH@Z @ 8108 NONAME
 ?ShowContextMenu@CBrowserControlSite@@MAGJKPAUtagPOINT@@PAUIUnknown@@PAUIDispatch@@@Z @ 8109 NONAME
 ?ShowContextMenu@CDHtmlDialog@@UAGJKPAUtagPOINT@@PAUIUnknown@@PAUIDispatch@@@Z @ 8110 NONAME
 ?ShowContextMenu@XDocHostUIHandler@CHtmlControlSite@@UAGJKPAUtagPOINT@@PAUIUnknown@@PAUIDispatch@@@Z @ 8111 NONAME
 ?ShowControlBar@CFrameWnd@@QAEXPAVCControlBar@@HH@Z @ 8112 NONAME
 ?ShowDropDown@CComboBox@@QAEXH@Z @ 8113 NONAME
 ?ShowObject@XOleClientSite@COleClientItem@@UAGJXZ @ 8114 NONAME
 ?ShowObject@XOleClientSite@COleControlSite@@UAGJXZ @ 8115 NONAME
 ?ShowOwnedPopups@CWnd@@QAEXH@Z @ 8116 NONAME
 ?ShowOwnedWindows@CFrameWnd@@QAEXH@Z @ 8117 NONAME
 ?ShowPropertyFrame@XOleControlSite@COleControlSite@@UAGJXZ @ 8118 NONAME
 ?ShowScrollBar@CScrollBar@@QAEXH@Z @ 8119 NONAME
 ?ShowScrollBar@CWnd@@QAEXIH@Z @ 8120 NONAME
 ?ShowUI@CBrowserControlSite@@MAGJKPAUIOleInPlaceActiveObject@@PAUIOleCommandTarget@@PAUIOleInPlaceFrame@@PAUIOleInPlaceUIWindow@@@Z @ 8121 NONAME
 ?ShowUI@CDHtmlDialog@@UAGJKPAUIOleInPlaceActiveObject@@PAUIOleCommandTarget@@PAUIOleInPlaceFrame@@PAUIOleInPlaceUIWindow@@@Z @ 8122 NONAME
 ?ShowUI@XDocHostUIHandler@CHtmlControlSite@@UAGJKPAUIOleInPlaceActiveObject@@PAUIOleCommandTarget@@PAUIOleInPlaceFrame@@PAUIOleInPlaceUIWindow@@@Z @ 8123 NONAME
 ?ShowWindow@COleControlSite@@UAEHH@Z @ 8124 NONAME
 ?ShowWindow@CWnd@@QAEHH@Z @ 8125 NONAME
 ?ShutDown@CAsyncSocket@@QAEHH@Z @ 8126 NONAME
 ?sizeDefault@CScrollView@@2UtagSIZE@@B @ 8127 NONAME DATA
 ?SizeMinReq@CMonthCalCtrl@@QAEHH@Z @ 8128 NONAME
 ?SizeToContent@CBitmapButton@@QAEXXZ @ 8129 NONAME
 ?SizeToolBar@CToolBar@@IAEXPAU_TBBUTTON@@HHH@Z @ 8130 NONAME
 ?SizeToRect@CReBarCtrl@@QAEHAAVCRect@@@Z @ 8131 NONAME
 ?Skip@XEnumVOID@CEnumArray@@UAGJK@Z @ 8132 NONAME
 ?SkipDeletedRecords@CRecordset@@QAEXGJPAKPAF@Z @ 8133 NONAME
 ?Socket@CAsyncSocket@@QAEHHJHH@Z @ 8134 NONAME
 ?SortChildren@CTreeCtrl@@QAEHPAU_TREEITEM@@@Z @ 8135 NONAME
 ?SortChildrenCB@CTreeCtrl@@QAEHPAUtagTVSORTCB@@@Z @ 8136 NONAME
 ?SortItems@CListCtrl@@QAEHP6GHJJJ@ZK@Z @ 8137 NONAME
 ?SplitColumn@CSplitterWnd@@UAEHH@Z @ 8138 NONAME
 ?SplitDialogTemplate@COccManager@@UAEPAUDLGTEMPLATE@@PBU2@PAPAUDLGITEMTEMPLATE@@@Z @ 8139 NONAME
 ?SplitRow@CSplitterWnd@@UAEHH@Z @ 8140 NONAME
 ?StartDocW@CDC@@QAEHPAU_DOCINFOW@@@Z @ 8141 NONAME
 ?StartDocW@CDC@@QAEHPBG@Z @ 8142 NONAME
 ?StartDrag@CDockContext@@UAEXVCPoint@@@Z @ 8143 NONAME
 ?StartPage@CDC@@QAEHXZ @ 8144 NONAME
 ?StartResize@CDockContext@@UAEXHVCPoint@@@Z @ 8145 NONAME
 ?StartTracking@CSplitterWnd@@MAEXH@Z @ 8146 NONAME
 ?Stat@CArchiveStream@@UAGJPAUtagSTATSTG@@K@Z @ 8147 NONAME
 ?StepIt@CProgressCtrl@@QAEHXZ @ 8148 NONAME
 ?Stop@CAnimateCtrl@@QAEHXZ @ 8149 NONAME
 ?Stop@CHtmlView@@QAEXXZ @ 8150 NONAME
 ?StopGroupTyping@CRichEditCtrl@@QAEXXZ @ 8151 NONAME
 ?StopTracking@CSplitterWnd@@MAEXH@Z @ 8152 NONAME
 ?Store@CRuntimeClass@@QBEXAAVCArchive@@@Z @ 8153 NONAME
 ?StoreFields@CRecordset@@QAEXXZ @ 8154 NONAME
 ?Stream@CRichEditView@@QAEXAAVCArchive@@H@Z @ 8155 NONAME
 ?StreamIn@CRichEditCtrl@@QAEJHAAU_editstream@@@Z @ 8156 NONAME
 ?StreamOut@CRichEditCtrl@@QAEJHAAU_editstream@@@Z @ 8157 NONAME
 ?Stretch@CDockContext@@QAEXVCPoint@@@Z @ 8158 NONAME
 ?StretchBlt@CDC@@QAEHHHHHPAV1@HHHHK@Z @ 8159 NONAME
 ?StrokeAndFillPath@CDC@@QAEHXZ @ 8160 NONAME
 ?StrokePath@CDC@@QAEHXZ @ 8161 NONAME
 ?SubclassDlgItem@CWnd@@QAEHIPAV1@@Z @ 8162 NONAME
 ?SubclassWindow@CWnd@@QAEHPAUHWND__@@@Z @ 8163 NONAME
 ?SubItemHitTest@CListCtrl@@QAEHPAUtagLVHITTESTINFO@@@Z @ 8164 NONAME
 ?SupportsIPrint@COleDocObjectItem@@IAEHXZ @ 8165 NONAME
 ?SuspendThread@CWinThread@@QAEKXZ @ 8166 NONAME
 ?SyncAfter@XNotifyDBEvents@COleControlSite@@UAGJKKQAUtagDBNOTIFYREASON@@@Z @ 8167 NONAME
 ?SyncBefore@XNotifyDBEvents@COleControlSite@@UAGJKKQAUtagDBNOTIFYREASON@@@Z @ 8168 NONAME
 ?SyncToRichEditObject@CRichEditCntrItem@@QAEXAAU_reobject@@@Z @ 8169 NONAME
 ?TabbedTextOutW@CDC@@QAE?AVCSize@@HHABV?$CStringT@GV?$StrTraitMFC@GV?$ChTraitsCRT@G@@@@@@HPAHH@Z @ 8170 NONAME
 ?TabbedTextOutW@CDC@@UAE?AVCSize@@HHPBGHHPAHH@Z @ 8171 NONAME
 ?TabbedTextOutW@CMetaFileDC@@QAE?AVCSize@@HHABV?$CStringT@GV?$StrTraitMFC@GV?$ChTraitsCRT@G@@@@@@HPAHH@Z @ 8172 NONAME
 ?TabbedTextOutW@CMetaFileDC@@UAE?AVCSize@@HHPBGHHPAHH@Z @ 8173 NONAME
 ?TabbedTextOutW@CPreviewDC@@UAE?AVCSize@@HHPBGHHPAHH@Z @ 8174 NONAME
 ?TextNotFound@CRichEditView@@QAEXPBG@Z @ 8175 NONAME
 ?TextOutW@CDC@@QAEHHHABV?$CStringT@GV?$StrTraitMFC@GV?$ChTraitsCRT@G@@@@@@@Z @ 8176 NONAME
 ?TextOutW@CDC@@UAEHHHPBGH@Z @ 8177 NONAME
 ?TextOutW@CMetaFileDC@@QAEHHHABV?$CStringT@GV?$StrTraitMFC@GV?$ChTraitsCRT@G@@@@@@@Z @ 8178 NONAME
 ?TextOutW@CMetaFileDC@@UAEHHHPBGH@Z @ 8179 NONAME
 ?TextOutW@CPreviewDC@@UAEHHHPBGH@Z @ 8180 NONAME
 ?ThrowDBException@CDatabase@@MAEXF@Z @ 8181 NONAME
 ?ThrowDBException@CRecordset@@UAEXFPAX@Z @ 8182 NONAME
 ?ThrowErrno@CFileException@@SGXHPBG@Z @ 8183 NONAME
 ?ThrowError@COleControl@@QAEXJII@Z @ 8184 NONAME
 ?ThrowError@COleControl@@QAEXJPBGI@Z @ 8185 NONAME
 ?ThrowOsError@CFileException@@SGXJPBG@Z @ 8186 NONAME
 ?ToggleDocking@CDockContext@@UAEXXZ @ 8187 NONAME
 ?ToVariant@CDataSourceControl@@QAE?AVCOleVariant@@H@Z @ 8188 NONAME
 ?TraceErrorMessage@CDBException@@QBEXPBG@Z @ 8189 NONAME
 ?Track@CDockContext@@QAEHXZ @ 8190 NONAME
 ?Track@CRectTracker@@QAEHPAVCWnd@@VCPoint@@H0@Z @ 8191 NONAME
 ?TrackColumnSize@CSplitterWnd@@MAEXHH@Z @ 8192 NONAME
 ?TrackHandle@CRectTracker@@IAEHHPAVCWnd@@VCPoint@@0@Z @ 8193 NONAME
 ?TrackPopupMenu@CMenu@@QAEHIHHPAVCWnd@@PBUtagRECT@@@Z @ 8194 NONAME
 ?TrackRowSize@CSplitterWnd@@MAEXHH@Z @ 8195 NONAME
 ?TrackRubberBand@CRectTracker@@QAEHPAVCWnd@@VCPoint@@H@Z @ 8196 NONAME
 ?TransformCoords@COleControl@@QAEXPAU_POINTL@@PAUtagPOINTF@@K@Z @ 8197 NONAME
 ?TransformCoords@XOleControlSite@COleControlSite@@UAGJPAU_POINTL@@PAUtagPOINTF@@K@Z @ 8198 NONAME
 ?TranslateAcceleratorW@CBrowserControlSite@@MAGJPAUtagMSG@@PBU_GUID@@K@Z @ 8199 NONAME
 ?TranslateAcceleratorW@CDHtmlDialog@@UAGJPAUtagMSG@@PBU_GUID@@K@Z @ 8200 NONAME
 ?TranslateAcceleratorW@XDocHostUIHandler@CHtmlControlSite@@UAGJPAUtagMSG@@PBU_GUID@@K@Z @ 8201 NONAME
 ?TranslateAcceleratorW@XOleControlSite@COleControlSite@@UAGJPAUtagMSG@@K@Z @ 8202 NONAME
 ?TranslateAcceleratorW@XOleInPlaceActiveObject@COleControl@@UAGJPAUtagMSG@@@Z @ 8203 NONAME
 ?TranslateAcceleratorW@XOleInPlaceActiveObject@COleServerDoc@@UAGJPAUtagMSG@@@Z @ 8204 NONAME
 ?TranslateAcceleratorW@XOleInPlaceFrame@COleFrameHook@@UAGJPAUtagMSG@@G@Z @ 8205 NONAME
 ?TranslateAcceleratorW@XOleIPFrame@COleControlContainer@@UAGJPAUtagMSG@@G@Z @ 8206 NONAME
 ?TranslateAcceleratorW@XPropertyPage@COlePropertyPage@@UAGJPAUtagMSG@@@Z @ 8207 NONAME
 ?TranslateColor@COleControl@@QAEKKPAUHPALETTE__@@@Z @ 8208 NONAME
 ?TranslateUrl@CBrowserControlSite@@MAGJKPAGPAPAG@Z @ 8209 NONAME
 ?TranslateUrl@CDHtmlDialog@@UAGJKPAGPAPAG@Z @ 8210 NONAME
 ?TranslateUrl@XDocHostUIHandler@CHtmlControlSite@@UAGJKPAGPAPAG@Z @ 8211 NONAME
 ?TransparentBlt@CDC@@QAEHHHHHPAV1@HHHHI@Z @ 8212 NONAME
 ?UIActivate@XOleDocumentView@CDocObjectServer@@UAGJH@Z @ 8213 NONAME
 ?UIActivateControl@COccManager@@KAXPAVCWnd@@@Z @ 8214 NONAME
 ?UIDeactivate@XOleInPlaceObject@COleControl@@UAGJXZ @ 8215 NONAME
 ?UIDeactivate@XOleInPlaceObject@COleServerDoc@@UAGJXZ @ 8216 NONAME
 ?UIDeactivateIfNecessary@COccManager@@KAXPAVCWnd@@0@Z @ 8217 NONAME
 ?UnaccessData@COleSafeArray@@QAEXXZ @ 8218 NONAME
 ?UnAdvise@CDHtmlElementEventSink@@QAEJPAUIUnknown@@ABU_GUID@@@Z @ 8219 NONAME
 ?Unadvise@XConnPt@CConnectionPoint@@UAGJK@Z @ 8220 NONAME
 ?Unadvise@XOleObject@CDocObjectServer@@UAGJK@Z @ 8221 NONAME
 ?Unadvise@XOleObject@COleControl@@UAGJK@Z @ 8222 NONAME
 ?Unadvise@XOleObject@COleServerDoc@@UAGJK@Z @ 8223 NONAME
 ?Unadvise@XOleObject@COleServerItem@@UAGJK@Z @ 8224 NONAME
 ?UnbindFieldsForUpdate@CRecordset@@QAEXXZ @ 8225 NONAME
 ?Uncache@XOleCache@COleControl@@UAGJK@Z @ 8226 NONAME
 ?Undo@CEdit@@QAEHXZ @ 8227 NONAME
 ?Undo@CRichEditCtrl@@QAEHXZ @ 8228 NONAME
 ?Unfreeze@XViewObject@COleControl@@UAGJK@Z @ 8229 NONAME
 ?Unlock@CCriticalSection@@UAEHXZ @ 8230 NONAME
 ?Unlock@CEvent@@UAEHXZ @ 8231 NONAME
 ?Unlock@CMultiLock@@QAEHJPAJ@Z @ 8232 NONAME
 ?Unlock@CMultiLock@@QAEHXZ @ 8233 NONAME
 ?Unlock@CMutex@@UAEHXZ @ 8234 NONAME
 ?Unlock@COleSafeArray@@QAEXXZ @ 8235 NONAME
 ?Unlock@CSemaphore@@UAEHJPAJ@Z @ 8236 NONAME
 ?Unlock@CSemaphore@@UAEHXZ @ 8237 NONAME
 ?Unlock@CSingleLock@@QAEHJPAJ@Z @ 8238 NONAME
 ?Unlock@CSingleLock@@QAEHXZ @ 8239 NONAME
 ?Unlock@CTypeLibCache@@QAEXXZ @ 8240 NONAME
 ?UnlockBuffer@CEditView@@QBEXXZ @ 8241 NONAME
 ?UnlockRange@CFile@@UAEX_K0@Z @ 8242 NONAME
 ?UnlockRange@CInternetFile@@UAEX_K0@Z @ 8243 NONAME
 ?UnlockRange@CMemFile@@UAEX_K0@Z @ 8244 NONAME
 ?UnlockRange@COleStreamFile@@UAEX_K0@Z @ 8245 NONAME
 ?UnlockRange@CSocketFile@@UAEX_K0@Z @ 8246 NONAME
 ?UnlockRange@CStdioFile@@UAEX_K0@Z @ 8247 NONAME
 ?UnlockRegion@CArchiveStream@@UAGJT_ULARGE_INTEGER@@0K@Z @ 8248 NONAME
 ?UnlockWindowUpdate@CWnd@@QAEXXZ @ 8249 NONAME
 ?UnrealizeObject@CGdiObject@@QAEHXZ @ 8250 NONAME
 ?Unregister@COleObjectFactory@@QAEHXZ @ 8251 NONAME
 ?Unregister@COleTemplateServer@@QAEHXZ @ 8252 NONAME
 ?Unregister@CWinApp@@UAEHXZ @ 8253 NONAME
 ?UnregisterAll@COleObjectFactory@@SGHXZ @ 8254 NONAME
 ?UnregisterShellFileTypes@CDocManager@@QAEXXZ @ 8255 NONAME
 ?UnregisterShellFileTypes@CWinApp@@IAEXXZ @ 8256 NONAME
 ?UnsubclassWindow@CWnd@@QAEPAUHWND__@@XZ @ 8257 NONAME
 ?Update@CListCtrl@@QAEHH@Z @ 8258 NONAME
 ?Update@CRecordset@@UAEHXZ @ 8259 NONAME
 ?Update@CToolTipCtrl@@QAEXXZ @ 8260 NONAME
 ?Update@XOleObject@CDocObjectServer@@UAGJXZ @ 8261 NONAME
 ?Update@XOleObject@COleControl@@UAGJXZ @ 8262 NONAME
 ?Update@XOleObject@COleServerDoc@@UAGJXZ @ 8263 NONAME
 ?Update@XOleObject@COleServerItem@@UAGJXZ @ 8264 NONAME
 ?UpdateAllItems@COleServerDoc@@QAEXPAVCOleServerItem@@JPAVCObject@@W4tagDVASPECT@@@Z @ 8265 NONAME
 ?UpdateAllPanes@CStatusBar@@IAEXHH@Z @ 8266 NONAME
 ?UpdateAllViews@CDocument@@QAEXPAVCView@@JPAVCObject@@@Z @ 8267 NONAME
 ?UpdateBars@CScrollView@@IAEXXZ @ 8268 NONAME
 ?UpdateClientEdge@CMDIChildWnd@@IAEHPAUtagRECT@@@Z @ 8269 NONAME
 ?UpdateColors@CDC@@QAEXXZ @ 8270 NONAME
 ?UpdateControls@CDataSourceControl@@UAEJXZ @ 8271 NONAME
 ?UpdateCursor@CDataSourceControl@@UAEJXZ @ 8272 NONAME
 ?UpdateData@CMemoryState@@QAEXXZ @ 8273 NONAME
 ?UpdateData@CWnd@@QAEHH@Z @ 8274 NONAME
 ?UpdateDialogControls@CWnd@@QAEXPAVCCmdTarget@@H@Z @ 8275 NONAME
 ?UpdateFrameCounts@CDocument@@UAEXXZ @ 8276 NONAME
 ?UpdateFrameTitleForDocument@CFrameWnd@@QAEXPBG@Z @ 8277 NONAME
 ?UpdateInsertDelete@CRecordset@@IAEHXZ @ 8278 NONAME
 ?UpdateItemType@COleClientItem@@QAEXXZ @ 8279 NONAME
 ?UpdateLink@COleClientItem@@QAEHXZ @ 8280 NONAME
 ?UpdateLink@COleUILinkInfo@@UAGJKHH@Z @ 8281 NONAME
 ?UpdateMenu@CRecentFileList@@UAEXPAVCCmdUI@@@Z @ 8282 NONAME
 ?UpdateModifiedFlag@COleDocument@@UAEXXZ @ 8283 NONAME
 ?UpdateModifiedFlag@CRichEditDoc@@UAEXXZ @ 8284 NONAME
 ?UpdateObjectCache@CRichEditDoc@@IAEXXZ @ 8285 NONAME
 ?UpdatePrinterSelection@CWinApp@@IAEXH@Z @ 8286 NONAME
 ?UpdateRegistry@COleObjectFactory@@MAEHH@Z @ 8287 NONAME
 ?UpdateRegistry@COleObjectFactory@@QAEXPBG@Z @ 8288 NONAME
 ?UpdateRegistry@COleTemplateServer@@QAEXW4OLE_APPTYPE@@PAPBG1H@Z @ 8289 NONAME
 ?UpdateRegistryAll@COleObjectFactory@@SGHH@Z @ 8290 NONAME
 ?UpdateState@CDockContext@@QAEXPAHH@Z @ 8291 NONAME
 ?UpdateTipText@CToolTipCtrl@@QAEXIPAVCWnd@@I@Z @ 8292 NONAME
 ?UpdateTipText@CToolTipCtrl@@QAEXPBGPAVCWnd@@I@Z @ 8293 NONAME
 ?UpdateUI@CBrowserControlSite@@MAGJXZ @ 8294 NONAME
 ?UpdateUI@CDHtmlDialog@@UAGJXZ @ 8295 NONAME
 ?UpdateUI@XDocHostUIHandler@CHtmlControlSite@@UAGJXZ @ 8296 NONAME
 ?UpdateUsingHostObj@COleServerDoc@@IAEXIPAVCCmdUI@@@Z @ 8297 NONAME
 ?UpdateVisibleLock@COleLinkingDoc@@IAEXHH@Z @ 8298 NONAME
 ?UpdateWindow@CWnd@@QAEXXZ @ 8299 NONAME
 ?ValidateRect@CWnd@@QAEXPBUtagRECT@@@Z @ 8300 NONAME
 ?ValidateRgn@CWnd@@QAEXPAVCRgn@@@Z @ 8301 NONAME
 ?VerifyConnect@CDatabase@@IAEXXZ @ 8302 NONAME
 ?VerifyCursorSupport@CRecordset@@IAEKXZ @ 8303 NONAME
 ?VerifyDriverBehavior@CRecordset@@IAEXXZ @ 8304 NONAME
 ?VerifyLicenseKey@COleObjectFactory@@MAEHPAG@Z @ 8305 NONAME
 ?VerifyUserLicense@COleObjectFactory@@MAEHXZ @ 8306 NONAME
 ?VKeyToItem@CListBox@@UAEHII@Z @ 8307 NONAME
 ?WalkPreTranslateTree@CWnd@@SGHPAUHWND__@@PAUtagMSG@@@Z @ 8308 NONAME
 ?WidenPath@CDC@@QAEHXZ @ 8309 NONAME
 ?WillAmbientsBeValidDuringLoad@COleControl@@QAEHXZ @ 8310 NONAME
 ?WindowFromPoint@CWnd@@SGPAV1@UtagPOINT@@@Z @ 8311 NONAME
 ?WindowProc@CControlBar@@UAEJIIJ@Z @ 8312 NONAME
 ?WindowProc@COleControl@@UAEJIIJ@Z @ 8313 NONAME
 ?WindowProc@COlePropertyPage@@MAEJIIJ@Z @ 8314 NONAME
 ?WindowProc@CParkingWnd@@UAEJIIJ@Z @ 8315 NONAME
 ?WindowProc@CReBar@@MAEJIIJ@Z @ 8316 NONAME
 ?WindowProc@CReflectorWnd@@MAEJIIJ@Z @ 8317 NONAME
 ?WindowProc@CWnd@@MAEJIIJ@Z @ 8318 NONAME
 ?WinHelpInternal@CWinApp@@UAEXKI@Z @ 8319 NONAME
 ?WinHelpInternal@CWnd@@UAEXKI@Z @ 8320 NONAME
 ?WinHelpW@CWinApp@@UAEXKI@Z @ 8321 NONAME
 ?WinHelpW@CWnd@@UAEXKI@Z @ 8322 NONAME
 ?wndBottom@CWnd@@2V1@B @ 8323 NONAME DATA
 ?wndNoTopMost@CWnd@@2V1@B @ 8324 NONAME DATA
 ?wndTop@CWnd@@2V1@B @ 8325 NONAME DATA
 ?wndTopMost@CWnd@@2V1@B @ 8326 NONAME DATA
 ?WrapChanged@CRichEditView@@MAEXXZ @ 8327 NONAME
 ?WrapToolBar@CToolBar@@IAEHPAU_TBBUTTON@@HH@Z @ 8328 NONAME
 ?Write@CArchive@@QAEXPBXI@Z @ 8329 NONAME
 ?Write@CArchiveStream@@UAGJPBXKPAK@Z @ 8330 NONAME
 ?Write@CFile@@UAEXPBXI@Z @ 8331 NONAME
 ?Write@CGopherFile@@UAEXPBXI@Z @ 8332 NONAME
 ?Write@CImageList@@QAEHPAVCArchive@@@Z @ 8333 NONAME
 ?Write@CInternetFile@@UAEXPBXI@Z @ 8334 NONAME
 ?Write@CMemFile@@UAEXPBXI@Z @ 8335 NONAME
 ?Write@COleStreamFile@@UAEXPBXI@Z @ 8336 NONAME
 ?Write@CSocketFile@@UAEXPBXI@Z @ 8337 NONAME
 ?Write@CStdioFile@@UAEXPBXI@Z @ 8338 NONAME
 ?WriteClass@CArchive@@QAEXPBUCRuntimeClass@@@Z @ 8339 NONAME
 ?WriteCount@CArchive@@QAEXK@Z @ 8340 NONAME
 ?WriteItem@COleClientItem@@UAEXAAVCArchive@@@Z @ 8341 NONAME
 ?WriteItemCompound@COleClientItem@@QAEXAAVCArchive@@@Z @ 8342 NONAME
 ?WriteItemFlat@COleClientItem@@QAEXAAVCArchive@@@Z @ 8343 NONAME
 ?WriteList@CRecentFileList@@UAEXXZ @ 8344 NONAME
 ?WriteNameDictToStream@CPropertySection@@QAEHPAUIStream@@@Z @ 8345 NONAME
 ?WriteObject@CArchive@@QAEXPBVCObject@@@Z @ 8346 NONAME
 ?WriteProfileBinary@CWinApp@@QAEHPBG0PAEI@Z @ 8347 NONAME
 ?WriteProfileInt@CWinApp@@QAEHPBG0H@Z @ 8348 NONAME
 ?WriteProfileStringW@CWinApp@@QAEHPBG00@Z @ 8349 NONAME
 ?WriteString@CArchive@@QAEXPBG@Z @ 8350 NONAME
 ?WriteString@CGopherFile@@UAEXPBG@Z @ 8351 NONAME
 ?WriteString@CInternetFile@@UAEXPBG@Z @ 8352 NONAME
 ?WriteString@CStdioFile@@UAEXPBG@Z @ 8353 NONAME
 ?WriteToArchive@CEditView@@QAEXAAVCArchive@@@Z @ 8354 NONAME
 ?WriteToStream@CProperty@@QAEHPAUIStream@@@Z @ 8355 NONAME
 ?WriteToStream@CPropertySection@@QAEHPAUIStream@@@Z @ 8356 NONAME
 ?WriteToStream@CPropertySet@@QAEHPAUIStream@@@Z @ 8357 NONAME
; ?_mbstowcsz@@YAHPAGPBDI@Z
; ?_wcstombsz@@YAHPADPBGI@Z
; MFC 7.0 (Beta 1)
;
 ?AfxAllocTaskAnsiString@@YGPADPBD@Z @ 8358 NONAME
 ?AfxAllocTaskAnsiString@@YGPADPBG@Z @ 8359 NONAME
 ?AfxAllocTaskWideString@@YGPAGPBD@Z @ 8360 NONAME
 ?AfxAllocTaskWideString@@YGPAGPBG@Z @ 8361 NONAME
 ?CreateDlgIndirect@CWnd@@IAEHPBUDLGTEMPLATE@@PAV1@PAUHINSTANCE__@@@Z @ 8362 NONAME
 ?CreateIndirect@CDialog@@IAEHPAXPAVCWnd@@PAUHINSTANCE__@@@Z @ 8363 NONAME
 ?CreateIndirect@CDialog@@IAEHPBUDLGTEMPLATE@@PAVCWnd@@PAXPAUHINSTANCE__@@@Z @ 8364 NONAME
 ?GetSysPolicyValue@CWinApp@@QAEHKPAH@Z @ 8365 NONAME
 ?LoadSysPolicies@CWinApp@@UAEHXZ @ 8366 NONAME
 ?OnPaint@CCommonDialog@@IAEXXZ @ 8367 NONAME
 ?QueryCommand@COleDocObjectItem@@QAEJKPAKPAU_tagOLECMDTEXT@@PBU_GUID@@@Z @ 8368 NONAME
 ?SetDialogBkColor@CWinApp@@IAEXKK@Z @ 8369 NONAME
